 EliteTaskbar

 Timestamp is 6a4db49e (Tue Jul  7 22:23:26 2026)

 Preferred load address is 0000000140000000

 Start         Length     Name                   Class
 0001:00000000 000007b0H .text$di                CODE
 0001:000007b0 000a97a0H .text$mn                CODE
 0001:000a9f50 00000040H .text$mn$00             CODE
 0001:000a9f90 00000b50H .text$mn$21             CODE
 0001:000aaae0 000029b0H .text$x                 CODE
 0001:000ad490 000001f6H .text$yd                CODE
 0002:00000000 00000ca0H .idata$5                DATA
 0002:00000ca0 00000038H .00cfg                  DATA
 0002:00000cd8 00000008H .CRT$XCA                DATA
 0002:00000ce0 00000008H .CRT$XCAA               DATA
 0002:00000ce8 00000118H .CRT$XCC                DATA
 0002:00000e00 00000038H .CRT$XCL                DATA
 0002:00000e38 00000058H .CRT$XCU                DATA
 0002:00000e90 00000008H .CRT$XCZ                DATA
 0002:00000e98 00000008H .CRT$XIA                DATA
 0002:00000ea0 00000008H .CRT$XIAA               DATA
 0002:00000ea8 00000008H .CRT$XIAC               DATA
 0002:00000eb0 00000028H .CRT$XIC                DATA
 0002:00000ed8 00000008H .CRT$XIZ                DATA
 0002:00000ee0 00000008H .CRT$XLA                DATA
 0002:00000ee8 00000008H .CRT$XLZ                DATA
 0002:00000ef0 00000008H .CRT$XPA                DATA
 0002:00000ef8 00000010H .CRT$XPX                DATA
 0002:00000f08 00000008H .CRT$XPXA               DATA
 0002:00000f10 00000008H .CRT$XPZ                DATA
 0002:00000f18 00000008H .CRT$XTA                DATA
 0002:00000f20 00000020H .CRT$XTZ                DATA
 0002:00000f28 00000000H .gehcont$y              DATA
 0002:00000f28 00000000H .gfids$y                DATA
 0002:00000f40 0002ac20H .rdata                  DATA
 0002:0002bb60 000001a0H .rdata$00               DATA
 0002:0002bd00 00000000H .rdata$CastGuardVftablesA DATA
 0002:0002bd00 00000000H .rdata$CastGuardVftablesC DATA
 0002:0002bd00 00000030H .rdata$T                DATA
 0002:0002bd30 0000186cH .rdata$r                DATA
 0002:0002d59c 000004f4H .rdata$voltmd           DATA
 0002:0002da90 00000430H .rdata$zzzdbg           DATA
 0002:0002dec0 00000008H .rtc$IAA                DATA
 0002:0002dec8 00000008H .rtc$IZZ                DATA
 0002:0002ded0 00000008H .rtc$TAA                DATA
 0002:0002ded8 00000008H .rtc$TZZ                DATA
 0002:0002dee0 00000004H .tls                    DATA
 0002:0002dee4 00000004H .tls$                   DATA
 0002:0002dee8 00000008H .tls$ZZZ                DATA
 0002:0002def0 000041d8H .xdata                  DATA
 0002:000320c8 000003ccH .xdata$x                DATA
 0002:00032494 00000000H .edata                  DATA
 0002:00032494 000000f0H .idata$2                DATA
 0002:00032584 00000014H .idata$3                DATA
 0002:00032598 00000ca0H .idata$4                DATA
 0002:00033238 00001cbcH .idata$6                DATA
 0003:00000000 00000d48H .data                   DATA
 0003:00000d48 000001f8H .data$r                 DATA
 0003:00000f40 00000740H .data$rs                DATA
 0003:00001680 00001ff4H .bss                    DATA
 0004:00000000 00008bc8H .pdata                  DATA
 0005:00000000 000006f0H .rsrc$01                DATA
 0005:000006f0 00026b30H .rsrc$02                DATA

  Address         Publics by Value              Rva+Base               Lib:Object

 0000:00000000       __AbsoluteZero             0000000000000000     <absolute>
 0000:00000000       ___safe_se_handler_count   0000000000000000     <absolute>
 0000:00000000       ___safe_se_handler_table   0000000000000000     <absolute>
 0000:00000000       __arm64x_extra_rfe_table   0000000000000000     <absolute>
 0000:00000000       __arm64x_extra_rfe_table_size 0000000000000000     <absolute>
 0000:00000000       __arm64x_native_entrypoint 0000000000000000     <absolute>
 0000:00000000       __arm64x_redirection_metadata 0000000000000000     <absolute>
 0000:00000000       __arm64x_redirection_metadata_count 0000000000000000     <absolute>
 0000:00000000       __dynamic_value_reloc_table 0000000000000000     <absolute>
 0000:00000000       __enclave_config           0000000000000000     <absolute>
 0000:00000000       __guard_check_icall_a64n_fptr 0000000000000000     <absolute>
 0000:00000000       __guard_eh_cont_count      0000000000000000     <absolute>
 0000:00000000       __guard_eh_cont_table      0000000000000000     <absolute>
 0000:00000000       __guard_fids_count         0000000000000000     <absolute>
 0000:00000000       __guard_fids_table         0000000000000000     <absolute>
 0000:00000000       __guard_iat_count          0000000000000000     <absolute>
 0000:00000000       __guard_iat_table          0000000000000000     <absolute>
 0000:00000000       __guard_longjmp_count      0000000000000000     <absolute>
 0000:00000000       __guard_longjmp_table      0000000000000000     <absolute>
 0000:00000000       __hybrid_auxiliary_delayload_iat 0000000000000000     <absolute>
 0000:00000000       __hybrid_auxiliary_delayload_iat_copy 0000000000000000     <absolute>
 0000:00000000       __hybrid_auxiliary_iat     0000000000000000     <absolute>
 0000:00000000       __hybrid_auxiliary_iat_copy 0000000000000000     <absolute>
 0000:00000000       __hybrid_code_map          0000000000000000     <absolute>
 0000:00000000       __hybrid_code_map_count    0000000000000000     <absolute>
 0000:00000000       __hybrid_image_info_bitfield 0000000000000000     <absolute>
 0000:00000000       __x64_code_ranges_to_entry_points 0000000000000000     <absolute>
 0000:00000000       __x64_code_ranges_to_entry_points_count 0000000000000000     <absolute>
 0000:00000100       __guard_flags              0000000000000100     <absolute>
 0000:00000000       __ImageBase                0000000140000000     <linker-defined>
 0001:000007b0       WinMain                    00000001400017b0 f   main.obj
 0001:00000800       ?QueryOperationalMode@@YAXXZ 0000000140001800 f   main.obj
 0001:00000b90       ?EXCEPTION_EXECUTE_HANDLER_FUNC@@YAHIPEAU_EXCEPTION_POINTERS@@@Z 0000000140001b90 f   main.obj
 0001:00000c40       ?PerformBootSynchronization@@YAXXZ 0000000140001c40 f   main.obj
 0001:000013c0       ?RunApplication@@YAXPEAUHINSTANCE__@@@Z 00000001400023c0 f   main.obj
 0001:00001720       ??$?0$$V@?$_Compressed_pair@V?$allocator@PEAUHMONITOR__@@@std@@V?$_Vector_val@U?$_Simple_types@PEAUHMONITOR__@@@std@@@2@$00@std@@QEAA@U_Zero_then_variadic_args_t@1@@Z 0000000140002720 f i main.obj
 0001:00001720       ??$?0$$V@?$_Compressed_pair@V?$allocator@PEAUHWND__@@@std@@V?$_Vector_val@U?$_Simple_types@PEAUHWND__@@@std@@@2@$00@std@@QEAA@U_Zero_then_variadic_args_t@1@@Z 0000000140002720 f i TaskbarWindow.obj
 0001:00001720       ??$?0$$V@?$_Compressed_pair@V?$allocator@PEAUTaskbarInstance@@@std@@V?$_Vector_val@U?$_Simple_types@PEAUTaskbarInstance@@@std@@@2@$00@std@@QEAA@U_Zero_then_variadic_args_t@1@@Z 0000000140002720 f i TaskbarWindow.obj
 0001:00001720       ??$?0$$V@?$_Compressed_pair@V?$allocator@PEAU_PSP@@@std@@V?$_Vector_val@U?$_Simple_types@PEAU_PSP@@@std@@@2@$00@std@@QEAA@U_Zero_then_variadic_args_t@1@@Z 0000000140002720 f i TaskbarProperties.obj
 0001:00001720       ??$?0$$V@?$_Compressed_pair@V?$allocator@UEliteTrayIcon@@@std@@V?$_Vector_val@U?$_Simple_types@UEliteTrayIcon@@@std@@@2@$00@std@@QEAA@U_Zero_then_variadic_args_t@1@@Z 0000000140002720 f i TaskbarWindow.obj
 0001:00001720       ??$?0$$V@?$_Compressed_pair@V?$allocator@UMonitorInfo@@@std@@V?$_Vector_val@U?$_Simple_types@UMonitorInfo@@@std@@@2@$00@std@@QEAA@U_Zero_then_variadic_args_t@1@@Z 0000000140002720 f i TaskbarProperties.obj
 0001:00001720       ??$?0$$V@?$_Compressed_pair@V?$allocator@USavedPos@@@std@@V?$_Vector_val@U?$_Simple_types@USavedPos@@@std@@@2@$00@std@@QEAA@U_Zero_then_variadic_args_t@1@@Z 0000000140002720 f i DesktopWindow.obj
 0001:00001720       ??$?0$$V@?$_Compressed_pair@V?$allocator@UScrapedTrayIcon@@@std@@V?$_Vector_val@U?$_Simple_types@UScrapedTrayIcon@@@std@@@2@$00@std@@QEAA@U_Zero_then_variadic_args_t@1@@Z 0000000140002720 f i TaskbarWindow.obj
 0001:00001720       ??$?0$$V@?$_Compressed_pair@V?$allocator@UtagRECT@@@std@@V?$_Vector_val@U?$_Simple_types@UtagRECT@@@std@@@2@$00@std@@QEAA@U_Zero_then_variadic_args_t@1@@Z 0000000140002720 f i TaskbarWindow.obj
 0001:00001720       ??$?0$$V@?$_Compressed_pair@V?$allocator@V?$basic_string@_WU?$char_traits@_W@std@@V?$allocator@_W@2@@std@@@std@@V?$_Vector_val@U?$_Simple_types@V?$basic_string@_WU?$char_traits@_W@std@@V?$allocator@_W@2@@std@@@std@@@2@$00@std@@QEAA@U_Zero_then_variadic_args_t@1@@Z 0000000140002720 f i StartButton.obj
 0001:00001750       ??$?0$$V@?$_Compressed_pair@V?$allocator@D@std@@V?$_String_val@U?$_Simple_types@D@std@@@2@$00@std@@QEAA@U_Zero_then_variadic_args_t@1@@Z 0000000140002750 f i Logger.obj
 0001:00001750       ??$?0$$V@?$_Compressed_pair@V?$allocator@_W@std@@V?$_String_val@U?$_Simple_types@_W@std@@@2@$00@std@@QEAA@U_Zero_then_variadic_args_t@1@@Z 0000000140002750 f i main.obj
 0001:00001780       ??$?0D@?$allocator@U_Container_proxy@std@@@std@@QEAA@AEBV?$allocator@D@1@@Z 0000000140002780 f i Logger.obj
 0001:00001780       ??$?0I@?$allocator@U_Container_proxy@std@@@std@@QEAA@AEBV?$allocator@I@1@@Z 0000000140002780 f i TaskbarWindow.obj
 0001:00001780       ??$?0PEAUHMONITOR__@@@?$allocator@U_Container_proxy@std@@@std@@QEAA@AEBV?$allocator@PEAUHMONITOR__@@@1@@Z 0000000140002780 f i main.obj
 0001:00001780       ??$?0PEAUHWND__@@@?$allocator@U_Container_proxy@std@@@std@@QEAA@AEBV?$allocator@PEAUHWND__@@@1@@Z 0000000140002780 f i TaskbarWindow.obj
 0001:00001780       ??$?0PEAUTaskbarInstance@@@?$allocator@U_Container_proxy@std@@@std@@QEAA@AEBV?$allocator@PEAUTaskbarInstance@@@1@@Z 0000000140002780 f i TaskbarWindow.obj
 0001:00001780       ??$?0PEAU_PSP@@@?$allocator@U_Container_proxy@std@@@std@@QEAA@AEBV?$allocator@PEAU_PSP@@@1@@Z 0000000140002780 f i TaskbarProperties.obj
 0001:00001780       ??$?0U?$_List_node@UTaskButtonInfo@@PEAX@std@@@?$allocator@U_Container_proxy@std@@@std@@QEAA@AEBV?$allocator@U?$_List_node@UTaskButtonInfo@@PEAX@std@@@1@@Z 0000000140002780 f i TaskbarWindow.obj
 0001:00001780       ??$?0U?$_Tree_node@U?$pair@$$CBU?$pair@PEAUHWND__@@I@std@@V?$basic_string@_WU?$char_traits@_W@std@@V?$allocator@_W@2@@2@@std@@PEAX@std@@@?$allocator@U_Container_proxy@std@@@std@@QEAA@AEBV?$allocator@U?$_Tree_node@U?$pair@$$CBU?$pair@PEAUHWND__@@I@std@@V?$basic_string@_WU?$char_traits@_W@std@@V?$allocator@_W@2@@2@@std@@PEAX@std@@@1@@Z 0000000140002780 f i TrayIconScraper.obj
 0001:00001780       ??$?0UEliteTrayIcon@@@?$allocator@U_Container_proxy@std@@@std@@QEAA@AEBV?$allocator@UEliteTrayIcon@@@1@@Z 0000000140002780 f i TaskbarWindow.obj
 0001:00001780       ??$?0UMonitorInfo@@@?$allocator@U_Container_proxy@std@@@std@@QEAA@AEBV?$allocator@UMonitorInfo@@@1@@Z 0000000140002780 f i TaskbarProperties.obj
 0001:00001780       ??$?0USavedPos@@@?$allocator@U_Container_proxy@std@@@std@@QEAA@AEBV?$allocator@USavedPos@@@1@@Z 0000000140002780 f i DesktopWindow.obj
 0001:00001780       ??$?0UScrapedTrayIcon@@@?$allocator@U_Container_proxy@std@@@std@@QEAA@AEBV?$allocator@UScrapedTrayIcon@@@1@@Z 0000000140002780 f i TaskbarWindow.obj
 0001:00001780       ??$?0UtagRECT@@@?$allocator@U_Container_proxy@std@@@std@@QEAA@AEBV?$allocator@UtagRECT@@@1@@Z 0000000140002780 f i TaskbarWindow.obj
 0001:00001780       ??$?0V?$basic_string@_WU?$char_traits@_W@std@@V?$allocator@_W@2@@std@@@?$allocator@U_Container_proxy@std@@@std@@QEAA@AEBV?$allocator@V?$basic_string@_WU?$char_traits@_W@std@@V?$allocator@_W@2@@std@@@1@@Z 0000000140002780 f i StartButton.obj
 0001:00001780       ??$?0_N@?$allocator@I@std@@QEAA@AEBV?$allocator@_N@1@@Z 0000000140002780 f i TaskbarWindow.obj
 0001:00001780       ??$?0_W@?$allocator@U_Container_proxy@std@@@std@@QEAA@AEBV?$allocator@_W@1@@Z 0000000140002780 f i main.obj
 0001:00001780       ??$_Get_unwrapped_n@AEAV?$_Vb_iterator@U?$_Wrap_alloc@V?$allocator@I@std@@@std@@@std@@_J@std@@YA?A_TAEAV?$_Vb_iterator@U?$_Wrap_alloc@V?$allocator@I@std@@@std@@@0@_J@Z 0000000140002780 f i TaskbarWindow.obj
 0001:00001780       ??0?$tuple@$$V@std@@QEAA@AEBV01@@Z 0000000140002780 f i TrayIconScraper.obj
 0001:00001780       ?select_on_container_copy_construction@?$_Default_allocator_traits@V?$allocator@D@std@@@std@@SA?AV?$allocator@D@2@AEBV32@@Z 0000000140002780 f i Logger.obj
 0001:00001780       ?select_on_container_copy_construction@?$_Default_allocator_traits@V?$allocator@_W@std@@@std@@SA?AV?$allocator@_W@2@AEBV32@@Z 0000000140002780 f i Logger.obj
 0001:00001790       ??$_Alloc_proxy@V?$allocator@U_Container_proxy@std@@@std@@@_Container_base12@std@@QEAAX$$QEAV?$allocator@U_Container_proxy@std@@@1@@Z 0000000140002790 f i main.obj
 0001:00001800       ??$_Allocate@$0BA@U_Default_allocate_traits@std@@@std@@YAPEAX_K@Z 0000000140002800 f i main.obj
 0001:00001840       ??$_Allocate_at_least_helper@V?$allocator@_W@std@@@std@@YAPEA_WAEAV?$allocator@_W@0@AEA_K@Z 0000000140002840 f i main.obj
 0001:00001870       ??$_Allocate_for_capacity@$0A@@?$basic_string@_WU?$char_traits@_W@std@@V?$allocator@_W@2@@std@@CAPEA_WAEAV?$allocator@_W@1@AEA_K@Z 0000000140002870 f i main.obj
 0001:000018d0       ??$_Allocate_manually_vector_aligned@U_Default_allocate_traits@std@@@std@@YAPEAX_K@Z 00000001400028d0 f i main.obj
 0001:000019c0       ??$_Construct@$00PEB_W@?$basic_string@_WU?$char_traits@_W@std@@V?$allocator@_W@2@@std@@AEAAXQEB_W_K@Z 00000001400029c0 f i main.obj
 0001:00001bb0       ??$_Construct_in_place@PEADAEAPEAD@std@@YAXAEAPEAD0@Z 0000000140002bb0 f i Logger.obj
 0001:00001bb0       ??$_Construct_in_place@PEADAEBQEAD@std@@YAXAEAPEADAEBQEAD@Z 0000000140002bb0 f i Logger.obj
 0001:00001bb0       ??$_Construct_in_place@PEAU?$_List_node@UTaskButtonInfo@@PEAX@std@@AEAPEAU12@@std@@YAXAEAPEAU?$_List_node@UTaskButtonInfo@@PEAX@0@0@Z 0000000140002bb0 f i TaskbarWindow.obj
 0001:00001bb0       ??$_Construct_in_place@PEAU?$_List_node@UTaskButtonInfo@@PEAX@std@@AEBQEAU12@@std@@YAXAEAPEAU?$_List_node@UTaskButtonInfo@@PEAX@0@AEBQEAU10@@Z 0000000140002bb0 f i TaskbarWindow.obj
 0001:00001bb0       ??$_Construct_in_place@PEAU?$_Tree_node@U?$pair@$$CBU?$pair@PEAUHWND__@@I@std@@V?$basic_string@_WU?$char_traits@_W@std@@V?$allocator@_W@2@@2@@std@@PEAX@std@@AEAPEAU12@@std@@YAXAEAPEAU?$_Tree_node@U?$pair@$$CBU?$pair@PEAUHWND__@@I@std@@V?$basic_string@_WU?$char_traits@_W@std@@V?$allocator@_W@2@@2@@std@@PEAX@0@0@Z 0000000140002bb0 f i TrayIconScraper.obj
 0001:00001bb0       ??$_Construct_in_place@PEAU?$_Tree_node@U?$pair@$$CBU?$pair@PEAUHWND__@@I@std@@V?$basic_string@_WU?$char_traits@_W@std@@V?$allocator@_W@2@@2@@std@@PEAX@std@@AEBQEAU12@@std@@YAXAEAPEAU?$_Tree_node@U?$pair@$$CBU?$pair@PEAUHWND__@@I@std@@V?$basic_string@_WU?$char_traits@_W@std@@V?$allocator@_W@2@@2@@std@@PEAX@0@AEBQEAU10@@Z 0000000140002bb0 f i TrayIconScraper.obj
 0001:00001bb0       ??$_Construct_in_place@PEAUHMONITOR__@@AEBQEAU1@@std@@YAXAEAPEAUHMONITOR__@@AEBQEAU1@@Z 0000000140002bb0 f i TaskbarWindow.obj
 0001:00001bb0       ??$_Construct_in_place@PEAUHWND__@@AEBQEAU1@@std@@YAXAEAPEAUHWND__@@AEBQEAU1@@Z 0000000140002bb0 f i TaskbarWindow.obj
 0001:00001bb0       ??$_Construct_in_place@PEAUTaskbarInstance@@AEBQEAU1@@std@@YAXAEAPEAUTaskbarInstance@@AEBQEAU1@@Z 0000000140002bb0 f i TaskbarWindow.obj
 0001:00001bb0       ??$_Construct_in_place@PEAU_PSP@@AEBQEAU1@@std@@YAXAEAPEAU_PSP@@AEBQEAU1@@Z 0000000140002bb0 f i TaskbarProperties.obj
 0001:00001bb0       ??$_Construct_in_place@PEA_WAEAPEA_W@std@@YAXAEAPEA_W0@Z 0000000140002bb0 f i Logger.obj
 0001:00001bb0       ??$_Construct_in_place@PEA_WAEBQEA_W@std@@YAXAEAPEA_WAEBQEA_W@Z 0000000140002bb0 f i main.obj
 0001:00001c00       ??$_Construct_in_place@U_Container_proxy@std@@PEAU_Container_base12@2@@std@@YAXAEAU_Container_proxy@0@$$QEAPEAU_Container_base12@0@@Z 0000000140002c00 f i main.obj
 0001:00001c50       ??$IID_PPV_ARGS_Helper@UIApplicationDocumentLists@@@@YAPEAPEAXPEAPEAUIApplicationDocumentLists@@@Z 0000000140002c50 f i TaskbarWindow.obj
 0001:00001c50       ??$IID_PPV_ARGS_Helper@UIObjectArray@@@@YAPEAPEAXPEAPEAUIObjectArray@@@Z 0000000140002c50 f i TaskbarWindow.obj
 0001:00001c50       ??$IID_PPV_ARGS_Helper@UIPropertyStore@@@@YAPEAPEAXPEAPEAUIPropertyStore@@@Z 0000000140002c50 f i TaskbarWindow.obj
 0001:00001c50       ??$IID_PPV_ARGS_Helper@UIShellItem@@@@YAPEAPEAXPEAPEAUIShellItem@@@Z 0000000140002c50 f i TaskbarWindow.obj
 0001:00001c50       ??$IID_PPV_ARGS_Helper@UIShellItemImageFactory@@@@YAPEAPEAXPEAPEAUIShellItemImageFactory@@@Z 0000000140002c50 f i DesktopWindow.obj
 0001:00001c50       ??$_Convert_size@_K_K@std@@YA_K_K@Z 0000000140002c50 f i main.obj
 0001:00001c50       ??$_Get_unwrapped@AEAV?$_Vb_iterator@U?$_Wrap_alloc@V?$allocator@I@std@@@std@@@std@@@std@@YA?A_TAEAV?$_Vb_iterator@U?$_Wrap_alloc@V?$allocator@I@std@@@std@@@0@@Z 0000000140002c50 f i TaskbarWindow.obj
 0001:00001c50       ??$_Kfn@$$CBU?$pair@PEAUHWND__@@I@std@@V?$basic_string@_WU?$char_traits@_W@std@@V?$allocator@_W@2@@2@@?$_Tmap_traits@U?$pair@PEAUHWND__@@I@std@@V?$basic_string@_WU?$char_traits@_W@std@@V?$allocator@_W@2@@2@U?$less@U?$pair@PEAUHWND__@@I@std@@@2@V?$allocator@U?$pair@$$CBU?$pair@PEAUHWND__@@I@std@@V?$basic_string@_WU?$char_traits@_W@std@@V?$allocator@_W@2@@2@@std@@@2@$0A@@std@@SAAEBU?$pair@PEAUHWND__@@I@1@AEBU?$pair@$$CBU?$pair@PEAUHWND__@@I@std@@V?$basic_string@_WU?$char_traits@_W@std@@V?$allocator@_W@2@@2@@1@@Z 0000000140002c50 f i TrayIconScraper.obj
 0001:00001c50       ??$_Unfancy@D@std@@YAPEADPEAD@Z 0000000140002c50 f i Logger.obj
 0001:00001c50       ??$_Unfancy@I@std@@YAPEAIPEAI@Z 0000000140002c50 f i TaskbarWindow.obj
 0001:00001c50       ??$_Unfancy@PEAUHMONITOR__@@@std@@YAPEAPEAUHMONITOR__@@PEAPEAU1@@Z 0000000140002c50 f i TaskbarWindow.obj
 0001:00001c50       ??$_Unfancy@PEAUHWND__@@@std@@YAPEAPEAUHWND__@@PEAPEAU1@@Z 0000000140002c50 f i TaskbarWindow.obj
 0001:00001c50       ??$_Unfancy@PEAUTaskbarInstance@@@std@@YAPEAPEAUTaskbarInstance@@PEAPEAU1@@Z 0000000140002c50 f i TaskbarWindow.obj
 0001:00001c50       ??$_Unfancy@PEAU_PSP@@@std@@YAPEAPEAU_PSP@@PEAPEAU1@@Z 0000000140002c50 f i TaskbarProperties.obj
 0001:00001c50       ??$_Unfancy@UEliteTrayIcon@@@std@@YAPEAUEliteTrayIcon@@PEAU1@@Z 0000000140002c50 f i TaskbarWindow.obj
 0001:00001c50       ??$_Unfancy@UMonitorInfo@@@std@@YAPEAUMonitorInfo@@PEAU1@@Z 0000000140002c50 f i TaskbarProperties.obj
 0001:00001c50       ??$_Unfancy@USavedPos@@@std@@YAPEAUSavedPos@@PEAU1@@Z 0000000140002c50 f i DesktopWindow.obj
 0001:00001c50       ??$_Unfancy@UScrapedTrayIcon@@@std@@YAPEAUScrapedTrayIcon@@PEAU1@@Z 0000000140002c50 f i TaskbarWindow.obj
 0001:00001c50       ??$_Unfancy@U_Container_proxy@std@@@std@@YAPEAU_Container_proxy@0@PEAU10@@Z 0000000140002c50 f i main.obj
 0001:00001c50       ??$_Unfancy@UtagRECT@@@std@@YAPEAUtagRECT@@PEAU1@@Z 0000000140002c50 f i TaskbarWindow.obj
 0001:00001c50       ??$_Unfancy@V?$basic_string@_WU?$char_traits@_W@std@@V?$allocator@_W@2@@std@@@std@@YAPEAV?$basic_string@_WU?$char_traits@_W@std@@V?$allocator@_W@2@@0@PEAV10@@Z 0000000140002c50 f i StartButton.obj
 0001:00001c50       ??$_Unfancy@_W@std@@YAPEA_WPEA_W@Z 0000000140002c50 f i main.obj
 0001:00001c50       ??$_Unfancy_maybe_null@I@std@@YAPEAIPEAI@Z 0000000140002c50 f i TaskbarWindow.obj
 0001:00001c50       ??$_Unfancy_maybe_null@PEAUHWND__@@@std@@YAPEAPEAUHWND__@@PEAPEAU1@@Z 0000000140002c50 f i TaskbarWindow.obj
 0001:00001c50       ??$_Unfancy_maybe_null@PEAUTaskbarInstance@@@std@@YAPEAPEAUTaskbarInstance@@PEAPEAU1@@Z 0000000140002c50 f i TaskbarWindow.obj
 0001:00001c50       ??$_Unfancy_maybe_null@PEAU_PSP@@@std@@YAPEAPEAU_PSP@@PEAPEAU1@@Z 0000000140002c50 f i TaskbarProperties.obj
 0001:00001c50       ??$_Unfancy_maybe_null@UEliteTrayIcon@@@std@@YAPEAUEliteTrayIcon@@PEAU1@@Z 0000000140002c50 f i TaskbarWindow.obj
 0001:00001c50       ??$_Unfancy_maybe_null@UMonitorInfo@@@std@@YAPEAUMonitorInfo@@PEAU1@@Z 0000000140002c50 f i TaskbarProperties.obj
 0001:00001c50       ??$_Unfancy_maybe_null@USavedPos@@@std@@YAPEAUSavedPos@@PEAU1@@Z 0000000140002c50 f i DesktopWindow.obj
 0001:00001c50       ??$_Unfancy_maybe_null@UScrapedTrayIcon@@@std@@YAPEAUScrapedTrayIcon@@PEAU1@@Z 0000000140002c50 f i TrayIconScraper.obj
 0001:00001c50       ??$_Unfancy_maybe_null@V?$basic_string@_WU?$char_traits@_W@std@@V?$allocator@_W@2@@std@@@std@@YAPEAV?$basic_string@_WU?$char_traits@_W@std@@V?$allocator@_W@2@@0@PEAV10@@Z 0000000140002c50 f i StartButton.obj
 0001:00001c50       ??$addressof@$$CBV?$_List_val@U?$_List_simple_types@UTaskButtonInfo@@@std@@@std@@@std@@YAPEBV?$_List_val@U?$_List_simple_types@UTaskButtonInfo@@@std@@@0@AEBV10@@Z 0000000140002c50 f i TaskbarWindow.obj
 0001:00001c50       ??$addressof@$$CBV?$_Tree_val@U?$_Tree_simple_types@U?$pair@$$CBU?$pair@PEAUHWND__@@I@std@@V?$basic_string@_WU?$char_traits@_W@std@@V?$allocator@_W@2@@2@@std@@@std@@@std@@@std@@YAPEBV?$_Tree_val@U?$_Tree_simple_types@U?$pair@$$CBU?$pair@PEAUHWND__@@I@std@@V?$basic_string@_WU?$char_traits@_W@std@@V?$allocator@_W@2@@2@@std@@@std@@@0@AEBV10@@Z 0000000140002c50 f i TrayIconScraper.obj
 0001:00001c50       ??$addressof@$$CBV?$basic_string@_WU?$char_traits@_W@std@@V?$allocator@_W@2@@std@@@std@@YAPEBV?$basic_string@_WU?$char_traits@_W@std@@V?$allocator@_W@2@@0@AEBV10@@Z 0000000140002c50 f i TrayIconScraper.obj
 0001:00001c50       ??$addressof@$$CBV?$codecvt@_WDU_Mbstatet@@@std@@@std@@YAPEBV?$codecvt@_WDU_Mbstatet@@@0@AEBV10@@Z 0000000140002c50 f i Logger.obj
 0001:00001c50       ??$addressof@$$CBV?$vector@UScrapedTrayIcon@@V?$allocator@UScrapedTrayIcon@@@std@@@std@@@std@@YAPEBV?$vector@UScrapedTrayIcon@@V?$allocator@UScrapedTrayIcon@@@std@@@0@AEBV10@@Z 0000000140002c50 f i TrayIconScraper.obj
 0001:00001c50       ??$addressof@PEAD@std@@YAPEAPEADAEAPEAD@Z 0000000140002c50 f i Logger.obj
 0001:00001c50       ??$addressof@PEAU?$_List_node@UTaskButtonInfo@@PEAX@std@@@std@@YAPEAPEAU?$_List_node@UTaskButtonInfo@@PEAX@0@AEAPEAU10@@Z 0000000140002c50 f i TaskbarWindow.obj
 0001:00001c50       ??$addressof@PEAU?$_Tree_node@U?$pair@$$CBU?$pair@PEAUHWND__@@I@std@@V?$basic_string@_WU?$char_traits@_W@std@@V?$allocator@_W@2@@2@@std@@PEAX@std@@@std@@YAPEAPEAU?$_Tree_node@U?$pair@$$CBU?$pair@PEAUHWND__@@I@std@@V?$basic_string@_WU?$char_traits@_W@std@@V?$allocator@_W@2@@2@@std@@PEAX@0@AEAPEAU10@@Z 0000000140002c50 f i TrayIconScraper.obj
 0001:00001c50       ??$addressof@PEAUHMONITOR__@@@std@@YAPEAPEAUHMONITOR__@@AEAPEAU1@@Z 0000000140002c50 f i TaskbarWindow.obj
 0001:00001c50       ??$addressof@PEAUHWND__@@@std@@YAPEAPEAUHWND__@@AEAPEAU1@@Z 0000000140002c50 f i TaskbarWindow.obj
 0001:00001c50       ??$addressof@PEAUTaskbarInstance@@@std@@YAPEAPEAUTaskbarInstance@@AEAPEAU1@@Z 0000000140002c50 f i TaskbarWindow.obj
 0001:00001c50       ??$addressof@PEAU_PSP@@@std@@YAPEAPEAU_PSP@@AEAPEAU1@@Z 0000000140002c50 f i TaskbarProperties.obj
 0001:00001c50       ??$addressof@PEA_W@std@@YAPEAPEA_WAEAPEA_W@Z 0000000140002c50 f i main.obj
 0001:00001c50       ??$addressof@U?$pair@$$CBU?$pair@PEAUHWND__@@I@std@@V?$basic_string@_WU?$char_traits@_W@std@@V?$allocator@_W@2@@2@@std@@@std@@YAPEAU?$pair@$$CBU?$pair@PEAUHWND__@@I@std@@V?$basic_string@_WU?$char_traits@_W@std@@V?$allocator@_W@2@@2@@0@AEAU10@@Z 0000000140002c50 f i TrayIconScraper.obj
 0001:00001c50       ??$addressof@UEliteTrayIcon@@@std@@YAPEAUEliteTrayIcon@@AEAU1@@Z 0000000140002c50 f i TaskbarWindow.obj
 0001:00001c50       ??$addressof@UMonitorInfo@@@std@@YAPEAUMonitorInfo@@AEAU1@@Z 0000000140002c50 f i TaskbarProperties.obj
 0001:00001c50       ??$addressof@UScrapedTrayIcon@@@std@@YAPEAUScrapedTrayIcon@@AEAU1@@Z 0000000140002c50 f i TaskbarWindow.obj
 0001:00001c50       ??$addressof@UTaskButtonInfo@@@std@@YAPEAUTaskButtonInfo@@AEAU1@@Z 0000000140002c50 f i TaskbarWindow.obj
 0001:00001c50       ??$addressof@U_Container_base12@std@@@std@@YAPEAU_Container_base12@0@AEAU10@@Z 0000000140002c50 f i main.obj
 0001:00001c50       ??$addressof@U_Container_proxy@std@@@std@@YAPEAU_Container_proxy@0@AEAU10@@Z 0000000140002c50 f i main.obj
 0001:00001c50       ??$addressof@UtagRECT@@@std@@YAPEAUtagRECT@@AEAU1@@Z 0000000140002c50 f i TaskbarWindow.obj
 0001:00001c50       ??$addressof@V?$_List_val@U?$_List_simple_types@UTaskButtonInfo@@@std@@@std@@@std@@YAPEAV?$_List_val@U?$_List_simple_types@UTaskButtonInfo@@@std@@@0@AEAV10@@Z 0000000140002c50 f i TaskbarWindow.obj
 0001:00001c50       ??$addressof@V?$_String_val@U?$_Simple_types@D@std@@@std@@@std@@YAPEAV?$_String_val@U?$_Simple_types@D@std@@@0@AEAV10@@Z 0000000140002c50 f i Logger.obj
 0001:00001c50       ??$addressof@V?$_String_val@U?$_Simple_types@_W@std@@@std@@@std@@YAPEAV?$_String_val@U?$_Simple_types@_W@std@@@0@AEAV10@@Z 0000000140002c50 f i Logger.obj
 0001:00001c50       ??$addressof@V?$_Tree_val@U?$_Tree_simple_types@U?$pair@$$CBU?$pair@PEAUHWND__@@I@std@@V?$basic_string@_WU?$char_traits@_W@std@@V?$allocator@_W@2@@2@@std@@@std@@@std@@@std@@YAPEAV?$_Tree_val@U?$_Tree_simple_types@U?$pair@$$CBU?$pair@PEAUHWND__@@I@std@@V?$basic_string@_WU?$char_traits@_W@std@@V?$allocator@_W@2@@2@@std@@@std@@@0@AEAV10@@Z 0000000140002c50 f i TrayIconScraper.obj
 0001:00001c50       ??$addressof@V?$_Vector_val@U?$_Simple_types@PEAUTaskbarInstance@@@std@@@std@@@std@@YAPEAV?$_Vector_val@U?$_Simple_types@PEAUTaskbarInstance@@@std@@@0@AEAV10@@Z 0000000140002c50 f i TaskbarWindow.obj
 0001:00001c50       ??$addressof@V?$_Vector_val@U?$_Simple_types@UEliteTrayIcon@@@std@@@std@@@std@@YAPEAV?$_Vector_val@U?$_Simple_types@UEliteTrayIcon@@@std@@@0@AEAV10@@Z 0000000140002c50 f i TaskbarWindow.obj
 0001:00001c50       ??$addressof@V?$_Vector_val@U?$_Simple_types@V?$basic_string@_WU?$char_traits@_W@std@@V?$allocator@_W@2@@std@@@std@@@std@@@std@@YAPEAV?$_Vector_val@U?$_Simple_types@V?$basic_string@_WU?$char_traits@_W@std@@V?$allocator@_W@2@@std@@@std@@@0@AEAV10@@Z 0000000140002c50 f i DesktopWindow.obj
 0001:00001c50       ??$addressof@V?$basic_filebuf@_WU?$char_traits@_W@std@@@std@@@std@@YAPEAV?$basic_filebuf@_WU?$char_traits@_W@std@@@0@AEAV10@@Z 0000000140002c50 f i Logger.obj
 0001:00001c50       ??$addressof@V?$basic_ostream@_WU?$char_traits@_W@std@@@std@@@std@@YAPEAV?$basic_ostream@_WU?$char_traits@_W@std@@@0@AEAV10@@Z 0000000140002c50 f i Logger.obj
 0001:00001c50       ??$addressof@V?$basic_string@_WU?$char_traits@_W@std@@V?$allocator@_W@2@@std@@@std@@YAPEAV?$basic_string@_WU?$char_traits@_W@std@@V?$allocator@_W@2@@0@AEAV10@@Z 0000000140002c50 f i Logger.obj
 0001:00001c50       ??$addressof@V?$basic_stringbuf@_WU?$char_traits@_W@std@@V?$allocator@_W@2@@std@@@std@@YAPEAV?$basic_stringbuf@_WU?$char_traits@_W@std@@V?$allocator@_W@2@@0@AEAV10@@Z 0000000140002c50 f i Logger.obj
 0001:00001c50       ??$addressof@_W@std@@YAPEA_WAEA_W@Z 0000000140002c50 f i Logger.obj
 0001:00001c50       ??$forward@AEAI@std@@YAAEAIAEAI@Z 0000000140002c50 f i TrayIconScraper.obj
 0001:00001c50       ??$forward@AEAPEAD@std@@YAAEAPEADAEAPEAD@Z 0000000140002c50 f i Logger.obj
 0001:00001c50       ??$forward@AEAPEAU?$_List_node@UTaskButtonInfo@@PEAX@std@@@std@@YAAEAPEAU?$_List_node@UTaskButtonInfo@@PEAX@0@AEAPEAU10@@Z 0000000140002c50 f i TaskbarWindow.obj
 0001:00001c50       ??$forward@AEAPEAU?$_Tree_node@U?$pair@$$CBU?$pair@PEAUHWND__@@I@std@@V?$basic_string@_WU?$char_traits@_W@std@@V?$allocator@_W@2@@2@@std@@PEAX@std@@@std@@YAAEAPEAU?$_Tree_node@U?$pair@$$CBU?$pair@PEAUHWND__@@I@std@@V?$basic_string@_WU?$char_traits@_W@std@@V?$allocator@_W@2@@2@@std@@PEAX@0@AEAPEAU10@@Z 0000000140002c50 f i TrayIconScraper.obj
 0001:00001c50       ??$forward@AEAPEAUHWND__@@@std@@YAAEAPEAUHWND__@@AEAPEAU1@@Z 0000000140002c50 f i TrayIconScraper.obj
 0001:00001c50       ??$forward@AEAPEAV?$basic_string@_WU?$char_traits@_W@std@@V?$allocator@_W@2@@std@@@std@@YAAEAPEAV?$basic_string@_WU?$char_traits@_W@std@@V?$allocator@_W@2@@0@AEAPEAV10@@Z 0000000140002c50 f i DesktopWindow.obj
 0001:00001c50       ??$forward@AEAPEAV_Facet_base@std@@@std@@YAAEAPEAV_Facet_base@0@AEAPEAV10@@Z 0000000140002c50 f i Logger.obj
 0001:00001c50       ??$forward@AEAPEA_W@std@@YAAEAPEA_WAEAPEA_W@Z 0000000140002c50 f i Logger.obj
 0001:00001c50       ??$forward@AEAUScrapedTrayIcon@@@std@@YAAEAUScrapedTrayIcon@@AEAU1@@Z 0000000140002c50 f i TrayIconScraper.obj
 0001:00001c50       ??$forward@AEBI@std@@YAAEBIAEBI@Z 0000000140002c50 f i TaskbarWindow.obj
 0001:00001c50       ??$forward@AEBQEAD@std@@YAAEBQEADAEBQEAD@Z 0000000140002c50 f i Logger.obj
 0001:00001c50       ??$forward@AEBQEAU?$_List_node@UTaskButtonInfo@@PEAX@std@@@std@@YAAEBQEAU?$_List_node@UTaskButtonInfo@@PEAX@0@AEBQEAU10@@Z 0000000140002c50 f i TaskbarWindow.obj
 0001:00001c50       ??$forward@AEBQEAU?$_Tree_node@U?$pair@$$CBU?$pair@PEAUHWND__@@I@std@@V?$basic_string@_WU?$char_traits@_W@std@@V?$allocator@_W@2@@2@@std@@PEAX@std@@@std@@YAAEBQEAU?$_Tree_node@U?$pair@$$CBU?$pair@PEAUHWND__@@I@std@@V?$basic_string@_WU?$char_traits@_W@std@@V?$allocator@_W@2@@2@@std@@PEAX@0@AEBQEAU10@@Z 0000000140002c50 f i TrayIconScraper.obj
 0001:00001c50       ??$forward@AEBQEAUHMONITOR__@@@std@@YAAEBQEAUHMONITOR__@@AEBQEAU1@@Z 0000000140002c50 f i TaskbarWindow.obj
 0001:00001c50       ??$forward@AEBQEAUHWND__@@@std@@YAAEBQEAUHWND__@@AEBQEAU1@@Z 0000000140002c50 f i TaskbarWindow.obj
 0001:00001c50       ??$forward@AEBQEAUTaskbarInstance@@@std@@YAAEBQEAUTaskbarInstance@@AEBQEAU1@@Z 0000000140002c50 f i TaskbarWindow.obj
 0001:00001c50       ??$forward@AEBQEAU_PSP@@@std@@YAAEBQEAU_PSP@@AEBQEAU1@@Z 0000000140002c50 f i TaskbarProperties.obj
 0001:00001c50       ??$forward@AEBQEA_W@std@@YAAEBQEA_WAEBQEA_W@Z 0000000140002c50 f i main.obj
 0001:00001c50       ??$forward@AEBU?$less@U?$pair@PEAUHWND__@@I@std@@@std@@@std@@YAAEBU?$less@U?$pair@PEAUHWND__@@I@std@@@0@AEBU10@@Z 0000000140002c50 f i TrayIconScraper.obj
 0001:00001c50       ??$forward@AEBUEliteTrayIcon@@@std@@YAAEBUEliteTrayIcon@@AEBU1@@Z 0000000140002c50 f i TaskbarWindow.obj
 0001:00001c50       ??$forward@AEBUMonitorInfo@@@std@@YAAEBUMonitorInfo@@AEBU1@@Z 0000000140002c50 f i TaskbarProperties.obj
 0001:00001c50       ??$forward@AEBUSavedPos@@@std@@YAAEBUSavedPos@@AEBU1@@Z 0000000140002c50 f i DesktopWindow.obj
 0001:00001c50       ??$forward@AEBUScrapedTrayIcon@@@std@@YAAEBUScrapedTrayIcon@@AEBU1@@Z 0000000140002c50 f i TaskbarWindow.obj
 0001:00001c50       ??$forward@AEBUTaskButtonInfo@@@std@@YAAEBUTaskButtonInfo@@AEBU1@@Z 0000000140002c50 f i TaskbarWindow.obj
 0001:00001c50       ??$forward@AEBUpiecewise_construct_t@std@@@std@@YAAEBUpiecewise_construct_t@0@AEBU10@@Z 0000000140002c50 f i TrayIconScraper.obj
 0001:00001c50       ??$forward@AEBUtagRECT@@@std@@YAAEBUtagRECT@@AEBU1@@Z 0000000140002c50 f i TaskbarWindow.obj
 0001:00001c50       ??$forward@AEBV?$allocator@I@std@@@std@@YAAEBV?$allocator@I@0@AEBV10@@Z 0000000140002c50 f i TaskbarWindow.obj
 0001:00001c50       ??$forward@AEBV?$allocator@_W@std@@@std@@YAAEBV?$allocator@_W@0@AEBV10@@Z 0000000140002c50 f i Logger.obj
 0001:00001c50       ??$forward@AEBV?$basic_string@_WU?$char_traits@_W@std@@V?$allocator@_W@2@@std@@@std@@YAAEBV?$basic_string@_WU?$char_traits@_W@std@@V?$allocator@_W@2@@0@AEBV10@@Z 0000000140002c50 f i TaskbarProperties.obj
 0001:00001c50       ??$forward@AEB_W@std@@YAAEB_WAEB_W@Z 0000000140002c50 f i TrayIconScraper.obj
 0001:00001c50       ??$forward@I@std@@YA$$QEAIAEAI@Z 0000000140002c50 f i TaskbarWindow.obj
 0001:00001c50       ??$forward@PEAU?$_Tree_node@U?$pair@$$CBU?$pair@PEAUHWND__@@I@std@@V?$basic_string@_WU?$char_traits@_W@std@@V?$allocator@_W@2@@2@@std@@PEAX@std@@@std@@YA$$QEAPEAU?$_Tree_node@U?$pair@$$CBU?$pair@PEAUHWND__@@I@std@@V?$basic_string@_WU?$char_traits@_W@std@@V?$allocator@_W@2@@2@@std@@PEAX@0@AEAPEAU10@@Z 0000000140002c50 f i TrayIconScraper.obj
 0001:00001c50       ??$forward@PEAUHMONITOR__@@@std@@YA$$QEAPEAUHMONITOR__@@AEAPEAU1@@Z 0000000140002c50 f i TaskbarWindow.obj
 0001:00001c50       ??$forward@PEAUHWND__@@@std@@YA$$QEAPEAUHWND__@@AEAPEAU1@@Z 0000000140002c50 f i TaskbarWindow.obj
 0001:00001c50       ??$forward@PEAUScrapedTrayIcon@@@std@@YA$$QEAPEAUScrapedTrayIcon@@AEAPEAU1@@Z 0000000140002c50 f i TrayIconScraper.obj
 0001:00001c50       ??$forward@PEAUTaskbarInstance@@@std@@YA$$QEAPEAUTaskbarInstance@@AEAPEAU1@@Z 0000000140002c50 f i TaskbarWindow.obj
 0001:00001c50       ??$forward@PEAU_Container_base12@std@@@std@@YA$$QEAPEAU_Container_base12@0@AEAPEAU10@@Z 0000000140002c50 f i main.obj
 0001:00001c50       ??$forward@PEAU_PSP@@@std@@YA$$QEAPEAU_PSP@@AEAPEAU1@@Z 0000000140002c50 f i TaskbarProperties.obj
 0001:00001c50       ??$forward@U?$pair@PEAUHWND__@@I@std@@@std@@YA$$QEAU?$pair@PEAUHWND__@@I@0@AEAU10@@Z 0000000140002c50 f i TrayIconScraper.obj
 0001:00001c50       ??$forward@UEliteTrayIcon@@@std@@YA$$QEAUEliteTrayIcon@@AEAU1@@Z 0000000140002c50 f i TaskbarWindow.obj
 0001:00001c50       ??$forward@UMonitorInfo@@@std@@YA$$QEAUMonitorInfo@@AEAU1@@Z 0000000140002c50 f i TaskbarProperties.obj
 0001:00001c50       ??$forward@USavedPos@@@std@@YA$$QEAUSavedPos@@AEAU1@@Z 0000000140002c50 f i DesktopWindow.obj
 0001:00001c50       ??$forward@UScrapedTrayIcon@@@std@@YA$$QEAUScrapedTrayIcon@@AEAU1@@Z 0000000140002c50 f i TaskbarWindow.obj
 0001:00001c50       ??$forward@U_Zero_then_variadic_args_t@std@@@std@@YA$$QEAU_Zero_then_variadic_args_t@0@AEAU10@@Z 0000000140002c50 f i TrayIconScraper.obj
 0001:00001c50       ??$forward@UtagRECT@@@std@@YA$$QEAUtagRECT@@AEAU1@@Z 0000000140002c50 f i TaskbarWindow.obj
 0001:00001c50       ??$forward@V?$_Vb_iterator@U?$_Wrap_alloc@V?$allocator@I@std@@@std@@@std@@@std@@YA$$QEAV?$_Vb_iterator@U?$_Wrap_alloc@V?$allocator@I@std@@@std@@@0@AEAV10@@Z 0000000140002c50 f i TaskbarWindow.obj
 0001:00001c50       ??$forward@V?$allocator@D@std@@@std@@YA$$QEAV?$allocator@D@0@AEAV10@@Z 0000000140002c50 f i Logger.obj
 0001:00001c50       ??$forward@V?$allocator@UScrapedTrayIcon@@@std@@@std@@YA$$QEAV?$allocator@UScrapedTrayIcon@@@0@AEAV10@@Z 0000000140002c50 f i TrayIconScraper.obj
 0001:00001c50       ??$forward@V?$allocator@_W@std@@@std@@YA$$QEAV?$allocator@_W@0@AEAV10@@Z 0000000140002c50 f i Logger.obj
 0001:00001c50       ??$forward@V?$basic_string@_WU?$char_traits@_W@std@@V?$allocator@_W@2@@std@@@std@@YA$$QEAV?$basic_string@_WU?$char_traits@_W@std@@V?$allocator@_W@2@@0@AEAV10@@Z 0000000140002c50 f i StartButton.obj
 0001:00001c50       ??$forward@V?$tuple@$$QEAU?$pair@PEAUHWND__@@I@std@@@std@@@std@@YA$$QEAV?$tuple@$$QEAU?$pair@PEAUHWND__@@I@std@@@0@AEAV10@@Z 0000000140002c50 f i TrayIconScraper.obj
 0001:00001c50       ??$forward@V?$tuple@$$V@std@@@std@@YA$$QEAV?$tuple@$$V@0@AEAV10@@Z 0000000140002c50 f i TrayIconScraper.obj
 0001:00001c50       ??$forward@_N@std@@YA$$QEA_NAEA_N@Z 0000000140002c50 f i TrayIconScraper.obj
 0001:00001c50       ??$forward_as_tuple@$$V@std@@YA?AV?$tuple@$$V@0@XZ 0000000140002c50 f i TrayIconScraper.obj
 0001:00001c50       ??$move@AEAI@std@@YA$$QEAIAEAI@Z 0000000140002c50 f i TaskbarWindow.obj
 0001:00001c50       ??$move@AEAPEAI@std@@YA$$QEAPEAIAEAPEAI@Z 0000000140002c50 f i TaskbarWindow.obj
 0001:00001c50       ??$move@AEAPEAPEAUHMONITOR__@@@std@@YA$$QEAPEAPEAUHMONITOR__@@AEAPEAPEAU1@@Z 0000000140002c50 f i TaskbarWindow.obj
 0001:00001c50       ??$move@AEAPEAPEAUHWND__@@@std@@YA$$QEAPEAPEAUHWND__@@AEAPEAPEAU1@@Z 0000000140002c50 f i TaskbarWindow.obj
 0001:00001c50       ??$move@AEAPEAPEAUTaskbarInstance@@@std@@YA$$QEAPEAPEAUTaskbarInstance@@AEAPEAPEAU1@@Z 0000000140002c50 f i TaskbarWindow.obj
 0001:00001c50       ??$move@AEAPEAPEAU_PSP@@@std@@YA$$QEAPEAPEAU_PSP@@AEAPEAPEAU1@@Z 0000000140002c50 f i TaskbarProperties.obj
 0001:00001c50       ??$move@AEAPEAUEliteTrayIcon@@@std@@YA$$QEAPEAUEliteTrayIcon@@AEAPEAU1@@Z 0000000140002c50 f i TaskbarWindow.obj
 0001:00001c50       ??$move@AEAPEAUHMONITOR__@@@std@@YA$$QEAPEAUHMONITOR__@@AEAPEAU1@@Z 0000000140002c50 f i TaskbarWindow.obj
 0001:00001c50       ??$move@AEAPEAUHWND__@@@std@@YA$$QEAPEAUHWND__@@AEAPEAU1@@Z 0000000140002c50 f i TaskbarWindow.obj
 0001:00001c50       ??$move@AEAPEAUMonitorInfo@@@std@@YA$$QEAPEAUMonitorInfo@@AEAPEAU1@@Z 0000000140002c50 f i TaskbarProperties.obj
 0001:00001c50       ??$move@AEAPEAUScrapedTrayIcon@@@std@@YA$$QEAPEAUScrapedTrayIcon@@AEAPEAU1@@Z 0000000140002c50 f i TaskbarWindow.obj
 0001:00001c50       ??$move@AEAPEAUTaskbarInstance@@@std@@YA$$QEAPEAUTaskbarInstance@@AEAPEAU1@@Z 0000000140002c50 f i TaskbarWindow.obj
 0001:00001c50       ??$move@AEAPEAU_PSP@@@std@@YA$$QEAPEAU_PSP@@AEAPEAU1@@Z 0000000140002c50 f i TaskbarProperties.obj
 0001:00001c50       ??$move@AEAPEAUtagRECT@@@std@@YA$$QEAPEAUtagRECT@@AEAPEAU1@@Z 0000000140002c50 f i TaskbarWindow.obj
 0001:00001c50       ??$move@AEAPEA_W@std@@YA$$QEAPEA_WAEAPEA_W@Z 0000000140002c50 f i DesktopWindow.obj
 0001:00001c50       ??$move@AEAU?$pair@PEAUHWND__@@I@std@@@std@@YA$$QEAU?$pair@PEAUHWND__@@I@0@AEAU10@@Z 0000000140002c50 f i TrayIconScraper.obj
 0001:00001c50       ??$move@AEAUEliteTrayIcon@@@std@@YA$$QEAUEliteTrayIcon@@AEAU1@@Z 0000000140002c50 f i TaskbarWindow.obj
 0001:00001c50       ??$move@AEAUMonitorInfo@@@std@@YA$$QEAUMonitorInfo@@AEAU1@@Z 0000000140002c50 f i TaskbarProperties.obj
 0001:00001c50       ??$move@AEAUSavedPos@@@std@@YA$$QEAUSavedPos@@AEAU1@@Z 0000000140002c50 f i DesktopWindow.obj
 0001:00001c50       ??$move@AEAUScrapedTrayIcon@@@std@@YA$$QEAUScrapedTrayIcon@@AEAU1@@Z 0000000140002c50 f i TaskbarWindow.obj
 0001:00001c50       ??$move@AEAUtagRECT@@@std@@YA$$QEAUtagRECT@@AEAU1@@Z 0000000140002c50 f i TaskbarWindow.obj
 0001:00001c50       ??$move@AEAV?$allocator@D@std@@@std@@YA$$QEAV?$allocator@D@0@AEAV10@@Z 0000000140002c50 f i Logger.obj
 0001:00001c50       ??$move@AEAV?$allocator@UScrapedTrayIcon@@@std@@@std@@YA$$QEAV?$allocator@UScrapedTrayIcon@@@0@AEAV10@@Z 0000000140002c50 f i TrayIconScraper.obj
 0001:00001c50       ??$move@AEAV?$allocator@_W@std@@@std@@YA$$QEAV?$allocator@_W@0@AEAV10@@Z 0000000140002c50 f i Logger.obj
 0001:00001c50       ??$move@AEAV?$basic_string@_WU?$char_traits@_W@std@@V?$allocator@_W@2@@std@@@std@@YA$$QEAV?$basic_string@_WU?$char_traits@_W@std@@V?$allocator@_W@2@@0@AEAV10@@Z 0000000140002c50 f i Logger.obj
 0001:00001c50       ??$move@AEAV?$tuple@$$QEAU?$pair@PEAUHWND__@@I@std@@@std@@@std@@YA$$QEAV?$tuple@$$QEAU?$pair@PEAUHWND__@@I@std@@@0@AEAV10@@Z 0000000140002c50 f i TrayIconScraper.obj
 0001:00001c50       ??$move@AEA_K@std@@YA$$QEA_KAEA_K@Z 0000000140002c50 f i DesktopWindow.obj
 0001:00001c50       ??0?$allocator@D@std@@QEAA@XZ 0000000140002c50 f i Logger.obj
 0001:00001c50       ??0?$allocator@PEAUHMONITOR__@@@std@@QEAA@XZ 0000000140002c50 f i main.obj
 0001:00001c50       ??0?$allocator@PEAUHWND__@@@std@@QEAA@XZ 0000000140002c50 f i TaskbarWindow.obj
 0001:00001c50       ??0?$allocator@PEAUTaskbarInstance@@@std@@QEAA@XZ 0000000140002c50 f i TaskbarWindow.obj
 0001:00001c50       ??0?$allocator@PEAU_PSP@@@std@@QEAA@XZ 0000000140002c50 f i TaskbarProperties.obj
 0001:00001c50       ??0?$allocator@U?$_List_node@UTaskButtonInfo@@PEAX@std@@@std@@QEAA@XZ 0000000140002c50 f i TaskbarWindow.obj
 0001:00001c50       ??0?$allocator@U?$_Tree_node@U?$pair@$$CBU?$pair@PEAUHWND__@@I@std@@V?$basic_string@_WU?$char_traits@_W@std@@V?$allocator@_W@2@@2@@std@@PEAX@std@@@std@@QEAA@XZ 0000000140002c50 f i TrayIconScraper.obj
 0001:00001c50       ??0?$allocator@UEliteTrayIcon@@@std@@QEAA@XZ 0000000140002c50 f i TaskbarWindow.obj
 0001:00001c50       ??0?$allocator@UMonitorInfo@@@std@@QEAA@XZ 0000000140002c50 f i TaskbarProperties.obj
 0001:00001c50       ??0?$allocator@USavedPos@@@std@@QEAA@XZ 0000000140002c50 f i DesktopWindow.obj
 0001:00001c50       ??0?$allocator@UScrapedTrayIcon@@@std@@QEAA@XZ 0000000140002c50 f i TaskbarWindow.obj
 0001:00001c50       ??0?$allocator@UtagRECT@@@std@@QEAA@XZ 0000000140002c50 f i TaskbarWindow.obj
 0001:00001c50       ??0?$allocator@V?$basic_string@_WU?$char_traits@_W@std@@V?$allocator@_W@2@@std@@@std@@QEAA@XZ 0000000140002c50 f i StartButton.obj
 0001:00001c50       ??0?$allocator@_N@std@@QEAA@XZ 0000000140002c50 f i TaskbarWindow.obj
 0001:00001c50       ??0?$allocator@_W@std@@QEAA@XZ 0000000140002c50 f i main.obj
 0001:00001c50       ??0IUnknown@@QEAA@XZ       0000000140002c50 f i DesktopWindow.obj
 0001:00001c50       ??D?$ostreambuf_iterator@_WU?$char_traits@_W@std@@@std@@QEAAAEAV01@XZ 0000000140002c50 f i Logger.obj
 0001:00001c50       ??E?$ostreambuf_iterator@_WU?$char_traits@_W@std@@@std@@QEAAAEAV01@XZ 0000000140002c50 f i Logger.obj
 0001:00001c50       ?_Get_first@?$_Compressed_pair@U?$default_delete@V_Facet_base@std@@@std@@PEAV_Facet_base@2@$00@std@@QEAAAEAU?$default_delete@V_Facet_base@std@@@2@XZ 0000000140002c50 f i Logger.obj
 0001:00001c50       ?_Get_first@?$_Compressed_pair@U?$less@U?$pair@PEAUHWND__@@I@std@@@std@@V?$_Compressed_pair@V?$allocator@U?$_Tree_node@U?$pair@$$CBU?$pair@PEAUHWND__@@I@std@@V?$basic_string@_WU?$char_traits@_W@std@@V?$allocator@_W@2@@2@@std@@PEAX@std@@@std@@V?$_Tree_val@U?$_Tree_simple_types@U?$pair@$$CBU?$pair@PEAUHWND__@@I@std@@V?$basic_string@_WU?$char_traits@_W@std@@V?$allocator@_W@2@@2@@std@@@std@@@2@$00@2@$00@std@@QEBAAEBU?$less@U?$pair@PEAUHWND__@@I@std@@@2@XZ 0000000140002c50 f i TrayIconScraper.obj
 0001:00001c50       ?_Get_first@?$_Compressed_pair@V?$allocator@D@std@@V?$_String_val@U?$_Simple_types@D@std@@@2@$00@std@@QEAAAEAV?$allocator@D@2@XZ 0000000140002c50 f i Logger.obj
 0001:00001c50       ?_Get_first@?$_Compressed_pair@V?$allocator@D@std@@V?$_String_val@U?$_Simple_types@D@std@@@2@$00@std@@QEBAAEBV?$allocator@D@2@XZ 0000000140002c50 f i Logger.obj
 0001:00001c50       ?_Get_first@?$_Compressed_pair@V?$allocator@I@std@@V?$_Vector_val@U?$_Simple_types@I@std@@@2@$00@std@@QEAAAEAV?$allocator@I@2@XZ 0000000140002c50 f i TaskbarWindow.obj
 0001:00001c50       ?_Get_first@?$_Compressed_pair@V?$allocator@I@std@@V?$_Vector_val@U?$_Simple_types@I@std@@@2@$00@std@@QEBAAEBV?$allocator@I@2@XZ 0000000140002c50 f i TaskbarWindow.obj
 0001:00001c50       ?_Get_first@?$_Compressed_pair@V?$allocator@PEAUHMONITOR__@@@std@@V?$_Vector_val@U?$_Simple_types@PEAUHMONITOR__@@@std@@@2@$00@std@@QEAAAEAV?$allocator@PEAUHMONITOR__@@@2@XZ 0000000140002c50 f i main.obj
 0001:00001c50       ?_Get_first@?$_Compressed_pair@V?$allocator@PEAUHMONITOR__@@@std@@V?$_Vector_val@U?$_Simple_types@PEAUHMONITOR__@@@std@@@2@$00@std@@QEBAAEBV?$allocator@PEAUHMONITOR__@@@2@XZ 0000000140002c50 f i TaskbarWindow.obj
 0001:00001c50       ?_Get_first@?$_Compressed_pair@V?$allocator@PEAUHWND__@@@std@@V?$_Vector_val@U?$_Simple_types@PEAUHWND__@@@std@@@2@$00@std@@QEAAAEAV?$allocator@PEAUHWND__@@@2@XZ 0000000140002c50 f i TaskbarWindow.obj
 0001:00001c50       ?_Get_first@?$_Compressed_pair@V?$allocator@PEAUHWND__@@@std@@V?$_Vector_val@U?$_Simple_types@PEAUHWND__@@@std@@@2@$00@std@@QEBAAEBV?$allocator@PEAUHWND__@@@2@XZ 0000000140002c50 f i TaskbarWindow.obj
 0001:00001c50       ?_Get_first@?$_Compressed_pair@V?$allocator@PEAUTaskbarInstance@@@std@@V?$_Vector_val@U?$_Simple_types@PEAUTaskbarInstance@@@std@@@2@$00@std@@QEAAAEAV?$allocator@PEAUTaskbarInstance@@@2@XZ 0000000140002c50 f i TaskbarWindow.obj
 0001:00001c50       ?_Get_first@?$_Compressed_pair@V?$allocator@PEAUTaskbarInstance@@@std@@V?$_Vector_val@U?$_Simple_types@PEAUTaskbarInstance@@@std@@@2@$00@std@@QEBAAEBV?$allocator@PEAUTaskbarInstance@@@2@XZ 0000000140002c50 f i TaskbarWindow.obj
 0001:00001c50       ?_Get_first@?$_Compressed_pair@V?$allocator@PEAU_PSP@@@std@@V?$_Vector_val@U?$_Simple_types@PEAU_PSP@@@std@@@2@$00@std@@QEAAAEAV?$allocator@PEAU_PSP@@@2@XZ 0000000140002c50 f i TaskbarProperties.obj
 0001:00001c50       ?_Get_first@?$_Compressed_pair@V?$allocator@PEAU_PSP@@@std@@V?$_Vector_val@U?$_Simple_types@PEAU_PSP@@@std@@@2@$00@std@@QEBAAEBV?$allocator@PEAU_PSP@@@2@XZ 0000000140002c50 f i TaskbarProperties.obj
 0001:00001c50       ?_Get_first@?$_Compressed_pair@V?$allocator@U?$_List_node@UTaskButtonInfo@@PEAX@std@@@std@@V?$_List_val@U?$_List_simple_types@UTaskButtonInfo@@@std@@@2@$00@std@@QEAAAEAV?$allocator@U?$_List_node@UTaskButtonInfo@@PEAX@std@@@2@XZ 0000000140002c50 f i TaskbarWindow.obj
 0001:00001c50       ?_Get_first@?$_Compressed_pair@V?$allocator@U?$_List_node@UTaskButtonInfo@@PEAX@std@@@std@@V?$_List_val@U?$_List_simple_types@UTaskButtonInfo@@@std@@@2@$00@std@@QEBAAEBV?$allocator@U?$_List_node@UTaskButtonInfo@@PEAX@std@@@2@XZ 0000000140002c50 f i TaskbarWindow.obj
 0001:00001c50       ?_Get_first@?$_Compressed_pair@V?$allocator@U?$_Tree_node@U?$pair@$$CBU?$pair@PEAUHWND__@@I@std@@V?$basic_string@_WU?$char_traits@_W@std@@V?$allocator@_W@2@@2@@std@@PEAX@std@@@std@@V?$_Tree_val@U?$_Tree_simple_types@U?$pair@$$CBU?$pair@PEAUHWND__@@I@std@@V?$basic_string@_WU?$char_traits@_W@std@@V?$allocator@_W@2@@2@@std@@@std@@@2@$00@std@@QEAAAEAV?$allocator@U?$_Tree_node@U?$pair@$$CBU?$pair@PEAUHWND__@@I@std@@V?$basic_string@_WU?$char_traits@_W@std@@V?$allocator@_W@2@@2@@std@@PEAX@std@@@2@XZ 0000000140002c50 f i TrayIconScraper.obj
 0001:00001c50       ?_Get_first@?$_Compressed_pair@V?$allocator@U?$_Tree_node@U?$pair@$$CBU?$pair@PEAUHWND__@@I@std@@V?$basic_string@_WU?$char_traits@_W@std@@V?$allocator@_W@2@@2@@std@@PEAX@std@@@std@@V?$_Tree_val@U?$_Tree_simple_types@U?$pair@$$CBU?$pair@PEAUHWND__@@I@std@@V?$basic_string@_WU?$char_traits@_W@std@@V?$allocator@_W@2@@2@@std@@@std@@@2@$00@std@@QEBAAEBV?$allocator@U?$_Tree_node@U?$pair@$$CBU?$pair@PEAUHWND__@@I@std@@V?$basic_string@_WU?$char_traits@_W@std@@V?$allocator@_W@2@@2@@std@@PEAX@std@@@2@XZ 0000000140002c50 f i TrayIconScraper.obj
 0001:00001c50       ?_Get_first@?$_Compressed_pair@V?$allocator@UEliteTrayIcon@@@std@@V?$_Vector_val@U?$_Simple_types@UEliteTrayIcon@@@std@@@2@$00@std@@QEAAAEAV?$allocator@UEliteTrayIcon@@@2@XZ 0000000140002c50 f i TaskbarWindow.obj
 0001:00001c50       ?_Get_first@?$_Compressed_pair@V?$allocator@UEliteTrayIcon@@@std@@V?$_Vector_val@U?$_Simple_types@UEliteTrayIcon@@@std@@@2@$00@std@@QEBAAEBV?$allocator@UEliteTrayIcon@@@2@XZ 0000000140002c50 f i TaskbarWindow.obj
 0001:00001c50       ?_Get_first@?$_Compressed_pair@V?$allocator@UMonitorInfo@@@std@@V?$_Vector_val@U?$_Simple_types@UMonitorInfo@@@std@@@2@$00@std@@QEAAAEAV?$allocator@UMonitorInfo@@@2@XZ 0000000140002c50 f i TaskbarProperties.obj
 0001:00001c50       ?_Get_first@?$_Compressed_pair@V?$allocator@UMonitorInfo@@@std@@V?$_Vector_val@U?$_Simple_types@UMonitorInfo@@@std@@@2@$00@std@@QEBAAEBV?$allocator@UMonitorInfo@@@2@XZ 0000000140002c50 f i TaskbarProperties.obj
 0001:00001c50       ?_Get_first@?$_Compressed_pair@V?$allocator@USavedPos@@@std@@V?$_Vector_val@U?$_Simple_types@USavedPos@@@std@@@2@$00@std@@QEAAAEAV?$allocator@USavedPos@@@2@XZ 0000000140002c50 f i DesktopWindow.obj
 0001:00001c50       ?_Get_first@?$_Compressed_pair@V?$allocator@USavedPos@@@std@@V?$_Vector_val@U?$_Simple_types@USavedPos@@@std@@@2@$00@std@@QEBAAEBV?$allocator@USavedPos@@@2@XZ 0000000140002c50 f i DesktopWindow.obj
 0001:00001c50       ?_Get_first@?$_Compressed_pair@V?$allocator@UScrapedTrayIcon@@@std@@V?$_Vector_val@U?$_Simple_types@UScrapedTrayIcon@@@std@@@2@$00@std@@QEAAAEAV?$allocator@UScrapedTrayIcon@@@2@XZ 0000000140002c50 f i TaskbarWindow.obj
 0001:00001c50       ?_Get_first@?$_Compressed_pair@V?$allocator@UScrapedTrayIcon@@@std@@V?$_Vector_val@U?$_Simple_types@UScrapedTrayIcon@@@std@@@2@$00@std@@QEBAAEBV?$allocator@UScrapedTrayIcon@@@2@XZ 0000000140002c50 f i TaskbarWindow.obj
 0001:00001c50       ?_Get_first@?$_Compressed_pair@V?$allocator@UtagRECT@@@std@@V?$_Vector_val@U?$_Simple_types@UtagRECT@@@std@@@2@$00@std@@QEAAAEAV?$allocator@UtagRECT@@@2@XZ 0000000140002c50 f i TaskbarWindow.obj
 0001:00001c50       ?_Get_first@?$_Compressed_pair@V?$allocator@UtagRECT@@@std@@V?$_Vector_val@U?$_Simple_types@UtagRECT@@@std@@@2@$00@std@@QEBAAEBV?$allocator@UtagRECT@@@2@XZ 0000000140002c50 f i TaskbarWindow.obj
 0001:00001c50       ?_Get_first@?$_Compressed_pair@V?$allocator@V?$basic_string@_WU?$char_traits@_W@std@@V?$allocator@_W@2@@std@@@std@@V?$_Vector_val@U?$_Simple_types@V?$basic_string@_WU?$char_traits@_W@std@@V?$allocator@_W@2@@std@@@std@@@2@$00@std@@QEAAAEAV?$allocator@V?$basic_string@_WU?$char_traits@_W@std@@V?$allocator@_W@2@@std@@@2@XZ 0000000140002c50 f i StartButton.obj
 0001:00001c50       ?_Get_first@?$_Compressed_pair@V?$allocator@V?$basic_string@_WU?$char_traits@_W@std@@V?$allocator@_W@2@@std@@@std@@V?$_Vector_val@U?$_Simple_types@V?$basic_string@_WU?$char_traits@_W@std@@V?$allocator@_W@2@@std@@@std@@@2@$00@std@@QEBAAEBV?$allocator@V?$basic_string@_WU?$char_traits@_W@std@@V?$allocator@_W@2@@std@@@2@XZ 0000000140002c50 f i StartButton.obj
 0001:00001c50       ?_Get_first@?$_Compressed_pair@V?$allocator@_W@std@@V?$_String_val@U?$_Simple_types@_W@std@@@2@$00@std@@QEAAAEAV?$allocator@_W@2@XZ 0000000140002c50 f i main.obj
 0001:00001c50       ?_Get_first@?$_Compressed_pair@V?$allocator@_W@std@@V?$_String_val@U?$_Simple_types@_W@std@@@2@$00@std@@QEBAAEBV?$allocator@_W@2@XZ 0000000140002c50 f i main.obj
 0001:00001c50       ?_Get_first@?$_Compressed_pair@V?$allocator@_W@std@@V?$_Vector_val@U?$_Simple_types@_W@std@@@2@$00@std@@QEAAAEAV?$allocator@_W@2@XZ 0000000140002c50 f i TrayIconScraper.obj
 0001:00001c50       ?_Get_first@?$_Compressed_pair@V?$allocator@_W@std@@V?$_Vector_val@U?$_Simple_types@_W@std@@@2@$00@std@@QEBAAEBV?$allocator@_W@2@XZ 0000000140002c50 f i TrayIconScraper.obj
 0001:00001c50       ?dangerous_get_state_array@?$dual_state_global@H@__crt_state_management@@QEAAPEAHXZ 0000000140002c50 f i libucrtd:txtmode.obj
 0001:00001c50       ?dangerous_get_state_array@?$dual_state_global@P6AXPEB_W00I_K@Z@__crt_state_management@@QEAAPEAP6AXPEB_W00I_K@ZXZ 0000000140002c50 f i libucrtd:invalid_parameter.obj
 0001:00001c50       ?dangerous_get_state_array@?$dual_state_global@PEAE@__crt_state_management@@QEAAPEAPEAEXZ 0000000140002c50 f i libucrtd:mbctype.obj
 0001:00001c50       ?dangerous_get_state_array@?$dual_state_global@PEAPEAD@__crt_state_management@@QEAAPEAPEAPEADXZ 0000000140002c50 f i libucrtd:timeset.obj
 0001:00001c50       ?dangerous_get_state_array@?$dual_state_global@PEAPEA_W@__crt_state_management@@QEAAPEAPEAPEA_WXZ 0000000140002c50 f i libucrtd:timeset.obj
 0001:00001c50       ?dangerous_get_state_array@?$dual_state_global@PEAU__crt_locale_data@@@__crt_state_management@@QEAAPEAPEAU__crt_locale_data@@XZ 0000000140002c50 f i libucrtd:per_thread_data.obj
 0001:00001c50       ?dangerous_get_state_array@?$dual_state_global@PEAU__crt_multibyte_data@@@__crt_state_management@@QEAAPEAPEAU__crt_multibyte_data@@XZ 0000000140002c50 f i libucrtd:mbctype.obj
 0001:00001c50       ?debug_info@?$__crt_win32_buffer@DU__crt_win32_buffer_internal_dynamic_resizing@@@@QEBAAEBV__crt_win32_buffer_empty_debug_info@@XZ 0000000140002c50 f i libucrtd:argv_wildcards.obj
 0001:00001c50       ?debug_info@?$__crt_win32_buffer@DU__crt_win32_buffer_no_resizing@@@@QEBAAEBV__crt_win32_buffer_empty_debug_info@@XZ 0000000140002c50 f i libucrtd:strftime.obj
 0001:00001c50       ?debug_info@?$__crt_win32_buffer@_WU__crt_win32_buffer_internal_dynamic_resizing@@@@QEBAAEBV__crt_win32_buffer_empty_debug_info@@XZ 0000000140002c50 f i libucrtd:strftime.obj
 0001:00001c50       ?get_address_of@?$__crt_unique_handle_t@U__crt_hmodule_traits@@@@QEAAPEAPEAUHINSTANCE__@@XZ 0000000140002c50 f i libucrtd:exit.obj
 0001:00001c50       ?get_address_of@?$__crt_unique_heap_ptr@EU__crt_internal_free_policy@@@@QEAAPEAPEAEXZ 0000000140002c50 f i libucrtd:spawnv.obj
 0001:00001c50       ?get_address_of@?$__crt_unique_heap_ptr@PEADU__crt_internal_free_policy@@@@QEAAPEAPEAPEADXZ 0000000140002c50 f i libucrtd:argv_parsing.obj
 0001:00001c50       ?get_address_of@?$__crt_unique_heap_ptr@_WU__crt_internal_free_policy@@@@QEAAPEAPEA_WXZ 0000000140002c50 f i libucrtd:system.obj
 0001:00001c60       ??$_Deallocate@$0BA@@std@@YAXPEAX_K@Z 0000000140002c60 f i main.obj
 0001:00001ca0       ??$_Deallocate_plain@V?$allocator@U_Container_proxy@std@@@std@@@std@@YAXAEAV?$allocator@U_Container_proxy@std@@@0@QEAU_Container_proxy@0@@Z 0000000140002ca0 f i main.obj
 0001:00001cd0       ??$_Delete_plain_internal@V?$allocator@U_Container_proxy@std@@@std@@@std@@YAXAEAV?$allocator@U_Container_proxy@std@@@0@QEAU_Container_proxy@0@@Z 0000000140002cd0 f i main.obj
 0001:00001d00       ??$_Destroy_in_place@PEAD@std@@YAXAEAPEAD@Z 0000000140002d00 f i Logger.obj
 0001:00001d00       ??$_Destroy_in_place@PEAU?$_List_node@UTaskButtonInfo@@PEAX@std@@@std@@YAXAEAPEAU?$_List_node@UTaskButtonInfo@@PEAX@0@@Z 0000000140002d00 f i TaskbarWindow.obj
 0001:00001d00       ??$_Destroy_in_place@PEAU?$_Tree_node@U?$pair@$$CBU?$pair@PEAUHWND__@@I@std@@V?$basic_string@_WU?$char_traits@_W@std@@V?$allocator@_W@2@@2@@std@@PEAX@std@@@std@@YAXAEAPEAU?$_Tree_node@U?$pair@$$CBU?$pair@PEAUHWND__@@I@std@@V?$basic_string@_WU?$char_traits@_W@std@@V?$allocator@_W@2@@2@@std@@PEAX@0@@Z 0000000140002d00 f i TrayIconScraper.obj
 0001:00001d00       ??$_Destroy_in_place@PEA_W@std@@YAXAEAPEA_W@Z 0000000140002d00 f i main.obj
 0001:00001d00       ??1?$__crt_simd_cleanup_guard@$0A@@@QEAA@XZ 0000000140002d00 f i libucrtd:strnlen.obj
 0001:00001d00       ??1_Bxty@?$_String_val@U?$_Simple_types@D@std@@@std@@QEAA@XZ 0000000140002d00 f i Logger.obj
 0001:00001d00       ??1_Bxty@?$_String_val@U?$_Simple_types@_W@std@@@std@@QEAA@XZ 0000000140002d00 f i main.obj
 0001:00001d00       ??1error_category@std@@UEAA@XZ 0000000140002d00 f i Logger.obj
 0001:00001d00       ??1scoped_global_state_reset@__crt_state_management@@QEAA@XZ 0000000140002d00 f i libucrtd:onexit.obj
 0001:00001d00       ?_Activate_SSO_buffer@?$_String_val@U?$_Simple_types@D@std@@@std@@QEAAXXZ 0000000140002d00 f i Logger.obj
 0001:00001d00       ?_Activate_SSO_buffer@?$_String_val@U?$_Simple_types@_W@std@@@std@@QEAAXXZ 0000000140002d00 f i Logger.obj
 0001:00001d00       ?_Lock@?$basic_streambuf@_WU?$char_traits@_W@std@@@std@@UEAAXXZ 0000000140002d00 f i Logger.obj
 0001:00001d00       ?_Unlock@?$basic_streambuf@_WU?$char_traits@_W@std@@@std@@UEAAXXZ 0000000140002d00 f i Logger.obj
 0001:00001d00       _guard_check_icall_nop     0000000140002d00 f i LIBCMTD:guard_support.obj
 0001:00001d10       ??$_Destroy_range@V?$allocator@I@std@@@std@@YAXPEAIQEAIAEAV?$allocator@I@0@@Z 0000000140002d10 f i TaskbarWindow.obj
 0001:00001d10       ??$_Destroy_range@V?$allocator@PEAUHMONITOR__@@@std@@@std@@YAXPEAPEAUHMONITOR__@@QEAPEAU1@AEAV?$allocator@PEAUHMONITOR__@@@0@@Z 0000000140002d10 f i main.obj
 0001:00001d10       ??$_Destroy_range@V?$allocator@PEAUHWND__@@@std@@@std@@YAXPEAPEAUHWND__@@QEAPEAU1@AEAV?$allocator@PEAUHWND__@@@0@@Z 0000000140002d10 f i TaskbarWindow.obj
 0001:00001d10       ??$_Destroy_range@V?$allocator@PEAUTaskbarInstance@@@std@@@std@@YAXPEAPEAUTaskbarInstance@@QEAPEAU1@AEAV?$allocator@PEAUTaskbarInstance@@@0@@Z 0000000140002d10 f i TaskbarWindow.obj
 0001:00001d10       ??$_Destroy_range@V?$allocator@PEAU_PSP@@@std@@@std@@YAXPEAPEAU_PSP@@QEAPEAU1@AEAV?$allocator@PEAU_PSP@@@0@@Z 0000000140002d10 f i TaskbarProperties.obj
 0001:00001d10       ??$_Destroy_range@V?$allocator@UEliteTrayIcon@@@std@@@std@@YAXPEAUEliteTrayIcon@@QEAU1@AEAV?$allocator@UEliteTrayIcon@@@0@@Z 0000000140002d10 f i TaskbarWindow.obj
 0001:00001d10       ??$_Destroy_range@V?$allocator@UMonitorInfo@@@std@@@std@@YAXPEAUMonitorInfo@@QEAU1@AEAV?$allocator@UMonitorInfo@@@0@@Z 0000000140002d10 f i TaskbarProperties.obj
 0001:00001d10       ??$_Destroy_range@V?$allocator@UScrapedTrayIcon@@@std@@@std@@YAXPEAUScrapedTrayIcon@@QEAU1@AEAV?$allocator@UScrapedTrayIcon@@@0@@Z 0000000140002d10 f i TaskbarWindow.obj
 0001:00001d10       ??$_Destroy_range@V?$allocator@UtagRECT@@@std@@@std@@YAXPEAUtagRECT@@QEAU1@AEAV?$allocator@UtagRECT@@@0@@Z 0000000140002d10 f i TaskbarWindow.obj
 0001:00001d10       ??$_Destroy_range@V?$allocator@_W@std@@@std@@YAXPEA_WQEA_WAEAV?$allocator@_W@0@@Z 0000000140002d10 f i TrayIconScraper.obj
 0001:00001d20       ??$_Get_size_of_n@$01@std@@YA_K_K@Z 0000000140002d20 f i main.obj
 0001:00001d70       ??$_Get_size_of_n@$0BA@@std@@YA_K_K@Z 0000000140002d70 f i main.obj
 0001:00001db0       ??$_Max_limit@_J@std@@YA_JXZ 0000000140002db0 f i main.obj
 0001:00001dd0       ??$exchange@PEAU?$_Tree_node@U?$pair@$$CBU?$pair@PEAUHWND__@@I@std@@V?$basic_string@_WU?$char_traits@_W@std@@V?$allocator@_W@2@@2@@std@@PEAX@std@@$$T@std@@YAPEAU?$_Tree_node@U?$pair@$$CBU?$pair@PEAUHWND__@@I@std@@V?$basic_string@_WU?$char_traits@_W@std@@V?$allocator@_W@2@@2@@std@@PEAX@0@AEAPEAU10@$$QEA$$T@Z 0000000140002dd0 f i TrayIconScraper.obj
 0001:00001dd0       ??$exchange@PEAU?$_Tree_node@U?$pair@$$CBU?$pair@PEAUHWND__@@I@std@@V?$basic_string@_WU?$char_traits@_W@std@@V?$allocator@_W@2@@2@@std@@PEAX@std@@AEAPEAU12@@std@@YAPEAU?$_Tree_node@U?$pair@$$CBU?$pair@PEAUHWND__@@I@std@@V?$basic_string@_WU?$char_traits@_W@std@@V?$allocator@_W@2@@2@@std@@PEAX@0@AEAPEAU10@0@Z 0000000140002dd0 f i TrayIconScraper.obj
 0001:00001dd0       ??$exchange@PEAUScrapedTrayIcon@@$$T@std@@YAPEAUScrapedTrayIcon@@AEAPEAU1@$$QEA$$T@Z 0000000140002dd0 f i TrayIconScraper.obj
 0001:00001dd0       ??$exchange@PEAU_Container_proxy@std@@$$T@std@@YAPEAU_Container_proxy@0@AEAPEAU10@$$QEA$$T@Z 0000000140002dd0 f i main.obj
 0001:00001dd0       ??$exchange@PEAU_Iterator_base12@std@@$$T@std@@YAPEAU_Iterator_base12@0@AEAPEAU10@$$QEA$$T@Z 0000000140002dd0 f i main.obj
 0001:00001dd0       ??$exchange@PEAV_Facet_base@std@@$$T@std@@YAPEAV_Facet_base@0@AEAPEAV10@$$QEA$$T@Z 0000000140002dd0 f i Logger.obj
 0001:00001e10       ??$max@PEA_W@std@@YAAEBQEA_WAEBQEA_W0@Z 0000000140002e10 f i Logger.obj
 0001:00001e10       ??$max@_K@std@@YAAEB_KAEB_K0@Z 0000000140002e10 f i main.obj
 0001:00001e60       ??$min@_K@std@@YAAEB_KAEB_K0@Z 0000000140002e60 f i main.obj
 0001:00001eb0       ??$swprintf_s@$0CA@@@YAHAEAY0CA@_WPEB_WZZ 0000000140002eb0 f i main.obj
 0001:00001ef0       ??0?$_Container_proxy_ptr12@V?$allocator@U_Container_proxy@std@@@std@@@std@@QEAA@AEAV?$allocator@U_Container_proxy@std@@@1@AEAU_Container_base12@1@@Z 0000000140002ef0 f i main.obj
 0001:00001f80       ??0?$_String_val@U?$_Simple_types@D@std@@@std@@QEAA@XZ 0000000140002f80 f i Logger.obj
 0001:00001f80       ??0?$_String_val@U?$_Simple_types@_W@std@@@std@@QEAA@XZ 0000000140002f80 f i main.obj
 0001:00001fd0       ??0?$_Vector_val@U?$_Simple_types@I@std@@@std@@QEAA@XZ 0000000140002fd0 f i TaskbarWindow.obj
 0001:00001fd0       ??0?$_Vector_val@U?$_Simple_types@PEAUHMONITOR__@@@std@@@std@@QEAA@XZ 0000000140002fd0 f i main.obj
 0001:00001fd0       ??0?$_Vector_val@U?$_Simple_types@PEAUHWND__@@@std@@@std@@QEAA@XZ 0000000140002fd0 f i TaskbarWindow.obj
 0001:00001fd0       ??0?$_Vector_val@U?$_Simple_types@PEAUTaskbarInstance@@@std@@@std@@QEAA@XZ 0000000140002fd0 f i TaskbarWindow.obj
 0001:00001fd0       ??0?$_Vector_val@U?$_Simple_types@PEAU_PSP@@@std@@@std@@QEAA@XZ 0000000140002fd0 f i TaskbarProperties.obj
 0001:00001fd0       ??0?$_Vector_val@U?$_Simple_types@UEliteTrayIcon@@@std@@@std@@QEAA@XZ 0000000140002fd0 f i TaskbarWindow.obj
 0001:00001fd0       ??0?$_Vector_val@U?$_Simple_types@UMonitorInfo@@@std@@@std@@QEAA@XZ 0000000140002fd0 f i TaskbarProperties.obj
 0001:00001fd0       ??0?$_Vector_val@U?$_Simple_types@USavedPos@@@std@@@std@@QEAA@XZ 0000000140002fd0 f i DesktopWindow.obj
 0001:00001fd0       ??0?$_Vector_val@U?$_Simple_types@UScrapedTrayIcon@@@std@@@std@@QEAA@XZ 0000000140002fd0 f i TaskbarWindow.obj
 0001:00001fd0       ??0?$_Vector_val@U?$_Simple_types@UtagRECT@@@std@@@std@@QEAA@XZ 0000000140002fd0 f i TaskbarWindow.obj
 0001:00001fd0       ??0?$_Vector_val@U?$_Simple_types@V?$basic_string@_WU?$char_traits@_W@std@@V?$allocator@_W@2@@std@@@std@@@std@@QEAA@XZ 0000000140002fd0 f i StartButton.obj
 0001:00001fd0       ??0?$_Vector_val@U?$_Simple_types@_W@std@@@std@@QEAA@XZ 0000000140002fd0 f i TrayIconScraper.obj
 0001:00002020       ??0?$basic_string@_WU?$char_traits@_W@std@@V?$allocator@_W@2@@std@@QEAA@QEB_W@Z 0000000140003020 f i main.obj
 0001:00002070       ??0?$vector@PEAUHMONITOR__@@V?$allocator@PEAUHMONITOR__@@@std@@@std@@QEAA@XZ 0000000140003070 f i main.obj
 0001:00002070       ??0?$vector@PEAUHWND__@@V?$allocator@PEAUHWND__@@@std@@@std@@QEAA@XZ 0000000140003070 f i TaskbarWindow.obj
 0001:00002070       ??0?$vector@PEAUTaskbarInstance@@V?$allocator@PEAUTaskbarInstance@@@std@@@std@@QEAA@XZ 0000000140003070 f i TaskbarWindow.obj
 0001:00002070       ??0?$vector@PEAU_PSP@@V?$allocator@PEAU_PSP@@@std@@@std@@QEAA@XZ 0000000140003070 f i TaskbarProperties.obj
 0001:00002070       ??0?$vector@UEliteTrayIcon@@V?$allocator@UEliteTrayIcon@@@std@@@std@@QEAA@XZ 0000000140003070 f i TaskbarWindow.obj
 0001:00002070       ??0?$vector@UMonitorInfo@@V?$allocator@UMonitorInfo@@@std@@@std@@QEAA@XZ 0000000140003070 f i TaskbarProperties.obj
 0001:00002070       ??0?$vector@USavedPos@@V?$allocator@USavedPos@@@std@@@std@@QEAA@XZ 0000000140003070 f i DesktopWindow.obj
 0001:00002070       ??0?$vector@UScrapedTrayIcon@@V?$allocator@UScrapedTrayIcon@@@std@@@std@@QEAA@XZ 0000000140003070 f i TaskbarWindow.obj
 0001:00002070       ??0?$vector@UtagRECT@@V?$allocator@UtagRECT@@@std@@@std@@QEAA@XZ 0000000140003070 f i TaskbarWindow.obj
 0001:00002070       ??0?$vector@V?$basic_string@_WU?$char_traits@_W@std@@V?$allocator@_W@2@@std@@V?$allocator@V?$basic_string@_WU?$char_traits@_W@std@@V?$allocator@_W@2@@std@@@2@@std@@QEAA@XZ 0000000140003070 f i StartButton.obj
 0001:000020c0       ??$?0$0A@@id@locale@std@@QEAA@XZ 00000001400030c0 f i Logger.obj
 0001:000020c0       ??0_Basic_container_proxy_ptr12@std@@IEAA@XZ 00000001400030c0 f i main.obj
 0001:000020c0       ??0_Container_base12@std@@QEAA@XZ 00000001400030c0 f i main.obj
 0001:000020c0       ??0__crt_stdio_stream@@QEAA@XZ 00000001400030c0 f i libucrtd:stream.obj
 0001:000020e0       ??0_Bxty@?$_String_val@U?$_Simple_types@D@std@@@std@@QEAA@XZ 00000001400030e0 f i Logger.obj
 0001:000020e0       ??0_Bxty@?$_String_val@U?$_Simple_types@_W@std@@@std@@QEAA@XZ 00000001400030e0 f i main.obj
 0001:00002100       ??0?$_Alloc_construct_ptr@V?$allocator@U?$_List_node@UTaskButtonInfo@@PEAX@std@@@std@@@std@@QEAA@AEAV?$allocator@U?$_List_node@UTaskButtonInfo@@PEAX@std@@@1@@Z 0000000140003100 f i TaskbarWindow.obj
 0001:00002100       ??0?$_Alloc_construct_ptr@V?$allocator@U?$_Tree_node@U?$pair@$$CBU?$pair@PEAUHWND__@@I@std@@V?$basic_string@_WU?$char_traits@_W@std@@V?$allocator@_W@2@@2@@std@@PEAX@std@@@std@@@std@@QEAA@AEAV?$allocator@U?$_Tree_node@U?$pair@$$CBU?$pair@PEAUHWND__@@I@std@@V?$basic_string@_WU?$char_traits@_W@std@@V?$allocator@_W@2@@2@@std@@PEAX@std@@@1@@Z 0000000140003100 f i TrayIconScraper.obj
 0001:00002100       ??0_Container_proxy@std@@QEAA@PEAU_Container_base12@1@@Z 0000000140003100 f i main.obj
 0001:00002130       ??0bad_alloc@std@@AEAA@QEBD@Z 0000000140003130 f i main.obj
 0001:00002170       ??0bad_alloc@std@@QEAA@AEBV01@@Z 0000000140003170 f i main.obj
 0001:000021b0       ??0bad_array_new_length@std@@QEAA@AEBV01@@Z 00000001400031b0 f i main.obj
 0001:000021f0       ??0bad_array_new_length@std@@QEAA@XZ 00000001400031f0 f i main.obj
 0001:00002230       ??0exception@std@@QEAA@AEBV01@@Z 0000000140003230 f i main.obj
 0001:00002290       ??0exception@std@@QEAA@QEBDH@Z 0000000140003290 f i main.obj
 0001:000022e0       ??1?$_Compressed_pair@V?$allocator@D@std@@V?$_String_val@U?$_Simple_types@D@std@@@2@$00@std@@QEAA@XZ 00000001400032e0 f i Logger.obj
 0001:000022e0       ??1?$_Compressed_pair@V?$allocator@_W@std@@V?$_String_val@U?$_Simple_types@_W@std@@@2@$00@std@@QEAA@XZ 00000001400032e0 f i main.obj
 0001:00002300       ??1?$_Container_proxy_ptr12@V?$allocator@U_Container_proxy@std@@@std@@@std@@QEAA@XZ 0000000140003300 f i main.obj
 0001:00002330       ??1?$_String_val@U?$_Simple_types@D@std@@@std@@QEAA@XZ 0000000140003330 f i Logger.obj
 0001:00002330       ??1?$_String_val@U?$_Simple_types@_W@std@@@std@@QEAA@XZ 0000000140003330 f i main.obj
 0001:00002350       ??1?$basic_string@_WU?$char_traits@_W@std@@V?$allocator@_W@2@@std@@QEAA@XZ 0000000140003350 f i main.obj
 0001:000023c0       ??1?$vector@PEAUHMONITOR__@@V?$allocator@PEAUHMONITOR__@@@std@@@std@@QEAA@XZ 00000001400033c0 f i main.obj
 0001:000023c0       ??1?$vector@PEAUHWND__@@V?$allocator@PEAUHWND__@@@std@@@std@@QEAA@XZ 00000001400033c0 f i TaskbarWindow.obj
 0001:000023c0       ??1?$vector@PEAUTaskbarInstance@@V?$allocator@PEAUTaskbarInstance@@@std@@@std@@QEAA@XZ 00000001400033c0 f i TaskbarWindow.obj
 0001:000023c0       ??1?$vector@PEAU_PSP@@V?$allocator@PEAU_PSP@@@std@@@std@@QEAA@XZ 00000001400033c0 f i TaskbarProperties.obj
 0001:00002430       ??1EliteTaskbarConfig@@QEAA@XZ 0000000140003430 f i main.obj
 0001:00002460       ??1bad_alloc@std@@UEAA@XZ  0000000140003460 f i main.obj
 0001:00002460       ??1bad_cast@std@@UEAA@XZ   0000000140003460 f i Logger.obj
 0001:00002460       ??1bad_exception@std@@UEAA@XZ 0000000140003460 f i libvcruntimed:frame.obj
 0001:00002460       ??1logic_error@std@@UEAA@XZ 0000000140003460 f i libcpmtd:xthrow.obj
 0001:00002460       ??1runtime_error@std@@UEAA@XZ 0000000140003460 f i Logger.obj
 0001:00002480       ??1_System_error@std@@UEAA@XZ 0000000140003480 f i Logger.obj
 0001:00002480       ??1bad_array_new_length@std@@UEAA@XZ 0000000140003480 f i main.obj
 0001:00002480       ??1length_error@std@@UEAA@XZ 0000000140003480 f i libcpmtd:xthrow.obj
 0001:00002480       ??1out_of_range@std@@UEAA@XZ 0000000140003480 f i libcpmtd:xthrow.obj
 0001:000024a0       ??1exception@std@@UEAA@XZ  00000001400034a0 f i main.obj
 0001:000024d0       ??2@YAPEAX_KPEAX@Z         00000001400034d0 f i main.obj
 0001:000024e0       ??_Ebad_alloc@std@@UEAAPEAXI@Z 00000001400034e0 f i main.obj
 0001:000024e0       ??_Ebad_cast@std@@UEAAPEAXI@Z 00000001400034e0 f i Logger.obj
 0001:000024e0       ??_Ebad_exception@std@@UEAAPEAXI@Z 00000001400034e0 f i libvcruntimed:frame.obj
 0001:000024e0       ??_Elogic_error@std@@UEAAPEAXI@Z 00000001400034e0 f i libcpmtd:xthrow.obj
 0001:000024e0       ??_Eruntime_error@std@@UEAAPEAXI@Z 00000001400034e0 f i Logger.obj
 0001:000024e0       ??_Gbad_alloc@std@@UEAAPEAXI@Z 00000001400034e0 f i main.obj
 0001:000024e0       ??_Gbad_cast@std@@UEAAPEAXI@Z 00000001400034e0 f i Logger.obj
 0001:000024e0       ??_Gbad_exception@std@@UEAAPEAXI@Z 00000001400034e0 f i libvcruntimed:frame.obj
 0001:000024e0       ??_Glogic_error@std@@UEAAPEAXI@Z 00000001400034e0 f i libcpmtd:xthrow.obj
 0001:000024e0       ??_Gruntime_error@std@@UEAAPEAXI@Z 00000001400034e0 f i Logger.obj
 0001:00002520       ??_Ebad_array_new_length@std@@UEAAPEAXI@Z 0000000140003520 f i main.obj
 0001:00002520       ??_Elength_error@std@@UEAAPEAXI@Z 0000000140003520 f i libcpmtd:xthrow.obj
 0001:00002520       ??_Eout_of_range@std@@UEAAPEAXI@Z 0000000140003520 f i libcpmtd:xthrow.obj
 0001:00002520       ??_Gbad_array_new_length@std@@UEAAPEAXI@Z 0000000140003520 f i main.obj
 0001:00002520       ??_Glength_error@std@@UEAAPEAXI@Z 0000000140003520 f i libcpmtd:xthrow.obj
 0001:00002520       ??_Gout_of_range@std@@UEAAPEAXI@Z 0000000140003520 f i libcpmtd:xthrow.obj
 0001:00002560       ??_Eexception@std@@UEAAPEAXI@Z 0000000140003560 f i main.obj
 0001:00002560       ??_Gexception@std@@UEAAPEAXI@Z 0000000140003560 f i main.obj
 0001:000025a0       ?GetEliteRegistryRoot@@YAPEAUHKEY__@@XZ 00000001400035a0 f i main.obj
 0001:000025b0       ?_Adjust_manually_vector_aligned@std@@YAXAEAPEAXAEA_K@Z 00000001400035b0 f i main.obj
 0001:00002700       ?_Allocate@_Default_allocate_traits@std@@SAPEAX_K@Z 0000000140003700 f i main.obj
 0001:00002720       ?_Calculate_growth@?$basic_string@_WU?$char_traits@_W@std@@V?$allocator@_W@2@@std@@CA_K_K00@Z 0000000140003720 f i main.obj
 0001:000027c0       ?_Deallocate_for_capacity@?$basic_string@_WU?$char_traits@_W@std@@V?$allocator@_W@2@@std@@CAXAEAV?$allocator@_W@2@QEA_W_K@Z 00000001400037c0 f i main.obj
 0001:00002800       ?_Get_scary@?$_Tree@V?$_Tmap_traits@U?$pair@PEAUHWND__@@I@std@@V?$basic_string@_WU?$char_traits@_W@std@@V?$allocator@_W@2@@2@U?$less@U?$pair@PEAUHWND__@@I@std@@@2@V?$allocator@U?$pair@$$CBU?$pair@PEAUHWND__@@I@std@@V?$basic_string@_WU?$char_traits@_W@std@@V?$allocator@_W@2@@2@@std@@@2@$0A@@std@@@std@@IEAAPEAV?$_Tree_val@U?$_Tree_simple_types@U?$pair@$$CBU?$pair@PEAUHWND__@@I@std@@V?$basic_string@_WU?$char_traits@_W@std@@V?$allocator@_W@2@@2@@std@@@std@@@2@XZ 0000000140003800 f i TrayIconScraper.obj
 0001:00002800       ?_Get_scary@?$_Tree@V?$_Tmap_traits@U?$pair@PEAUHWND__@@I@std@@V?$basic_string@_WU?$char_traits@_W@std@@V?$allocator@_W@2@@2@U?$less@U?$pair@PEAUHWND__@@I@std@@@2@V?$allocator@U?$pair@$$CBU?$pair@PEAUHWND__@@I@std@@V?$basic_string@_WU?$char_traits@_W@std@@V?$allocator@_W@2@@2@@std@@@2@$0A@@std@@@std@@IEBAPEBV?$_Tree_val@U?$_Tree_simple_types@U?$pair@$$CBU?$pair@PEAUHWND__@@I@std@@V?$basic_string@_WU?$char_traits@_W@std@@V?$allocator@_W@2@@2@@std@@@std@@@2@XZ 0000000140003800 f i TrayIconScraper.obj
 0001:00002800       ?_Getal@?$_Tree@V?$_Tmap_traits@U?$pair@PEAUHWND__@@I@std@@V?$basic_string@_WU?$char_traits@_W@std@@V?$allocator@_W@2@@2@U?$less@U?$pair@PEAUHWND__@@I@std@@@2@V?$allocator@U?$pair@$$CBU?$pair@PEAUHWND__@@I@std@@V?$basic_string@_WU?$char_traits@_W@std@@V?$allocator@_W@2@@2@@std@@@2@$0A@@std@@@std@@IEAAAEAV?$allocator@U?$_Tree_node@U?$pair@$$CBU?$pair@PEAUHWND__@@I@std@@V?$basic_string@_WU?$char_traits@_W@std@@V?$allocator@_W@2@@2@@std@@PEAX@std@@@2@XZ 0000000140003800 f i TrayIconScraper.obj
 0001:00002800       ?_Getal@?$_Tree@V?$_Tmap_traits@U?$pair@PEAUHWND__@@I@std@@V?$basic_string@_WU?$char_traits@_W@std@@V?$allocator@_W@2@@2@U?$less@U?$pair@PEAUHWND__@@I@std@@@2@V?$allocator@U?$pair@$$CBU?$pair@PEAUHWND__@@I@std@@V?$basic_string@_WU?$char_traits@_W@std@@V?$allocator@_W@2@@2@@std@@@2@$0A@@std@@@std@@IEBAAEBV?$allocator@U?$_Tree_node@U?$pair@$$CBU?$pair@PEAUHWND__@@I@std@@V?$basic_string@_WU?$char_traits@_W@std@@V?$allocator@_W@2@@2@@std@@PEAX@std@@@2@XZ 0000000140003800 f i TrayIconScraper.obj
 0001:00002800       ?_Getal@?$basic_string@DU?$char_traits@D@std@@V?$allocator@D@2@@std@@AEAAAEAV?$allocator@D@2@XZ 0000000140003800 f i Logger.obj
 0001:00002800       ?_Getal@?$basic_string@DU?$char_traits@D@std@@V?$allocator@D@2@@std@@AEBAAEBV?$allocator@D@2@XZ 0000000140003800 f i Logger.obj
 0001:00002800       ?_Getal@?$basic_string@_WU?$char_traits@_W@std@@V?$allocator@_W@2@@std@@AEAAAEAV?$allocator@_W@2@XZ 0000000140003800 f i main.obj
 0001:00002800       ?_Getal@?$basic_string@_WU?$char_traits@_W@std@@V?$allocator@_W@2@@std@@AEBAAEBV?$allocator@_W@2@XZ 0000000140003800 f i main.obj
 0001:00002800       ?_Getal@?$list@UTaskButtonInfo@@V?$allocator@UTaskButtonInfo@@@std@@@std@@AEAAAEAV?$allocator@U?$_List_node@UTaskButtonInfo@@PEAX@std@@@2@XZ 0000000140003800 f i TaskbarWindow.obj
 0001:00002800       ?_Getal@?$list@UTaskButtonInfo@@V?$allocator@UTaskButtonInfo@@@std@@@std@@AEBAAEBV?$allocator@U?$_List_node@UTaskButtonInfo@@PEAX@std@@@2@XZ 0000000140003800 f i TaskbarWindow.obj
 0001:00002800       ?_Getal@?$vector@IV?$allocator@I@std@@@std@@AEAAAEAV?$allocator@I@2@XZ 0000000140003800 f i TaskbarWindow.obj
 0001:00002800       ?_Getal@?$vector@IV?$allocator@I@std@@@std@@AEBAAEBV?$allocator@I@2@XZ 0000000140003800 f i TaskbarWindow.obj
 0001:00002800       ?_Getal@?$vector@PEAUHMONITOR__@@V?$allocator@PEAUHMONITOR__@@@std@@@std@@AEAAAEAV?$allocator@PEAUHMONITOR__@@@2@XZ 0000000140003800 f i main.obj
 0001:00002800       ?_Getal@?$vector@PEAUHMONITOR__@@V?$allocator@PEAUHMONITOR__@@@std@@@std@@AEBAAEBV?$allocator@PEAUHMONITOR__@@@2@XZ 0000000140003800 f i TaskbarWindow.obj
 0001:00002800       ?_Getal@?$vector@PEAUHWND__@@V?$allocator@PEAUHWND__@@@std@@@std@@AEAAAEAV?$allocator@PEAUHWND__@@@2@XZ 0000000140003800 f i TaskbarWindow.obj
 0001:00002800       ?_Getal@?$vector@PEAUHWND__@@V?$allocator@PEAUHWND__@@@std@@@std@@AEBAAEBV?$allocator@PEAUHWND__@@@2@XZ 0000000140003800 f i TaskbarWindow.obj
 0001:00002800       ?_Getal@?$vector@PEAUTaskbarInstance@@V?$allocator@PEAUTaskbarInstance@@@std@@@std@@AEAAAEAV?$allocator@PEAUTaskbarInstance@@@2@XZ 0000000140003800 f i TaskbarWindow.obj
 0001:00002800       ?_Getal@?$vector@PEAUTaskbarInstance@@V?$allocator@PEAUTaskbarInstance@@@std@@@std@@AEBAAEBV?$allocator@PEAUTaskbarInstance@@@2@XZ 0000000140003800 f i TaskbarWindow.obj
 0001:00002800       ?_Getal@?$vector@PEAU_PSP@@V?$allocator@PEAU_PSP@@@std@@@std@@AEAAAEAV?$allocator@PEAU_PSP@@@2@XZ 0000000140003800 f i TaskbarProperties.obj
 0001:00002800       ?_Getal@?$vector@PEAU_PSP@@V?$allocator@PEAU_PSP@@@std@@@std@@AEBAAEBV?$allocator@PEAU_PSP@@@2@XZ 0000000140003800 f i TaskbarProperties.obj
 0001:00002800       ?_Getal@?$vector@UEliteTrayIcon@@V?$allocator@UEliteTrayIcon@@@std@@@std@@AEAAAEAV?$allocator@UEliteTrayIcon@@@2@XZ 0000000140003800 f i TaskbarWindow.obj
 0001:00002800       ?_Getal@?$vector@UEliteTrayIcon@@V?$allocator@UEliteTrayIcon@@@std@@@std@@AEBAAEBV?$allocator@UEliteTrayIcon@@@2@XZ 0000000140003800 f i TaskbarWindow.obj
 0001:00002800       ?_Getal@?$vector@UMonitorInfo@@V?$allocator@UMonitorInfo@@@std@@@std@@AEAAAEAV?$allocator@UMonitorInfo@@@2@XZ 0000000140003800 f i TaskbarProperties.obj
 0001:00002800       ?_Getal@?$vector@UMonitorInfo@@V?$allocator@UMonitorInfo@@@std@@@std@@AEBAAEBV?$allocator@UMonitorInfo@@@2@XZ 0000000140003800 f i TaskbarProperties.obj
 0001:00002800       ?_Getal@?$vector@USavedPos@@V?$allocator@USavedPos@@@std@@@std@@AEAAAEAV?$allocator@USavedPos@@@2@XZ 0000000140003800 f i DesktopWindow.obj
 0001:00002800       ?_Getal@?$vector@USavedPos@@V?$allocator@USavedPos@@@std@@@std@@AEBAAEBV?$allocator@USavedPos@@@2@XZ 0000000140003800 f i DesktopWindow.obj
 0001:00002800       ?_Getal@?$vector@UScrapedTrayIcon@@V?$allocator@UScrapedTrayIcon@@@std@@@std@@AEAAAEAV?$allocator@UScrapedTrayIcon@@@2@XZ 0000000140003800 f i TaskbarWindow.obj
 0001:00002800       ?_Getal@?$vector@UScrapedTrayIcon@@V?$allocator@UScrapedTrayIcon@@@std@@@std@@AEBAAEBV?$allocator@UScrapedTrayIcon@@@2@XZ 0000000140003800 f i TaskbarWindow.obj
 0001:00002800       ?_Getal@?$vector@UtagRECT@@V?$allocator@UtagRECT@@@std@@@std@@AEAAAEAV?$allocator@UtagRECT@@@2@XZ 0000000140003800 f i TaskbarWindow.obj
 0001:00002800       ?_Getal@?$vector@UtagRECT@@V?$allocator@UtagRECT@@@std@@@std@@AEBAAEBV?$allocator@UtagRECT@@@2@XZ 0000000140003800 f i TaskbarWindow.obj
 0001:00002800       ?_Getal@?$vector@V?$basic_string@_WU?$char_traits@_W@std@@V?$allocator@_W@2@@std@@V?$allocator@V?$basic_string@_WU?$char_traits@_W@std@@V?$allocator@_W@2@@std@@@2@@std@@AEAAAEAV?$allocator@V?$basic_string@_WU?$char_traits@_W@std@@V?$allocator@_W@2@@std@@@2@XZ 0000000140003800 f i StartButton.obj
 0001:00002800       ?_Getal@?$vector@V?$basic_string@_WU?$char_traits@_W@std@@V?$allocator@_W@2@@std@@V?$allocator@V?$basic_string@_WU?$char_traits@_W@std@@V?$allocator@_W@2@@std@@@2@@std@@AEBAAEBV?$allocator@V?$basic_string@_WU?$char_traits@_W@std@@V?$allocator@_W@2@@std@@@2@XZ 0000000140003800 f i StartButton.obj
 0001:00002800       ?_Getal@?$vector@_WV?$allocator@_W@std@@@std@@AEAAAEAV?$allocator@_W@2@XZ 0000000140003800 f i TrayIconScraper.obj
 0001:00002800       ?_Getal@?$vector@_WV?$allocator@_W@std@@@std@@AEBAAEBV?$allocator@_W@2@XZ 0000000140003800 f i TrayIconScraper.obj
 0001:00002800       ?_Getcomp@?$_Tree@V?$_Tmap_traits@U?$pair@PEAUHWND__@@I@std@@V?$basic_string@_WU?$char_traits@_W@std@@V?$allocator@_W@2@@2@U?$less@U?$pair@PEAUHWND__@@I@std@@@2@V?$allocator@U?$pair@$$CBU?$pair@PEAUHWND__@@I@std@@V?$basic_string@_WU?$char_traits@_W@std@@V?$allocator@_W@2@@2@@std@@@2@$0A@@std@@@std@@IEBAAEBU?$less@U?$pair@PEAUHWND__@@I@std@@@2@XZ 0000000140003800 f i TrayIconScraper.obj
 0001:00002820       ?_Large_mode_engaged@?$_String_val@U?$_Simple_types@_W@std@@@std@@QEBA_NXZ 0000000140003820 f i main.obj
 0001:00002850       ?_Orphan_all@_Container_base12@std@@QEAAXXZ 0000000140003850 f i main.obj
 0001:00002870       ?_Orphan_all_locked_v3@_Container_base12@std@@AEAAXXZ 0000000140003870 f i main.obj
 0001:000028b0       ?_Orphan_all_unlocked_v3@_Container_base12@std@@AEAAXXZ 00000001400038b0 f i main.obj
 0001:00002920       ?_Release@_Basic_container_proxy_ptr12@std@@QEAAXXZ 0000000140003920 f i main.obj
 0001:00002940       ?_Switch_to_buf@_Bxty@?$_String_val@U?$_Simple_types@D@std@@@std@@QEAAXXZ 0000000140003940 f i Logger.obj
 0001:00002940       ?_Switch_to_buf@_Bxty@?$_String_val@U?$_Simple_types@_W@std@@@std@@QEAAXXZ 0000000140003940 f i main.obj
 0001:00002960       ?_Throw_bad_array_new_length@std@@YAXXZ 0000000140003960 f i main.obj
 0001:00002960       ?__scrt_throw_std_bad_array_new_length@@YAXXZ 0000000140003960 f i LIBCMTD:throw_bad_alloc.obj
 0001:00002990       ?_Tidy@?$vector@PEAUHMONITOR__@@V?$allocator@PEAUHMONITOR__@@@std@@@std@@AEAAXXZ 0000000140003990 f i main.obj
 0001:00002990       ?_Tidy@?$vector@PEAUHWND__@@V?$allocator@PEAUHWND__@@@std@@@std@@AEAAXXZ 0000000140003990 f i TaskbarWindow.obj
 0001:00002990       ?_Tidy@?$vector@PEAUTaskbarInstance@@V?$allocator@PEAUTaskbarInstance@@@std@@@std@@AEAAXXZ 0000000140003990 f i TaskbarWindow.obj
 0001:00002990       ?_Tidy@?$vector@PEAU_PSP@@V?$allocator@PEAU_PSP@@@std@@@std@@AEAAXXZ 0000000140003990 f i TaskbarProperties.obj
 0001:00002a70       ?_Tidy_deallocate@?$basic_string@_WU?$char_traits@_W@std@@V?$allocator@_W@2@@std@@AEAAXXZ 0000000140003a70 f i main.obj
 0001:00002b30       ?_Xlen_string@std@@YAXXZ   0000000140003b30 f i main.obj
 0001:00002b50       ??$_Pocca@V?$allocator@UScrapedTrayIcon@@@std@@@std@@YAXAEAV?$allocator@UScrapedTrayIcon@@@0@AEBV10@@Z 0000000140003b50 f i TrayIconScraper.obj
 0001:00002b50       ??$_Pocca@V?$allocator@_W@std@@@std@@YAXAEAV?$allocator@_W@0@AEBV10@@Z 0000000140003b50 f i TrayIconScraper.obj
 0001:00002b50       ??$destroy@PEAUTaskbarInstance@@@?$_Default_allocator_traits@V?$allocator@PEAUTaskbarInstance@@@std@@@std@@SAXAEAV?$allocator@PEAUTaskbarInstance@@@1@QEAPEAUTaskbarInstance@@@Z 0000000140003b50 f i TaskbarWindow.obj
 0001:00002b50       ??$destroy@UEliteTrayIcon@@@?$_Default_allocator_traits@V?$allocator@UEliteTrayIcon@@@std@@@std@@SAXAEAV?$allocator@UEliteTrayIcon@@@1@QEAUEliteTrayIcon@@@Z 0000000140003b50 f i TaskbarWindow.obj
 0001:00002b50       ?_Adopt@_Iterator_base0@std@@QEAAXPEBX@Z 0000000140003b50 f i TaskbarWindow.obj
 0001:00002b50       ?_Init@?$num_put@_WV?$ostreambuf_iterator@_WU?$char_traits@_W@std@@@std@@@std@@IEAAXAEBV_Locinfo@2@@Z 0000000140003b50 f i Logger.obj
 0001:00002b50       ?__empty_global_delete@@YAXPEAX_K@Z 0000000140003b50 f i main.obj
 0001:00002b50       ?__global_delete@@YAXPEAX_K@Z 0000000140003b50 f i main.obj
 0001:00002b50       ?deallocate@__crt_win32_buffer_no_resizing@@SAXQEAXAEBV__crt_win32_buffer_empty_debug_info@@@Z 0000000140003b50 f i libucrtd:strftime.obj
 0001:00002b50       ?imbue@?$basic_streambuf@_WU?$char_traits@_W@std@@@std@@MEAAXAEBVlocale@2@@Z 0000000140003b50 f i Logger.obj
 0001:00002b60       ?allocate@?$allocator@U_Container_proxy@std@@@std@@QEAAPEAU_Container_proxy@2@_K@Z 0000000140003b60 f i main.obj
 0001:00002b60       ?allocate@?$allocator@UtagRECT@@@std@@QEAAPEAUtagRECT@@_K@Z 0000000140003b60 f i TaskbarWindow.obj
 0001:00002b90       ?allocate@?$allocator@_W@std@@QEAAPEA_W_K@Z 0000000140003b90 f i main.obj
 0001:00002bc0       ?assign@?$_WChar_traits@_W@std@@SAXAEA_WAEB_W@Z 0000000140003bc0 f i main.obj
 0001:00002be0       ?copy@?$_Char_traits@_WG@std@@SAPEA_WQEA_WQEB_W_K@Z 0000000140003be0 f i main.obj
 0001:00002be0       ?move@?$_Char_traits@_WG@std@@SAPEA_WQEA_WQEB_W_K@Z 0000000140003be0 f i Logger.obj
 0001:00002c20       ?deallocate@?$_Default_allocator_traits@V?$allocator@U_Container_proxy@std@@@std@@@std@@SAXAEAV?$allocator@U_Container_proxy@std@@@2@QEAU_Container_proxy@2@_K@Z 0000000140003c20 f i main.obj
 0001:00002c50       ?deallocate@?$allocator@PEAUHMONITOR__@@@std@@QEAAXQEAPEAUHMONITOR__@@_K@Z 0000000140003c50 f i main.obj
 0001:00002c50       ?deallocate@?$allocator@PEAUHWND__@@@std@@QEAAXQEAPEAUHWND__@@_K@Z 0000000140003c50 f i TaskbarWindow.obj
 0001:00002c50       ?deallocate@?$allocator@PEAUTaskbarInstance@@@std@@QEAAXQEAPEAUTaskbarInstance@@_K@Z 0000000140003c50 f i TaskbarWindow.obj
 0001:00002c50       ?deallocate@?$allocator@PEAU_PSP@@@std@@QEAAXQEAPEAU_PSP@@_K@Z 0000000140003c50 f i TaskbarProperties.obj
 0001:00002cf0       ?deallocate@?$allocator@_W@std@@QEAAXQEA_W_K@Z 0000000140003cf0 f i main.obj
 0001:00002d90       ??$tcslen@AEAY0BAF@_W@?$__crt_char_traits@_W@@SA_KAEAY0BAF@_W@Z 0000000140003d90 f i libucrtd:dbgrpt.obj
 0001:00002d90       ??$tcslen@AEAY0L@$$CB_W@?$__crt_char_traits@_W@@SA_KAEAY0L@$$CB_W@Z 0000000140003d90 f i libucrtd:cenvarg.obj
 0001:00002d90       ?length@?$_WChar_traits@_W@std@@SA_KPEB_W@Z 0000000140003d90 f i main.obj
 0001:00002db0       ?max_size@?$_Default_allocator_traits@V?$allocator@_W@std@@@std@@SA_KAEBV?$allocator@_W@2@@Z 0000000140003db0 f i main.obj
 0001:00002dc0       ?max_size@?$basic_string@_WU?$char_traits@_W@std@@V?$allocator@_W@2@@std@@QEBA_KXZ 0000000140003dc0 f i main.obj
 0001:00002e30       ?what@exception@std@@UEBAPEBDXZ 0000000140003e30 f i main.obj
 0001:00002e70       __local_stdio_printf_options 0000000140003e70 f i main.obj
 0001:00002e80       _vswprintf_s_l             0000000140003e80 f i main.obj
 0001:00002ef0       vswprintf_s                0000000140003ef0 f i main.obj
 0001:00002f30       ?Initialize@Logger@@YAXXZ  0000000140003f30 f   Logger.obj
 0001:00002f90       ?Log@Logger@@YAXAEBV?$basic_string@_WU?$char_traits@_W@std@@V?$allocator@_W@2@@std@@@Z 0000000140003f90 f   Logger.obj
 0001:00003340       ?LogError@Logger@@YAXAEBV?$basic_string@_WU?$char_traits@_W@std@@V?$allocator@_W@2@@std@@K@Z 0000000140004340 f   Logger.obj
 0001:00003430       ?GetLogFilePath@@YA?AV?$basic_string@_WU?$char_traits@_W@std@@V?$allocator@_W@2@@std@@XZ 0000000140004430 f   Logger.obj
 0001:000035b0       ??$?0AEAPEAV_Facet_base@std@@@?$_Compressed_pair@U?$default_delete@V_Facet_base@std@@@std@@PEAV_Facet_base@2@$00@std@@QEAA@U_Zero_then_variadic_args_t@1@AEAPEAV_Facet_base@1@@Z 00000001400045b0 f i Logger.obj
 0001:000035f0       ??$?0AEBV?$allocator@_W@std@@$$V@?$_Compressed_pair@V?$allocator@_W@std@@V?$_String_val@U?$_Simple_types@_W@std@@@2@$00@std@@QEAA@U_One_then_variadic_args_t@1@AEBV?$allocator@_W@1@@Z 00000001400045f0 f i Logger.obj
 0001:000035f0       ??$?0V?$allocator@D@std@@$$V@?$_Compressed_pair@V?$allocator@D@std@@V?$_String_val@U?$_Simple_types@D@std@@@2@$00@std@@QEAA@U_One_then_variadic_args_t@1@$$QEAV?$allocator@D@1@@Z 00000001400045f0 f i Logger.obj
 0001:000035f0       ??$?0V?$allocator@_W@std@@$$V@?$_Compressed_pair@V?$allocator@_W@std@@V?$_String_val@U?$_Simple_types@_W@std@@@2@$00@std@@QEAA@U_One_then_variadic_args_t@1@$$QEAV?$allocator@_W@1@@Z 00000001400045f0 f i Logger.obj
 0001:00003630       ??$?0U?$default_delete@V_Facet_base@std@@@std@@$0A@@?$unique_ptr@V_Facet_base@std@@U?$default_delete@V_Facet_base@std@@@2@@std@@QEAA@PEAV_Facet_base@1@@Z 0000000140004630 f i Logger.obj
 0001:00003660       ??$?6_WU?$char_traits@_W@std@@@std@@YAAEAV?$basic_ostream@_WU?$char_traits@_W@std@@@0@AEAV10@AEBU?$_Fillobj@_W@0@@Z 0000000140004660 f i Logger.obj
 0001:000036a0       ??$?6_WU?$char_traits@_W@std@@@std@@YAAEAV?$basic_ostream@_WU?$char_traits@_W@std@@@0@AEAV10@AEBU?$_Smanip@_J@0@@Z 00000001400046a0 f i Logger.obj
 0001:000036f0       ??$?6_WU?$char_traits@_W@std@@@std@@YAAEAV?$basic_ostream@_WU?$char_traits@_W@std@@@0@AEAV10@PEB_W@Z 00000001400046f0 f i Logger.obj
 0001:00003a50       ??$?6_WU?$char_traits@_W@std@@V?$allocator@_W@1@@std@@YAAEAV?$basic_ostream@_WU?$char_traits@_W@std@@@0@AEAV10@AEBV?$basic_string@_WU?$char_traits@_W@std@@V?$allocator@_W@2@@0@@Z 0000000140004a50 f i Logger.obj
 0001:00003aa0       ??$?H_WU?$char_traits@_W@std@@V?$allocator@_W@1@@std@@YA?AV?$basic_string@_WU?$char_traits@_W@std@@V?$allocator@_W@2@@0@$$QEAV10@QEB_W@Z 0000000140004aa0 f i Logger.obj
 0001:00003b00       ??$?H_WU?$char_traits@_W@std@@V?$allocator@_W@1@@std@@YA?AV?$basic_string@_WU?$char_traits@_W@std@@V?$allocator@_W@2@@0@AEBV10@QEB_W@Z 0000000140004b00 f i Logger.obj
 0001:00003bd0       ??$_Adl_verify_range@PEADPEAD@std@@YAXAEBQEAD0@Z 0000000140004bd0 f i Logger.obj
 0001:00003bd0       ??$_Adl_verify_range@PEA_WPEA_W@std@@YAXAEBQEA_W0@Z 0000000140004bd0 f i Logger.obj
 0001:00003bd0       ??$_Adl_verify_range@PEA_WPEB_W@std@@YAXAEBQEA_WAEBQEB_W@Z 0000000140004bd0 f i Logger.obj
 0001:00003bd0       ??$_Adl_verify_range@PEBDPEBD@std@@YAXAEBQEBD0@Z 0000000140004bd0 f i Logger.obj
 0001:00003bd0       ??$_Adl_verify_range@PEB_WPEB_W@std@@YAXAEBQEB_W0@Z 0000000140004bd0 f i Logger.obj
 0001:00003c50       ??$_Allocate_at_least_helper@V?$allocator@D@std@@@std@@YAPEADAEAV?$allocator@D@0@AEA_K@Z 0000000140004c50 f i Logger.obj
 0001:00003c80       ??$_Allocate_for_capacity@$0A@@?$basic_string@DU?$char_traits@D@std@@V?$allocator@D@2@@std@@CAPEADAEAV?$allocator@D@1@AEA_K@Z 0000000140004c80 f i Logger.obj
 0001:00003ce0       ??$_Bit_cast@_KT_Addr_storage@error_category@std@@$0A@@std@@YA_KAEBT_Addr_storage@error_category@0@@Z 0000000140004ce0 f i Logger.obj
 0001:00003ce0       ReadNoFence64              0000000140004ce0 f i LIBCMTD:guard_support.obj
 0001:00003d00       ??$_Construct@$00PEBD@?$basic_string@DU?$char_traits@D@std@@V?$allocator@D@2@@std@@AEAAXQEBD_K@Z 0000000140004d00 f i Logger.obj
 0001:00003ed0       ??$_Construct@$01PEBD@?$basic_string@DU?$char_traits@D@std@@V?$allocator@D@2@@std@@AEAAXQEBD_K@Z 0000000140004ed0 f i Logger.obj
 0001:00004070       ??$_Construct@$0A@_W@?$basic_string@_WU?$char_traits@_W@std@@V?$allocator@_W@2@@std@@AEAAX_W_K@Z 0000000140005070 f i Logger.obj
 0001:00004260       ??$_Fgetc@_W@std@@YA_NAEA_WPEAU_iobuf@@@Z 0000000140005260 f i Logger.obj
 0001:000042b0       ??$_Float_put_desired_precision@N@std@@YAH_JH@Z 00000001400052b0 f i Logger.obj
 0001:000042b0       ??$_Float_put_desired_precision@O@std@@YAH_JH@Z 00000001400052b0 f i Logger.obj
 0001:00004350       ??$_Fput_v3@$0A@@?$num_put@_WV?$ostreambuf_iterator@_WU?$char_traits@_W@std@@@std@@@std@@AEBA?AV?$ostreambuf_iterator@_WU?$char_traits@_W@std@@@1@V21@AEAVios_base@1@_WPEBD_K_N@Z 0000000140005350 f i Logger.obj
 0001:00004b10       ??$_Fputc@_W@std@@YA_N_WPEAU_iobuf@@@Z 0000000140005b10 f i Logger.obj
 0001:00004b60       ??$_Get_index@$0A@@id@locale@std@@QEAA_KXZ 0000000140005b60 f i Logger.obj
 0001:00004bd0       ??$_Get_size_of_n@$00@std@@YA_K_K@Z 0000000140005bd0 f i Logger.obj
 0001:00004bf0       ??$_Immortalize_memcpy_image@V_Iostream_error_category2@std@@@std@@YAAEBV_Iostream_error_category2@0@XZ 0000000140005bf0 f i Logger.obj
 0001:00004c00       ??$_Insert_string@_WU?$char_traits@_W@std@@_K@std@@YAAEAV?$basic_ostream@_WU?$char_traits@_W@std@@@0@AEAV10@QEB_W_K@Z 0000000140005c00 f i Logger.obj
 0001:00004f00       ??$_Maklocchr@_W@std@@YA_WDPEA_WAEBU_Cvtvec@@@Z 0000000140005f00 f i Logger.obj
 0001:00004f60       ??$_Maklocstr@D@std@@YAPEADPEBDPEADAEBU_Cvtvec@@@Z 0000000140005f60 f i Logger.obj
 0001:00005020       ??$_Maklocstr@_W@std@@YAPEA_WPEBDPEA_WAEBU_Cvtvec@@@Z 0000000140006020 f i Logger.obj
 0001:00005200       ??$_Pocma@V?$allocator@_W@std@@@std@@YAXAEAV?$allocator@_W@0@0@Z 0000000140006200 f i Logger.obj
 0001:00005220       ??$_Reallocate_for@V<lambda_3fa8b2c8193a0f3144fc4b1b8f243931>@@PEB_W@?$basic_string@_WU?$char_traits@_W@std@@V?$allocator@_W@2@@std@@AEAAAEAV01@_KV<lambda_3fa8b2c8193a0f3144fc4b1b8f243931>@@PEB_W@Z 0000000140006220 f i Logger.obj
 0001:00005330       ??$_Reallocate_grow_by@V<lambda_1dfe18491bcca09701d8ccb01d0b0af4>@@PEB_W_K@?$basic_string@_WU?$char_traits@_W@std@@V?$allocator@_W@2@@std@@AEAAAEAV01@_KV<lambda_1dfe18491bcca09701d8ccb01d0b0af4>@@PEB_W_K@Z 0000000140006330 f i Logger.obj
 0001:00005500       ??$_Reallocate_grow_by@V<lambda_319d5e083f45f90dcdce5dce53cbb275>@@D@?$basic_string@DU?$char_traits@D@std@@V?$allocator@D@2@@std@@AEAAAEAV01@_KV<lambda_319d5e083f45f90dcdce5dce53cbb275>@@D@Z 0000000140006500 f i Logger.obj
 0001:000056b0       ??$_Reallocate_grow_by@V<lambda_51c4cb9729979bd953fe6d1bff5c73b0>@@_K_K_W@?$basic_string@_WU?$char_traits@_W@std@@V?$allocator@_W@2@@std@@AEAAAEAV01@_KV<lambda_51c4cb9729979bd953fe6d1bff5c73b0>@@_K2_W@Z 00000001400066b0 f i Logger.obj
 0001:000058b0       ??$_Reallocate_grow_by@V<lambda_65e615be2a453ca0576c979606f46740>@@PEBD_K@?$basic_string@DU?$char_traits@D@std@@V?$allocator@D@2@@std@@AEAAAEAV01@_KV<lambda_65e615be2a453ca0576c979606f46740>@@PEBD_K@Z 00000001400068b0 f i Logger.obj
 0001:00005a80       ??$_Reallocate_grow_by@V<lambda_e1befb086ad3257e3f042a63030725f7>@@_KD@?$basic_string@DU?$char_traits@D@std@@V?$allocator@D@2@@std@@AEAAAEAV01@_KV<lambda_e1befb086ad3257e3f042a63030725f7>@@_KD@Z 0000000140006a80 f i Logger.obj
 0001:00005c50       ??$_Ungetc@_W@std@@YA_NAEB_WPEAU_iobuf@@@Z 0000000140006c50 f i Logger.obj
 0001:00005ca0       ??$isfinite@N@@YA_NN@Z     0000000140006ca0 f i Logger.obj
 0001:00005ce0       ??$isfinite@O@@YA_NO@Z     0000000140006ce0 f i Logger.obj
 0001:00005d20       ??$min@_J@std@@YAAEB_JAEB_J0@Z 0000000140006d20 f i Logger.obj
 0001:00005d70       ??$setfill@_W@std@@YA?AU?$_Fillobj@_W@0@_W@Z 0000000140006d70 f i Logger.obj
 0001:00005da0       ??$use_facet@V?$codecvt@_WDU_Mbstatet@@@std@@@std@@YAAEBV?$codecvt@_WDU_Mbstatet@@@0@AEBVlocale@0@@Z 0000000140006da0 f i Logger.obj
 0001:00005eb0       ??$use_facet@V?$ctype@_W@std@@@std@@YAAEBV?$ctype@_W@0@AEBVlocale@0@@Z 0000000140006eb0 f i Logger.obj
 0001:00005fc0       ??$use_facet@V?$num_put@_WV?$ostreambuf_iterator@_WU?$char_traits@_W@std@@@std@@@std@@@std@@YAAEBV?$num_put@_WV?$ostreambuf_iterator@_WU?$char_traits@_W@std@@@std@@@0@AEBVlocale@0@@Z 0000000140006fc0 f i Logger.obj
 0001:000060d0       ??$use_facet@V?$numpunct@_W@std@@@std@@YAAEBV?$numpunct@_W@0@AEBVlocale@0@@Z 00000001400070d0 f i Logger.obj
 0001:000061e0       ??0?$_Fillobj@_W@std@@QEAA@_W@Z 00000001400071e0 f i Logger.obj
 0001:00006200       ??0?$_Yarn@D@std@@QEAA@XZ  0000000140007200 f i Logger.obj
 0001:00006220       ??0?$_Yarn@_W@std@@QEAA@XZ 0000000140007220 f i Logger.obj
 0001:00006250       ??0?$basic_filebuf@_WU?$char_traits@_W@std@@@std@@QEAA@XZ 0000000140007250 f i Logger.obj
 0001:00006290       ??0?$basic_ios@_WU?$char_traits@_W@std@@@std@@IEAA@XZ 0000000140007290 f i Logger.obj
 0001:000062f0       ??0?$basic_iostream@_WU?$char_traits@_W@std@@@std@@QEAA@PEAV?$basic_streambuf@_WU?$char_traits@_W@std@@@1@@Z 00000001400072f0 f i Logger.obj
 0001:000063d0       ??0?$basic_istream@_WU?$char_traits@_W@std@@@std@@QEAA@PEAV?$basic_streambuf@_WU?$char_traits@_W@std@@@1@_N@Z 00000001400073d0 f i Logger.obj
 0001:000064b0       ??0?$basic_ofstream@_WU?$char_traits@_W@std@@@std@@QEAA@PEB_WHH@Z 00000001400074b0 f i Logger.obj
 0001:000065e0       ??0?$basic_ostream@_WU?$char_traits@_W@std@@@std@@QEAA@PEAV?$basic_streambuf@_WU?$char_traits@_W@std@@@1@_N@Z 00000001400075e0 f i Logger.obj
 0001:000066b0       ??0?$basic_ostream@_WU?$char_traits@_W@std@@@std@@QEAA@W4_Uninitialized@1@_N@Z 00000001400076b0 f i Logger.obj
 0001:00006790       ??0?$basic_streambuf@_WU?$char_traits@_W@std@@@std@@IEAA@XZ 0000000140007790 f i Logger.obj
 0001:000068a0       ??0?$basic_string@DU?$char_traits@D@std@@V?$allocator@D@2@@std@@QEAA@$$QEAV01@@Z 00000001400078a0 f i Logger.obj
 0001:00006920       ??0?$basic_string@DU?$char_traits@D@std@@V?$allocator@D@2@@std@@QEAA@AEBV01@@Z 0000000140007920 f i Logger.obj
 0001:00006990       ??0?$basic_string@DU?$char_traits@D@std@@V?$allocator@D@2@@std@@QEAA@QEBD@Z 0000000140007990 f i Logger.obj
 0001:000069e0       ??0?$basic_string@DU?$char_traits@D@std@@V?$allocator@D@2@@std@@QEAA@QEBD_K@Z 00000001400079e0 f i Logger.obj
 0001:00006a30       ??0?$basic_string@DU?$char_traits@D@std@@V?$allocator@D@2@@std@@QEAA@XZ 0000000140007a30 f i Logger.obj
 0001:00006a70       ??0?$basic_string@_WU?$char_traits@_W@std@@V?$allocator@_W@2@@std@@QEAA@$$QEAV01@@Z 0000000140007a70 f i Logger.obj
 0001:00006af0       ??0?$basic_string@_WU?$char_traits@_W@std@@V?$allocator@_W@2@@std@@QEAA@AEBV?$allocator@_W@1@@Z 0000000140007af0 f i Logger.obj
 0001:00006b30       ??0?$basic_string@_WU?$char_traits@_W@std@@V?$allocator@_W@2@@std@@QEAA@U_String_constructor_concat_tag@1@AEBV01@QEB_W_K23@Z 0000000140007b30 f i Logger.obj
 0001:00006d10       ??0?$basic_string@_WU?$char_traits@_W@std@@V?$allocator@_W@2@@std@@QEAA@XZ 0000000140007d10 f i Logger.obj
 0001:00006d50       ??0?$basic_string@_WU?$char_traits@_W@std@@V?$allocator@_W@2@@std@@QEAA@_K_W@Z 0000000140007d50 f i Logger.obj
 0001:00006da0       ??0?$basic_stringbuf@_WU?$char_traits@_W@std@@V?$allocator@_W@2@@std@@QEAA@H@Z 0000000140007da0 f i Logger.obj
 0001:00006e00       ??0?$basic_stringstream@_WU?$char_traits@_W@std@@V?$allocator@_W@2@@std@@QEAA@XZ 0000000140007e00 f i Logger.obj
 0001:00006ee0       ??0?$codecvt@_WDU_Mbstatet@@@std@@QEAA@AEBV_Locinfo@1@_K@Z 0000000140007ee0 f i Logger.obj
 0001:00006f30       ??0?$ctype@_W@std@@QEAA@AEBV_Locinfo@1@_K@Z 0000000140007f30 f i Logger.obj
 0001:00006f80       ??0?$fpos@U_Mbstatet@@@std@@QEAA@U_Mbstatet@@_J@Z 0000000140007f80 f i Logger.obj
 0001:00006fc0       ??0?$fpos@U_Mbstatet@@@std@@QEAA@_J@Z 0000000140007fc0 f i Logger.obj
 0001:00007010       ??0?$num_put@_WV?$ostreambuf_iterator@_WU?$char_traits@_W@std@@@std@@@std@@QEAA@AEBV_Locinfo@1@_K@Z 0000000140008010 f i Logger.obj
 0001:00007060       ??0?$numpunct@_W@std@@QEAA@AEBV_Locinfo@1@_K_N@Z 0000000140008060 f i Logger.obj
 0001:000070c0       ??0?$ostreambuf_iterator@_WU?$char_traits@_W@std@@@std@@QEAA@PEAV?$basic_streambuf@_WU?$char_traits@_W@std@@@1@@Z 00000001400080c0 f i Logger.obj
 0001:000070f0       ??0_Facet_base@std@@QEAA@XZ 00000001400080f0 f i Logger.obj
 0001:00007110       ??0_Locinfo@std@@QEAA@PEBD@Z 0000000140008110 f i Logger.obj
 0001:000071d0       ??0_Sentry_base@?$basic_ostream@_WU?$char_traits@_W@std@@@std@@QEAA@AEAV12@@Z 00000001400081d0 f i Logger.obj
 0001:00007240       ??0_System_error@std@@IEAA@Verror_code@1@AEBV?$basic_string@DU?$char_traits@D@std@@V?$allocator@D@2@@1@@Z 0000000140008240 f i Logger.obj
 0001:00007340       ??0_System_error@std@@QEAA@AEBV01@@Z 0000000140008340 f i Logger.obj
 0001:000073a0       ??0bad_cast@std@@QEAA@AEBV01@@Z 00000001400083a0 f i Logger.obj
 0001:000073e0       ??0bad_cast@std@@QEAA@XZ   00000001400083e0 f i Logger.obj
 0001:00007420       ??0codecvt_base@std@@QEAA@_K@Z 0000000140008420 f i Logger.obj
 0001:00007460       ??0ctype_base@std@@QEAA@_K@Z 0000000140008460 f i Logger.obj
 0001:000074a0       ??0error_code@std@@QEAA@HAEBVerror_category@1@@Z 00000001400084a0 f i Logger.obj
 0001:000074a0       ??0error_condition@std@@QEAA@HAEBVerror_category@1@@Z 00000001400084a0 f i Logger.obj
 0001:000074d0       ??0exception@std@@QEAA@QEBD@Z 00000001400084d0 f i Logger.obj
 0001:00007540       ??0facet@locale@std@@IEAA@_K@Z 0000000140008540 f i Logger.obj
 0001:00007580       ??0failure@ios_base@std@@QEAA@AEBV012@@Z 0000000140008580 f i Logger.obj
 0001:000075c0       ??0failure@ios_base@std@@QEAA@PEBDAEBVerror_code@2@@Z 00000001400085c0 f i Logger.obj
 0001:00007620       ??0ios_base@std@@IEAA@XZ   0000000140008620 f i Logger.obj
 0001:000076b0       ??0locale@std@@QEAA@AEBV01@@Z 00000001400086b0 f i Logger.obj
 0001:00007700       ??0locale@std@@QEAA@XZ     0000000140008700 f i Logger.obj
 0001:00007730       ??0runtime_error@std@@QEAA@AEBV01@@Z 0000000140008730 f i Logger.obj
 0001:00007770       ??0runtime_error@std@@QEAA@AEBV?$basic_string@DU?$char_traits@D@std@@V?$allocator@D@2@@1@@Z 0000000140008770 f i Logger.obj
 0001:000077b0       ??0sentry@?$basic_ostream@_WU?$char_traits@_W@std@@@std@@QEAA@AEAV12@@Z 00000001400087b0 f i Logger.obj
 0001:00007890       ??0system_error@std@@QEAA@AEBV01@@Z 0000000140008890 f i Logger.obj
 0001:000078d0       ??0system_error@std@@QEAA@Verror_code@1@PEBD@Z 00000001400088d0 f i Logger.obj
 0001:00007970       ??1?$_Tidy_guard@V?$numpunct@_W@std@@@std@@QEAA@XZ 0000000140008970 f i Logger.obj
 0001:000079a0       ??1?$_Yarn@D@std@@QEAA@XZ  00000001400089a0 f i Logger.obj
 0001:000079a0       ??1?$_Yarn@_W@std@@QEAA@XZ 00000001400089a0 f i Logger.obj
 0001:000079c0       ??1?$basic_filebuf@_WU?$char_traits@_W@std@@@std@@UEAA@XZ 00000001400089c0 f i Logger.obj
 0001:00007a20       ??1?$basic_ios@_WU?$char_traits@_W@std@@@std@@UEAA@XZ 0000000140008a20 f i Logger.obj
 0001:00007a50       ??1?$basic_iostream@_WU?$char_traits@_W@std@@@std@@UEAA@XZ 0000000140008a50 f i Logger.obj
 0001:00007ad0       ??1?$basic_istream@_WU?$char_traits@_W@std@@@std@@UEAA@XZ 0000000140008ad0 f i Logger.obj
 0001:00007b20       ??1?$basic_ofstream@_WU?$char_traits@_W@std@@@std@@UEAA@XZ 0000000140008b20 f i Logger.obj
 0001:00007bb0       ??1?$basic_ostream@_WU?$char_traits@_W@std@@@std@@UEAA@XZ 0000000140008bb0 f i Logger.obj
 0001:00007c00       ??1?$basic_streambuf@_WU?$char_traits@_W@std@@@std@@UEAA@XZ 0000000140008c00 f i Logger.obj
 0001:00007c60       ??1?$basic_string@DU?$char_traits@D@std@@V?$allocator@D@2@@std@@QEAA@XZ 0000000140008c60 f i Logger.obj
 0001:00007cd0       ??1?$basic_stringbuf@_WU?$char_traits@_W@std@@V?$allocator@_W@2@@std@@UEAA@XZ 0000000140008cd0 f i Logger.obj
 0001:00007d10       ??1?$basic_stringstream@_WU?$char_traits@_W@std@@V?$allocator@_W@2@@std@@UEAA@XZ 0000000140008d10 f i Logger.obj
 0001:00007da0       ??1?$codecvt@_WDU_Mbstatet@@@std@@MEAA@XZ 0000000140008da0 f i Logger.obj
 0001:00007dd0       ??1?$ctype@_W@std@@MEAA@XZ 0000000140008dd0 f i Logger.obj
 0001:00007e30       ??1?$num_put@_WV?$ostreambuf_iterator@_WU?$char_traits@_W@std@@@std@@@std@@MEAA@XZ 0000000140008e30 f i Logger.obj
 0001:00007e60       ??1?$numpunct@_W@std@@MEAA@XZ 0000000140008e60 f i Logger.obj
 0001:00007ea0       ??1?$unique_ptr@V_Facet_base@std@@U?$default_delete@V_Facet_base@std@@@2@@std@@QEAA@XZ 0000000140008ea0 f i Logger.obj
 0001:00007ee0       ??1_Facet_base@std@@UEAA@XZ 0000000140008ee0 f i Logger.obj
 0001:00007f00       ??1_Iostream_error_category2@std@@UEAA@XZ 0000000140008f00 f i Logger.obj
 0001:00007f20       ??1_Locinfo@std@@QEAA@XZ   0000000140008f20 f i Logger.obj
 0001:00007fb0       ??1_Sentry_base@?$basic_ostream@_WU?$char_traits@_W@std@@@std@@QEAA@XZ 0000000140008fb0 f i Logger.obj
 0001:00008010       ??1codecvt_base@std@@UEAA@XZ 0000000140009010 f i Logger.obj
 0001:00008040       ??1ctype_base@std@@UEAA@XZ 0000000140009040 f i Logger.obj
 0001:00008070       ??1facet@locale@std@@MEAA@XZ 0000000140009070 f i Logger.obj
 0001:000080a0       ??1failure@ios_base@std@@UEAA@XZ 00000001400090a0 f i Logger.obj
 0001:000080c0       ??1ios_base@std@@UEAA@XZ   00000001400090c0 f i Logger.obj
 0001:000080f0       ??1locale@std@@QEAA@XZ     00000001400090f0 f i Logger.obj
 0001:00008160       ??1sentry@?$basic_ostream@_WU?$char_traits@_W@std@@@std@@QEAA@XZ 0000000140009160 f i Logger.obj
 0001:000081c0       ??1system_error@std@@UEAA@XZ 00000001400091c0 f i Logger.obj
 0001:000081e0       ??2_Crt_new_delete@std@@SAPEAX_K@Z 00000001400091e0 f i Logger.obj
 0001:00008220       ??2_Crt_new_delete@std@@SAPEAX_KAEBUnothrow_t@1@@Z 0000000140009220 f i Logger.obj
 0001:00008270       ??3_Crt_new_delete@std@@SAXPEAX@Z 0000000140009270 f i Logger.obj
 0001:00008290       ??4?$basic_string@_WU?$char_traits@_W@std@@V?$allocator@_W@2@@std@@QEAAAEAV01@$$QEAV01@@Z 0000000140009290 f i Logger.obj
 0001:00008310       ??4?$ostreambuf_iterator@_WU?$char_traits@_W@std@@@std@@QEAAAEAV01@_W@Z 0000000140009310 f i Logger.obj
 0001:00008370       ??6?$basic_ostream@_WU?$char_traits@_W@std@@@std@@QEAAAEAV01@G@Z 0000000140009370 f i Logger.obj
 0001:00008540       ??6?$basic_ostream@_WU?$char_traits@_W@std@@@std@@QEAAAEAV01@K@Z 0000000140009540 f i Logger.obj
 0001:00008710       ??6?$basic_ostream@_WU?$char_traits@_W@std@@@std@@QEAAAEAV01@P6AAEAVios_base@1@AEAV21@@Z@Z 0000000140009710 f i Logger.obj
 0001:00008750       ??8error_category@std@@QEBA_NAEBV01@@Z 0000000140009750 f i Logger.obj
 0001:000087b0       ??8std@@YA_NAEBVerror_condition@0@0@Z 00000001400097b0 f i Logger.obj
 0001:00008830       ??A?$basic_string@DU?$char_traits@D@std@@V?$allocator@D@2@@std@@QEAAAEAD_K@Z 0000000140009830 f i Logger.obj
 0001:000088c0       ??A?$basic_string@DU?$char_traits@D@std@@V?$allocator@D@2@@std@@QEBAAEBD_K@Z 00000001400098c0 f i Logger.obj
 0001:00008950       ??A?$basic_string@_WU?$char_traits@_W@std@@V?$allocator@_W@2@@std@@QEAAAEA_W_K@Z 0000000140009950 f i Logger.obj
 0001:000089e0       ??B?$fpos@U_Mbstatet@@@std@@QEBA_JXZ 00000001400099e0 f i Logger.obj
 0001:00008a00       ??Bsentry@?$basic_ostream@_WU?$char_traits@_W@std@@@std@@QEBA_NXZ 0000000140009a00 f i Logger.obj
 0001:00008a10       ??R<lambda_1dfe18491bcca09701d8ccb01d0b0af4>@@QEBA@QEA_WQEB_W_K12@Z 0000000140009a10 f i Logger.obj
 0001:00008a90       ??R<lambda_319d5e083f45f90dcdce5dce53cbb275>@@QEBA@QEADQEBD_KD@Z 0000000140009a90 f i Logger.obj
 0001:00008b10       ??R<lambda_3fa8b2c8193a0f3144fc4b1b8f243931>@@QEBA@QEA_W_KQEB_W@Z 0000000140009b10 f i Logger.obj
 0001:00008b70       ??R<lambda_51c4cb9729979bd953fe6d1bff5c73b0>@@QEBA@QEA_WQEB_W_K22_W@Z 0000000140009b70 f i Logger.obj
 0001:00008c20       ??R<lambda_65e615be2a453ca0576c979606f46740>@@QEBA@QEADQEBD_K12@Z 0000000140009c20 f i Logger.obj
 0001:00008cb0       ??R<lambda_e1befb086ad3257e3f042a63030725f7>@@QEBA@QEADQEBD_K2D@Z 0000000140009cb0 f i Logger.obj
 0001:00008d40       ??R?$default_delete@V_Facet_base@std@@@std@@QEBAXPEAV_Facet_base@1@@Z 0000000140009d40 f i Logger.obj
 0001:00008d90       ??_D?$basic_iostream@_WU?$char_traits@_W@std@@@std@@QEAAXXZ 0000000140009d90 f i Logger.obj
 0001:00008dd0       ??_D?$basic_istream@_WU?$char_traits@_W@std@@@std@@QEAAXXZ 0000000140009dd0 f i Logger.obj
 0001:00008e10       ??_D?$basic_ofstream@_WU?$char_traits@_W@std@@@std@@QEAAXXZ 0000000140009e10 f i Logger.obj
 0001:00008e50       ??_D?$basic_ostream@_WU?$char_traits@_W@std@@@std@@QEAAXXZ 0000000140009e50 f i Logger.obj
 0001:00008e90       ??_D?$basic_stringstream@_WU?$char_traits@_W@std@@V?$allocator@_W@2@@std@@QEAAXXZ 0000000140009e90 f i Logger.obj
 0001:00008ec8       ??_E?$basic_iostream@_WU?$char_traits@_W@std@@@std@@$4PPPPPPPM@A@EAAPEAXI@Z 0000000140009ec8 f i Logger.obj
 0001:00008ed4       ??_E?$basic_istream@_WU?$char_traits@_W@std@@@std@@$4PPPPPPPM@A@EAAPEAXI@Z 0000000140009ed4 f i Logger.obj
 0001:00008ee0       ??_E?$basic_ofstream@_WU?$char_traits@_W@std@@@std@@$4PPPPPPPM@A@EAAPEAXI@Z 0000000140009ee0 f i Logger.obj
 0001:00008eec       ??_E?$basic_ostream@_WU?$char_traits@_W@std@@@std@@$4PPPPPPPM@A@EAAPEAXI@Z 0000000140009eec f i Logger.obj
 0001:00008ef8       ??_E?$basic_stringstream@_WU?$char_traits@_W@std@@V?$allocator@_W@2@@std@@$4PPPPPPPM@A@EAAPEAXI@Z 0000000140009ef8 f i Logger.obj
 0001:00008f10       ??_E?$basic_filebuf@_WU?$char_traits@_W@std@@@std@@UEAAPEAXI@Z 0000000140009f10 f i Logger.obj
 0001:00008f10       ??_G?$basic_filebuf@_WU?$char_traits@_W@std@@@std@@UEAAPEAXI@Z 0000000140009f10 f i Logger.obj
 0001:00008f50       ??_E?$basic_ios@_WU?$char_traits@_W@std@@@std@@UEAAPEAXI@Z 0000000140009f50 f i Logger.obj
 0001:00008f50       ??_G?$basic_ios@_WU?$char_traits@_W@std@@@std@@UEAAPEAXI@Z 0000000140009f50 f i Logger.obj
 0001:00008f90       ??_E?$basic_iostream@_WU?$char_traits@_W@std@@@std@@UEAAPEAXI@Z 0000000140009f90 f i Logger.obj
 0001:00008f90       ??_G?$basic_iostream@_WU?$char_traits@_W@std@@@std@@UEAAPEAXI@Z 0000000140009f90 f i Logger.obj
 0001:00008fe0       ??_E?$basic_istream@_WU?$char_traits@_W@std@@@std@@UEAAPEAXI@Z 0000000140009fe0 f i Logger.obj
 0001:00008fe0       ??_G?$basic_istream@_WU?$char_traits@_W@std@@@std@@UEAAPEAXI@Z 0000000140009fe0 f i Logger.obj
 0001:00009030       ??_E?$basic_ofstream@_WU?$char_traits@_W@std@@@std@@UEAAPEAXI@Z 000000014000a030 f i Logger.obj
 0001:00009030       ??_G?$basic_ofstream@_WU?$char_traits@_W@std@@@std@@UEAAPEAXI@Z 000000014000a030 f i Logger.obj
 0001:00009090       ??_E?$basic_ostream@_WU?$char_traits@_W@std@@@std@@UEAAPEAXI@Z 000000014000a090 f i Logger.obj
 0001:00009090       ??_G?$basic_ostream@_WU?$char_traits@_W@std@@@std@@UEAAPEAXI@Z 000000014000a090 f i Logger.obj
 0001:000090e0       ??_E?$basic_streambuf@_WU?$char_traits@_W@std@@@std@@UEAAPEAXI@Z 000000014000a0e0 f i Logger.obj
 0001:000090e0       ??_G?$basic_streambuf@_WU?$char_traits@_W@std@@@std@@UEAAPEAXI@Z 000000014000a0e0 f i Logger.obj
 0001:00009120       ??_E?$basic_stringbuf@_WU?$char_traits@_W@std@@V?$allocator@_W@2@@std@@UEAAPEAXI@Z 000000014000a120 f i Logger.obj
 0001:00009120       ??_G?$basic_stringbuf@_WU?$char_traits@_W@std@@V?$allocator@_W@2@@std@@UEAAPEAXI@Z 000000014000a120 f i Logger.obj
 0001:00009160       ??_E?$basic_stringstream@_WU?$char_traits@_W@std@@V?$allocator@_W@2@@std@@UEAAPEAXI@Z 000000014000a160 f i Logger.obj
 0001:00009160       ??_G?$basic_stringstream@_WU?$char_traits@_W@std@@V?$allocator@_W@2@@std@@UEAAPEAXI@Z 000000014000a160 f i Logger.obj
 0001:000091c0       ??_E?$codecvt@_WDU_Mbstatet@@@std@@MEAAPEAXI@Z 000000014000a1c0 f i Logger.obj
 0001:000091c0       ??_G?$codecvt@_WDU_Mbstatet@@@std@@MEAAPEAXI@Z 000000014000a1c0 f i Logger.obj
 0001:00009220       ??_E?$ctype@_W@std@@MEAAPEAXI@Z 000000014000a220 f i Logger.obj
 0001:00009220       ??_G?$ctype@_W@std@@MEAAPEAXI@Z 000000014000a220 f i Logger.obj
 0001:00009280       ??_E?$num_put@_WV?$ostreambuf_iterator@_WU?$char_traits@_W@std@@@std@@@std@@MEAAPEAXI@Z 000000014000a280 f i Logger.obj
 0001:00009280       ??_G?$num_put@_WV?$ostreambuf_iterator@_WU?$char_traits@_W@std@@@std@@@std@@MEAAPEAXI@Z 000000014000a280 f i Logger.obj
 0001:000092e0       ??_E?$numpunct@_W@std@@MEAAPEAXI@Z 000000014000a2e0 f i Logger.obj
 0001:000092e0       ??_G?$numpunct@_W@std@@MEAAPEAXI@Z 000000014000a2e0 f i Logger.obj
 0001:00009340       ??_E_Facet_base@std@@UEAAPEAXI@Z 000000014000a340 f i Logger.obj
 0001:00009340       ??_G_Facet_base@std@@UEAAPEAXI@Z 000000014000a340 f i Logger.obj
 0001:00009380       ??_E_Iostream_error_category2@std@@UEAAPEAXI@Z 000000014000a380 f i Logger.obj
 0001:00009380       ??_G_Iostream_error_category2@std@@UEAAPEAXI@Z 000000014000a380 f i Logger.obj
 0001:000093c0       ??_E_System_error@std@@UEAAPEAXI@Z 000000014000a3c0 f i Logger.obj
 0001:000093c0       ??_G_System_error@std@@UEAAPEAXI@Z 000000014000a3c0 f i Logger.obj
 0001:00009400       ??_Ecodecvt_base@std@@UEAAPEAXI@Z 000000014000a400 f i Logger.obj
 0001:00009400       ??_Gcodecvt_base@std@@UEAAPEAXI@Z 000000014000a400 f i Logger.obj
 0001:00009460       ??_Ectype_base@std@@UEAAPEAXI@Z 000000014000a460 f i Logger.obj
 0001:00009460       ??_Gctype_base@std@@UEAAPEAXI@Z 000000014000a460 f i Logger.obj
 0001:000094c0       ??_Efacet@locale@std@@MEAAPEAXI@Z 000000014000a4c0 f i Logger.obj
 0001:000094c0       ??_Gfacet@locale@std@@MEAAPEAXI@Z 000000014000a4c0 f i Logger.obj
 0001:00009520       ??_Efailure@ios_base@std@@UEAAPEAXI@Z 000000014000a520 f i Logger.obj
 0001:00009520       ??_Gfailure@ios_base@std@@UEAAPEAXI@Z 000000014000a520 f i Logger.obj
 0001:00009560       ??_Eios_base@std@@UEAAPEAXI@Z 000000014000a560 f i Logger.obj
 0001:00009560       ??_Gios_base@std@@UEAAPEAXI@Z 000000014000a560 f i Logger.obj
 0001:000095a0       ??_Glocale@std@@QEAAPEAXI@Z 000000014000a5a0 f i Logger.obj
 0001:00009600       ??_Esystem_error@std@@UEAAPEAXI@Z 000000014000a600 f i Logger.obj
 0001:00009600       ??_Gsystem_error@std@@UEAAPEAXI@Z 000000014000a600 f i Logger.obj
 0001:00009640       ?_C_str@locale@std@@QEBAPEBDXZ 000000014000a640 f i Logger.obj
 0001:00009690       ?_Calculate_growth@?$basic_string@DU?$char_traits@D@std@@V?$allocator@D@2@@std@@AEBA_K_K@Z 000000014000a690 f i Logger.obj
 0001:000096d0       ?_Calculate_growth@?$basic_string@DU?$char_traits@D@std@@V?$allocator@D@2@@std@@CA_K_K00@Z 000000014000a6d0 f i Logger.obj
 0001:00009770       ?_Calculate_growth@?$basic_string@_WU?$char_traits@_W@std@@V?$allocator@_W@2@@std@@AEBA_K_K@Z 000000014000a770 f i Logger.obj
 0001:000097b0       ?_Check_offset@?$_String_val@U?$_Simple_types@D@std@@@std@@QEBAX_K@Z 000000014000a7b0 f i Logger.obj
 0001:000097b0       ?_Check_offset@?$_String_val@U?$_Simple_types@_W@std@@@std@@QEBAX_K@Z 000000014000a7b0 f i Logger.obj
 0001:000097e0       ?_Clamp_suffix_size@?$_String_val@U?$_Simple_types@D@std@@@std@@QEBA_K_K0@Z 000000014000a7e0 f i Logger.obj
 0001:000097e0       ?_Clamp_suffix_size@?$_String_val@U?$_Simple_types@_W@std@@@std@@QEBA_K_K0@Z 000000014000a7e0 f i TaskbarProperties.obj
 0001:00009820       ?_Construct_empty@?$basic_string@DU?$char_traits@D@std@@V?$allocator@D@2@@std@@AEAAXXZ 000000014000a820 f i Logger.obj
 0001:000098b0       ?_Construct_empty@?$basic_string@_WU?$char_traits@_W@std@@V?$allocator@_W@2@@std@@AEAAXXZ 000000014000a8b0 f i Logger.obj
 0001:00009940       ?_Deallocate_for_capacity@?$basic_string@DU?$char_traits@D@std@@V?$allocator@D@2@@std@@CAXAEAV?$allocator@D@2@QEAD_K@Z 000000014000a940 f i Logger.obj
 0001:00009980       ?_Decref@facet@locale@std@@UEAAPEAV_Facet_base@3@XZ 000000014000a980 f i Logger.obj
 0001:000099b0       ?_Donarrow@?$ctype@_W@std@@IEBAD_WD@Z 000000014000a9b0 f i Logger.obj
 0001:00009a40       ?_Dowiden@?$ctype@_W@std@@IEBA_WD@Z 000000014000aa40 f i Logger.obj
 0001:00009ab0       ?_Endwrite@?$basic_filebuf@_WU?$char_traits@_W@std@@@std@@IEAA_NXZ 000000014000aab0 f i Logger.obj
 0001:00009c60       ?_Eos@?$basic_string@DU?$char_traits@D@std@@V?$allocator@D@2@@std@@AEAAX_K@Z 000000014000ac60 f i Logger.obj
 0001:00009cb0       ?_Erase_noexcept@?$basic_string@DU?$char_traits@D@std@@V?$allocator@D@2@@std@@AEAAAEAV12@_K_K@Z 000000014000acb0 f i Logger.obj
 0001:00009d80       ?_Ffmt@?$num_put@_WV?$ostreambuf_iterator@_WU?$char_traits@_W@std@@@std@@@std@@AEBAPEADPEADDH@Z 000000014000ad80 f i Logger.obj
 0001:00009ef0       ?_Get_buffer_view@?$basic_stringbuf@_WU?$char_traits@_W@std@@V?$allocator@_W@2@@std@@QEBA?AU_Buffer_view@12@XZ 000000014000aef0 f i Logger.obj
 0001:0000a020       ?_Getcat@?$codecvt@_WDU_Mbstatet@@@std@@SA_KPEAPEBVfacet@locale@2@PEBV42@@Z 000000014000b020 f i Logger.obj
 0001:0000a110       ?_Getcat@?$ctype@_W@std@@SA_KPEAPEBVfacet@locale@2@PEBV42@@Z 000000014000b110 f i Logger.obj
 0001:0000a200       ?_Getcat@?$num_put@_WV?$ostreambuf_iterator@_WU?$char_traits@_W@std@@@std@@@std@@SA_KPEAPEBVfacet@locale@2@PEBV42@@Z 000000014000b200 f i Logger.obj
 0001:0000a2f0       ?_Getcat@?$numpunct@_W@std@@SA_KPEAPEBVfacet@locale@2@PEBV42@@Z 000000014000b2f0 f i Logger.obj
 0001:0000a3e0       ?_Getctype@_Locinfo@std@@QEBA?AU_Ctypevec@@XZ 000000014000b3e0 f i Logger.obj
 0001:0000a440       ?_Getcvt@_Locinfo@std@@QEBA?AU_Cvtvec@@XZ 000000014000b440 f i Logger.obj
 0001:0000a4c0       ?_Getfacet@locale@std@@QEBAPEBVfacet@12@_K@Z 000000014000b4c0 f i Logger.obj
 0001:0000a570       ?_Getfalse@_Locinfo@std@@QEBAPEBDXZ 000000014000b570 f i Logger.obj
 0001:0000a580       ?_Getlconv@_Locinfo@std@@QEBAPEBUlconv@@XZ 000000014000b580 f i Logger.obj
 0001:0000a5a0       ?_Getstate@?$basic_stringbuf@_WU?$char_traits@_W@std@@V?$allocator@_W@2@@std@@CAHH@Z 000000014000b5a0 f i Logger.obj
 0001:0000a610       ?_Gettrue@_Locinfo@std@@QEBAPEBDXZ 000000014000b610 f i Logger.obj
 0001:0000a620       ?_Gnavail@?$basic_streambuf@_WU?$char_traits@_W@std@@@std@@IEBA_JXZ 000000014000b620 f i Logger.obj
 0001:0000a660       ?_Gndec@?$basic_streambuf@_WU?$char_traits@_W@std@@@std@@IEAAPEA_WXZ 000000014000b660 f i Logger.obj
 0001:0000a6b0       ?_Gninc@?$basic_streambuf@_WU?$char_traits@_W@std@@@std@@IEAAPEA_WXZ 000000014000b6b0 f i Logger.obj
 0001:0000a710       ?_Ifmt@?$num_put@_WV?$ostreambuf_iterator@_WU?$char_traits@_W@std@@@std@@@std@@AEBAPEADPEADPEBDH@Z 000000014000b710 f i Logger.obj
 0001:0000a8a0       ?_Incref@facet@locale@std@@UEAAXXZ 000000014000b8a0 f i Logger.obj
 0001:0000a8c0       ?_Init@?$basic_filebuf@_WU?$char_traits@_W@std@@@std@@IEAAXPEAU_iobuf@@W4_Initfl@12@@Z 000000014000b8c0 f i Logger.obj
 0001:0000a9f0       ?_Init@?$basic_streambuf@_WU?$char_traits@_W@std@@@std@@IEAAXPEAPEA_W0PEAH001@Z 000000014000b9f0 f i Logger.obj
 0001:0000aa60       ?_Init@?$basic_streambuf@_WU?$char_traits@_W@std@@@std@@IEAAXXZ 000000014000ba60 f i Logger.obj
 0001:0000ab00       ?_Init@?$codecvt@_WDU_Mbstatet@@@std@@IEAAXAEBV_Locinfo@2@@Z 000000014000bb00 f i Logger.obj
 0001:0000ab60       ?_Init@?$ctype@_W@std@@IEAAXAEBV_Locinfo@2@@Z 000000014000bb60 f i Logger.obj
 0001:0000abf0       ?_Init@?$numpunct@_W@std@@IEAAXAEBV_Locinfo@2@_N@Z 000000014000bbf0 f i Logger.obj
 0001:0000adc0       ?_Init@ios_base@std@@IEAAXXZ 000000014000bdc0 f i Logger.obj
 0001:0000ae80       ?_Initcvt@?$basic_filebuf@_WU?$char_traits@_W@std@@@std@@IEAAXAEBV?$codecvt@_WDU_Mbstatet@@@2@@Z 000000014000be80 f i Logger.obj
 0001:0000aee0       ?_Iput@?$num_put@_WV?$ostreambuf_iterator@_WU?$char_traits@_W@std@@@std@@@std@@AEBA?AV?$ostreambuf_iterator@_WU?$char_traits@_W@std@@@2@V32@AEAVios_base@2@_WPEAD_K@Z 000000014000bee0 f i Logger.obj
 0001:0000b590       ?_Large_mode_engaged@?$_String_val@U?$_Simple_types@D@std@@@std@@QEBA_NXZ 000000014000c590 f i Logger.obj
 0001:0000b5c0       ?_Lock@?$basic_filebuf@_WU?$char_traits@_W@std@@@std@@UEAAXXZ 000000014000c5c0 f i Logger.obj
 0001:0000b5f0       ?_Makestr@_System_error@std@@CA?AV?$basic_string@DU?$char_traits@D@std@@V?$allocator@D@2@@2@Verror_code@2@V32@@Z 000000014000c5f0 f i Logger.obj
 0001:0000b6d0       ?_Myptr@?$_String_val@U?$_Simple_types@D@std@@@std@@QEAAPEADXZ 000000014000c6d0 f i Logger.obj
 0001:0000b6d0       ?_Myptr@?$_String_val@U?$_Simple_types@D@std@@@std@@QEBAPEBDXZ 000000014000c6d0 f i Logger.obj
 0001:0000b720       ?_Myptr@?$_String_val@U?$_Simple_types@_W@std@@@std@@QEAAPEA_WXZ 000000014000c720 f i Logger.obj
 0001:0000b720       ?_Myptr@?$_String_val@U?$_Simple_types@_W@std@@@std@@QEBAPEB_WXZ 000000014000c720 f i Logger.obj
 0001:0000b770       ?_Osfx@?$basic_ostream@_WU?$char_traits@_W@std@@@std@@QEAAXXZ 000000014000c770 f i Logger.obj
 0001:0000b830       ?_Pnavail@?$basic_streambuf@_WU?$char_traits@_W@std@@@std@@IEBA_JXZ 000000014000c830 f i Logger.obj
 0001:0000b870       ?_Pninc@?$basic_streambuf@_WU?$char_traits@_W@std@@@std@@IEAAPEA_WXZ 000000014000c870 f i Logger.obj
 0001:0000b8d0       ?_Put@?$num_put@_WV?$ostreambuf_iterator@_WU?$char_traits@_W@std@@@std@@@std@@AEBA?AV?$ostreambuf_iterator@_WU?$char_traits@_W@std@@@2@V32@PEB_W_K@Z 000000014000c8d0 f i Logger.obj
 0001:0000b960       ?_Rep@?$num_put@_WV?$ostreambuf_iterator@_WU?$char_traits@_W@std@@@std@@@std@@AEBA?AV?$ostreambuf_iterator@_WU?$char_traits@_W@std@@@2@V32@_W_K@Z 000000014000c960 f i Logger.obj
 0001:0000b9e0       ?_Reset_back@?$basic_filebuf@_WU?$char_traits@_W@std@@@std@@AEAAXXZ 000000014000c9e0 f i Logger.obj
 0001:0000ba40       ?_Set_back@?$basic_filebuf@_WU?$char_traits@_W@std@@@std@@AEAAXXZ 000000014000ca40 f i Logger.obj
 0001:0000bac0       ?_Swap_proxy_and_iterators@?$basic_string@DU?$char_traits@D@std@@V?$allocator@D@2@@std@@AEAAXAEAV12@@Z 000000014000cac0 f i Logger.obj
 0001:0000bac0       ?_Swap_proxy_and_iterators@?$basic_string@_WU?$char_traits@_W@std@@V?$allocator@_W@2@@std@@AEAAXAEAV12@@Z 000000014000cac0 f i Logger.obj
 0001:0000baf0       ?_Swap_proxy_and_iterators@_Container_base12@std@@QEAAXAEAU12@@Z 000000014000caf0 f i Logger.obj
 0001:0000bb20       ?_Swap_proxy_and_iterators_locked@_Container_base12@std@@AEAAXAEAU12@@Z 000000014000cb20 f i Logger.obj
 0001:0000bb60       ?_Swap_proxy_and_iterators_unlocked@_Container_base12@std@@AEAAXAEAU12@@Z 000000014000cb60 f i Logger.obj
 0001:0000bbe0       ?_Take_contents@?$basic_string@DU?$char_traits@D@std@@V?$allocator@D@2@@std@@AEAAXAEAV12@@Z 000000014000cbe0 f i Logger.obj
 0001:0000bdd0       ?_Take_contents@?$basic_string@_WU?$char_traits@_W@std@@V?$allocator@_W@2@@std@@AEAAXAEAV12@@Z 000000014000cdd0 f i Logger.obj
 0001:0000bfc0       ?_Throw_bad_cast@std@@YAXXZ 000000014000cfc0 f i Logger.obj
 0001:0000bff0       ?_Tidy@?$_Yarn@D@std@@AEAAXXZ 000000014000cff0 f i Logger.obj
 0001:0000bff0       ?_Tidy@?$_Yarn@_W@std@@AEAAXXZ 000000014000cff0 f i Logger.obj
 0001:0000c030       ?_Tidy@?$basic_stringbuf@_WU?$char_traits@_W@std@@V?$allocator@_W@2@@std@@IEAAXXZ 000000014000d030 f i Logger.obj
 0001:0000c110       ?_Tidy@?$numpunct@_W@std@@AEAAXXZ 000000014000d110 f i Logger.obj
 0001:0000c150       ?_Tidy_deallocate@?$basic_string@DU?$char_traits@D@std@@V?$allocator@D@2@@std@@AEAAXXZ 000000014000d150 f i Logger.obj
 0001:0000c210       ?_Unlock@?$basic_filebuf@_WU?$char_traits@_W@std@@@std@@UEAAXXZ 000000014000d210 f i Logger.obj
 0001:0000c240       ?_Xran@?$_String_val@U?$_Simple_types@D@std@@@std@@SAXXZ 000000014000d240 f i Logger.obj
 0001:0000c240       ?_Xran@?$_String_val@U?$_Simple_types@_W@std@@@std@@SAXXZ 000000014000d240 f i Logger.obj
 0001:0000c260       ?allocate@?$allocator@D@std@@QEAAPEAD_K@Z 000000014000d260 f i Logger.obj
 0001:0000c290       ?always_noconv@codecvt_base@std@@QEBA_NXZ 000000014000d290 f i Logger.obj
 0001:0000c290       ?decimal_point@?$numpunct@_W@std@@QEBA_WXZ 000000014000d290 f i Logger.obj
 0001:0000c2b0       ?append@?$basic_string@DU?$char_traits@D@std@@V?$allocator@D@2@@std@@QEAAAEAV12@AEBV12@@Z 000000014000d2b0 f i Logger.obj
 0001:0000c2f0       ?append@?$basic_string@DU?$char_traits@D@std@@V?$allocator@D@2@@std@@QEAAAEAV12@QEBD@Z 000000014000d2f0 f i Logger.obj
 0001:0000c330       ?append@?$basic_string@DU?$char_traits@D@std@@V?$allocator@D@2@@std@@QEAAAEAV12@QEBD_K@Z 000000014000d330 f i Logger.obj
 0001:0000c430       ?append@?$basic_string@DU?$char_traits@D@std@@V?$allocator@D@2@@std@@QEAAAEAV12@_KD@Z 000000014000d430 f i Logger.obj
 0001:0000c530       ?append@?$basic_string@_WU?$char_traits@_W@std@@V?$allocator@_W@2@@std@@QEAAAEAV12@QEB_W@Z 000000014000d530 f i Logger.obj
 0001:0000c570       ?append@?$basic_string@_WU?$char_traits@_W@std@@V?$allocator@_W@2@@std@@QEAAAEAV12@QEB_W_K@Z 000000014000d570 f i Logger.obj
 0001:0000c670       ?assign@?$_Narrow_char_traits@DH@std@@SAPEADQEAD_KD@Z 000000014000d670 f i Logger.obj
 0001:0000c6a0       ?assign@?$_Narrow_char_traits@DH@std@@SAXAEADAEBD@Z 000000014000d6a0 f i Logger.obj
 0001:0000c6c0       ?assign@?$_WChar_traits@_W@std@@SAPEA_WQEA_W_K_W@Z 000000014000d6c0 f i Logger.obj
 0001:0000c6f0       ?assign@?$basic_string@_WU?$char_traits@_W@std@@V?$allocator@_W@2@@std@@QEAAAEAV12@$$QEAV12@@Z 000000014000d6f0 f i Logger.obj
 0001:0000c720       ?assign@?$basic_string@_WU?$char_traits@_W@std@@V?$allocator@_W@2@@std@@QEAAAEAV12@QEB_W_K@Z 000000014000d720 f i Logger.obj
 0001:0000c7e0       ?_C_str@?$_Yarn@D@std@@QEBAPEBDXZ 000000014000d7e0 f i libcpmtd:locale0.obj
 0001:0000c7e0       ?c_str@?$_Yarn@D@std@@QEBAPEBDXZ 000000014000d7e0 f i Logger.obj
 0001:0000c820       ?c_str@?$basic_string@DU?$char_traits@D@std@@V?$allocator@D@2@@std@@QEBAPEBDXZ 000000014000d820 f i Logger.obj
 0001:0000c820       ?data@?$basic_string@DU?$char_traits@D@std@@V?$allocator@D@2@@std@@QEBAPEBDXZ 000000014000d820 f i Logger.obj
 0001:0000c840       ?c_str@?$basic_string@_WU?$char_traits@_W@std@@V?$allocator@_W@2@@std@@QEBAPEB_WXZ 000000014000d840 f i Logger.obj
 0001:0000c840       ?data@?$basic_string@_WU?$char_traits@_W@std@@V?$allocator@_W@2@@std@@QEBAPEB_WXZ 000000014000d840 f i Logger.obj
 0001:0000c860       ?GetHwnd@StartButton@@QEBAPEAUHWND__@@XZ 000000014000d860 f i TaskbarWindow.obj
 0001:0000c860       ?category@error_code@std@@QEBAAEBVerror_category@2@XZ 000000014000d860 f i Logger.obj
 0001:0000c860       ?category@error_condition@std@@QEBAAEBVerror_category@2@XZ 000000014000d860 f i Logger.obj
 0001:0000c870       ?clear@?$basic_ios@_WU?$char_traits@_W@std@@@std@@QEAAXH_N@Z 000000014000d870 f i Logger.obj
 0001:0000c8d0       ?clear@ios_base@std@@QEAAXH@Z 000000014000d8d0 f i Logger.obj
 0001:0000c900       ?clear@ios_base@std@@QEAAXH_N@Z 000000014000d900 f i Logger.obj
 0001:0000c9f0       ?close@?$basic_filebuf@_WU?$char_traits@_W@std@@@std@@QEAAPEAV12@XZ 000000014000d9f0 f i Logger.obj
 0001:0000ca80       ?copy@?$_Char_traits@DH@std@@SAPEADQEADQEBD_K@Z 000000014000da80 f i Logger.obj
 0001:0000ca80       ?move@?$_Char_traits@DH@std@@SAPEADQEADQEBD_K@Z 000000014000da80 f i Logger.obj
 0001:0000cac0       ?deallocate@?$allocator@D@std@@QEAAXQEAD_K@Z 000000014000dac0 f i Logger.obj
 0001:0000cb50       ?default_error_condition@error_category@std@@UEBA?AVerror_condition@2@H@Z 000000014000db50 f i Logger.obj
 0001:0000cb80       ?do_always_noconv@?$codecvt@_WDU_Mbstatet@@@std@@MEBA_NXZ 000000014000db80 f i Logger.obj
 0001:0000cb80       ?do_always_noconv@codecvt_base@std@@MEBA_NXZ 000000014000db80 f i Logger.obj
 0001:0000cb80       ?should_skip_normal_state_processing@?$standard_base@DV?$string_output_adapter@D@__crt_stdio_output@@@__crt_stdio_output@@IEAA_NXZ 000000014000db80 f i libucrtd:output.obj
 0001:0000cb80       ?should_skip_normal_state_processing@?$standard_base@_WV?$stream_output_adapter@_W@__crt_stdio_output@@@__crt_stdio_output@@IEAA_NXZ 000000014000db80 f i libucrtd:output.obj
 0001:0000cb80       ?should_skip_normal_state_processing@?$standard_base@_WV?$string_output_adapter@_W@__crt_stdio_output@@@__crt_stdio_output@@IEAA_NXZ 000000014000db80 f i libucrtd:output.obj
 0001:0000cb80       ?should_skip_type_state_output@?$standard_base@DV?$string_output_adapter@D@__crt_stdio_output@@@__crt_stdio_output@@IEBA_NXZ 000000014000db80 f i libucrtd:output.obj
 0001:0000cb80       ?should_skip_type_state_output@?$standard_base@_WV?$stream_output_adapter@_W@__crt_stdio_output@@@__crt_stdio_output@@IEBA_NXZ 000000014000db80 f i libucrtd:output.obj
 0001:0000cb80       ?should_skip_type_state_output@?$standard_base@_WV?$string_output_adapter@_W@__crt_stdio_output@@@__crt_stdio_output@@IEBA_NXZ 000000014000db80 f i libucrtd:output.obj
 0001:0000cb90       ?do_decimal_point@?$numpunct@_W@std@@MEBA_WXZ 000000014000db90 f i Logger.obj
 0001:0000cba0       ?do_encoding@?$codecvt@_WDU_Mbstatet@@@std@@MEBAHXZ 000000014000dba0 f i Logger.obj
 0001:0000cbd0       ?do_encoding@codecvt_base@std@@MEBAHXZ 000000014000dbd0 f i Logger.obj
 0001:0000cbd0       ?do_max_length@codecvt_base@std@@MEBAHXZ 000000014000dbd0 f i Logger.obj
 0001:0000cbe0       ?do_falsename@?$numpunct@_W@std@@MEBA?AV?$basic_string@_WU?$char_traits@_W@std@@V?$allocator@_W@2@@2@XZ 000000014000dbe0 f i Logger.obj
 0001:0000cc20       ?do_grouping@?$numpunct@_W@std@@MEBA?AV?$basic_string@DU?$char_traits@D@std@@V?$allocator@D@2@@2@XZ 000000014000dc20 f i Logger.obj
 0001:0000cc60       ?do_in@?$codecvt@_WDU_Mbstatet@@@std@@MEBAHAEAU_Mbstatet@@PEBD1AEAPEBDPEA_W3AEAPEA_W@Z 000000014000dc60 f i Logger.obj
 0001:0000cdc0       ?do_is@?$ctype@_W@std@@MEBAPEB_WPEB_W0PEAF@Z 000000014000ddc0 f i Logger.obj
 0001:0000ce10       ?do_is@?$ctype@_W@std@@MEBA_NF_W@Z 000000014000de10 f i Logger.obj
 0001:0000ce70       ?do_length@?$codecvt@_WDU_Mbstatet@@@std@@MEBAHAEAU_Mbstatet@@PEBD1_K@Z 000000014000de70 f i Logger.obj
 0001:0000cf70       ?do_max_length@?$codecvt@_WDU_Mbstatet@@@std@@MEBAHXZ 000000014000df70 f i Logger.obj
 0001:0000cf80       ?do_narrow@?$ctype@_W@std@@MEBAD_WD@Z 000000014000df80 f i Logger.obj
 0001:0000cfb0       ?do_narrow@?$ctype@_W@std@@MEBAPEB_WPEB_W0DPEAD@Z 000000014000dfb0 f i Logger.obj
 0001:0000d030       ?do_out@?$codecvt@_WDU_Mbstatet@@@std@@MEBAHAEAU_Mbstatet@@PEB_W1AEAPEB_WPEAD3AEAPEAD@Z 000000014000e030 f i Logger.obj
 0001:0000d260       ?do_put@?$num_put@_WV?$ostreambuf_iterator@_WU?$char_traits@_W@std@@@std@@@std@@MEBA?AV?$ostreambuf_iterator@_WU?$char_traits@_W@std@@@2@V32@AEAVios_base@2@_WJ@Z 000000014000e260 f i Logger.obj
 0001:0000d350       ?do_put@?$num_put@_WV?$ostreambuf_iterator@_WU?$char_traits@_W@std@@@std@@@std@@MEBA?AV?$ostreambuf_iterator@_WU?$char_traits@_W@std@@@2@V32@AEAVios_base@2@_WK@Z 000000014000e350 f i Logger.obj
 0001:0000d440       ?do_put@?$num_put@_WV?$ostreambuf_iterator@_WU?$char_traits@_W@std@@@std@@@std@@MEBA?AV?$ostreambuf_iterator@_WU?$char_traits@_W@std@@@2@V32@AEAVios_base@2@_WN@Z 000000014000e440 f i Logger.obj
 0001:0000d710       ?do_put@?$num_put@_WV?$ostreambuf_iterator@_WU?$char_traits@_W@std@@@std@@@std@@MEBA?AV?$ostreambuf_iterator@_WU?$char_traits@_W@std@@@2@V32@AEAVios_base@2@_WO@Z 000000014000e710 f i Logger.obj
 0001:0000d9e0       ?do_put@?$num_put@_WV?$ostreambuf_iterator@_WU?$char_traits@_W@std@@@std@@@std@@MEBA?AV?$ostreambuf_iterator@_WU?$char_traits@_W@std@@@2@V32@AEAVios_base@2@_WPEBX@Z 000000014000e9e0 f i Logger.obj
 0001:0000dab0       ?do_put@?$num_put@_WV?$ostreambuf_iterator@_WU?$char_traits@_W@std@@@std@@@std@@MEBA?AV?$ostreambuf_iterator@_WU?$char_traits@_W@std@@@2@V32@AEAVios_base@2@_W_J@Z 000000014000eab0 f i Logger.obj
 0001:0000dba0       ?do_put@?$num_put@_WV?$ostreambuf_iterator@_WU?$char_traits@_W@std@@@std@@@std@@MEBA?AV?$ostreambuf_iterator@_WU?$char_traits@_W@std@@@2@V32@AEAVios_base@2@_W_K@Z 000000014000eba0 f i Logger.obj
 0001:0000dc90       ?do_put@?$num_put@_WV?$ostreambuf_iterator@_WU?$char_traits@_W@std@@@std@@@std@@MEBA?AV?$ostreambuf_iterator@_WU?$char_traits@_W@std@@@2@V32@AEAVios_base@2@_W_N@Z 000000014000ec90 f i Logger.obj
 0001:0000e010       ?do_scan_is@?$ctype@_W@std@@MEBAPEB_WFPEB_W0@Z 000000014000f010 f i Logger.obj
 0001:0000e080       ?do_scan_not@?$ctype@_W@std@@MEBAPEB_WFPEB_W0@Z 000000014000f080 f i Logger.obj
 0001:0000e0f0       ?do_thousands_sep@?$numpunct@_W@std@@MEBA_WXZ 000000014000f0f0 f i Logger.obj
 0001:0000e100       ?do_tolower@?$ctype@_W@std@@MEBAPEB_WPEA_WPEB_W@Z 000000014000f100 f i Logger.obj
 0001:0000e170       ?do_tolower@?$ctype@_W@std@@MEBA_W_W@Z 000000014000f170 f i Logger.obj
 0001:0000e1a0       ?do_toupper@?$ctype@_W@std@@MEBAPEB_WPEA_WPEB_W@Z 000000014000f1a0 f i Logger.obj
 0001:0000e210       ?do_toupper@?$ctype@_W@std@@MEBA_W_W@Z 000000014000f210 f i Logger.obj
 0001:0000e240       ?do_truename@?$numpunct@_W@std@@MEBA?AV?$basic_string@_WU?$char_traits@_W@std@@V?$allocator@_W@2@@2@XZ 000000014000f240 f i Logger.obj
 0001:0000e280       ?do_unshift@?$codecvt@_WDU_Mbstatet@@@std@@MEBAHAEAU_Mbstatet@@PEAD1AEAPEAD@Z 000000014000f280 f i Logger.obj
 0001:0000e3a0       ?do_widen@?$ctype@_W@std@@MEBAPEBDPEBD0PEA_W@Z 000000014000f3a0 f i Logger.obj
 0001:0000e420       ?do_widen@?$ctype@_W@std@@MEBA_WD@Z 000000014000f420 f i Logger.obj
 0001:0000e450       ?eback@?$basic_streambuf@_WU?$char_traits@_W@std@@@std@@IEBAPEA_WXZ 000000014000f450 f i Logger.obj
 0001:0000e470       ?egptr@?$basic_streambuf@_WU?$char_traits@_W@std@@@std@@IEBAPEA_WXZ 000000014000f470 f i Logger.obj
 0001:0000e4a0       ?empty@?$basic_string@DU?$char_traits@D@std@@V?$allocator@D@2@@std@@QEBA_NXZ 000000014000f4a0 f i Logger.obj
 0001:0000e4a0       ?empty@?$basic_string@_WU?$char_traits@_W@std@@V?$allocator@_W@2@@std@@QEBA_NXZ 000000014000f4a0 f i TaskbarWindow.obj
 0001:0000e4d0       ?eof@?$_WChar_traits@_W@std@@SAGXZ 000000014000f4d0 f i Logger.obj
 0001:0000e4e0       ?epptr@?$basic_streambuf@_WU?$char_traits@_W@std@@@std@@IEBAPEA_WXZ 000000014000f4e0 f i Logger.obj
 0001:0000e510       ?eq@?$_WChar_traits@_W@std@@SA_N_W0@Z 000000014000f510 f i Logger.obj
 0001:0000e510       ?eq_int_type@?$_WChar_traits@_W@std@@SA_NGG@Z 000000014000f510 f i Logger.obj
 0001:0000e550       ?equivalent@error_category@std@@UEBA_NAEBVerror_code@2@H@Z 000000014000f550 f i Logger.obj
 0001:0000e5b0       ?equivalent@error_category@std@@UEBA_NHAEBVerror_condition@2@@Z 000000014000f5b0 f i Logger.obj
 0001:0000e5f0       ?erase@?$basic_string@DU?$char_traits@D@std@@V?$allocator@D@2@@std@@QEAAAEAV12@_K0@Z 000000014000f5f0 f i Logger.obj
 0001:0000e630       ?failed@?$ostreambuf_iterator@_WU?$char_traits@_W@std@@@std@@QEBA_NXZ 000000014000f630 f i Logger.obj
 0001:0000e640       ?falsename@?$numpunct@_W@std@@QEBA?AV?$basic_string@_WU?$char_traits@_W@std@@V?$allocator@_W@2@@2@XZ 000000014000f640 f i Logger.obj
 0001:0000e680       ?fill@?$basic_ios@_WU?$char_traits@_W@std@@@std@@QEAA_W_W@Z 000000014000f680 f i Logger.obj
 0001:0000e6c0       ?fill@?$basic_ios@_WU?$char_traits@_W@std@@@std@@QEBA_WXZ 000000014000f6c0 f i Logger.obj
 0001:0000e6d0       ?GetMonitorIndex@StartButton@@QEBAHXZ 000000014000f6d0 f i StartButton.obj
 0001:0000e6d0       ?flags@ios_base@std@@QEBAHXZ 000000014000f6d0 f i Logger.obj
 0001:0000e6e0       ?flush@?$basic_ostream@_WU?$char_traits@_W@std@@@std@@QEAAAEAV12@XZ 000000014000f6e0 f i Logger.obj
 0001:0000e7a0       ?fpclassify@@YAHN@Z        000000014000f7a0 f i Logger.obj
 0001:0000e7c0       ?fpclassify@@YAHO@Z        000000014000f7c0 f i Logger.obj
 0001:0000e7e0       ?front@?$basic_string@DU?$char_traits@D@std@@V?$allocator@D@2@@std@@QEAAAEADXZ 000000014000f7e0 f i Logger.obj
 0001:0000e870       ?gbump@?$basic_streambuf@_WU?$char_traits@_W@std@@@std@@IEAAXH@Z 000000014000f870 f i Logger.obj
 0001:0000e8c0       ?getloc@?$basic_streambuf@_WU?$char_traits@_W@std@@@std@@QEBA?AVlocale@2@XZ 000000014000f8c0 f i Logger.obj
 0001:0000e8f0       ?getloc@ios_base@std@@QEBA?AVlocale@2@XZ 000000014000f8f0 f i Logger.obj
 0001:0000e920       ?good@ios_base@std@@QEBA_NXZ 000000014000f920 f i Logger.obj
 0001:0000e960       ?gptr@?$basic_streambuf@_WU?$char_traits@_W@std@@@std@@IEBAPEA_WXZ 000000014000f960 f i Logger.obj
 0001:0000e980       ?grouping@?$numpunct@_W@std@@QEBA?AV?$basic_string@DU?$char_traits@D@std@@V?$allocator@D@2@@2@XZ 000000014000f980 f i Logger.obj
 0001:0000e9c0       ?hex@std@@YAAEAVios_base@1@AEAV21@@Z 000000014000f9c0 f i Logger.obj
 0001:0000e9f0       ?imbue@?$basic_filebuf@_WU?$char_traits@_W@std@@@std@@MEAAXAEBVlocale@2@@Z 000000014000f9f0 f i Logger.obj
 0001:0000ea20       ?in@?$codecvt@_WDU_Mbstatet@@@std@@QEBAHAEAU_Mbstatet@@PEBD1AEAPEBDPEA_W3AEAPEA_W@Z 000000014000fa20 f i Logger.obj
 0001:0000ea90       ?init@?$basic_ios@_WU?$char_traits@_W@std@@@std@@IEAAXPEAV?$basic_streambuf@_WU?$char_traits@_W@std@@@2@_N@Z 000000014000fa90 f i Logger.obj
 0001:0000eb20       ?insert@?$basic_string@_WU?$char_traits@_W@std@@V?$allocator@_W@2@@std@@QEAAAEAV12@_K0_W@Z 000000014000fb20 f i Logger.obj
 0001:0000ec50       ?iostream_category@std@@YAAEBVerror_category@1@XZ 000000014000fc50 f i Logger.obj
 0001:0000ec60       ?is@?$ctype@_W@std@@QEBA_NF_W@Z 000000014000fc60 f i Logger.obj
 0001:0000eca0       ?is_open@?$basic_filebuf@_WU?$char_traits@_W@std@@@std@@QEBA_NXZ 000000014000fca0 f i Logger.obj
 0001:0000ecd0       ?is_open@?$basic_ofstream@_WU?$char_traits@_W@std@@@std@@QEBA_NXZ 000000014000fcd0 f i Logger.obj
 0001:0000ecf0       ??$tcslen@AEAY0BAF@D@?$__crt_char_traits@D@@SA_KAEAY0BAF@D@Z 000000014000fcf0 f i libucrtd:dbgrpt.obj
 0001:0000ecf0       ?length@?$_Narrow_char_traits@DH@std@@SA_KQEBD@Z 000000014000fcf0 f i Logger.obj
 0001:0000ed10       ?make_error_code@std@@YA?AVerror_code@1@W4io_errc@1@@Z 000000014000fd10 f i Logger.obj
 0001:0000ed40       ?max_size@?$_Default_allocator_traits@V?$allocator@D@std@@@std@@SA_KAEBV?$allocator@D@2@@Z 000000014000fd40 f i Logger.obj
 0001:0000ed50       ?max_size@?$basic_string@DU?$char_traits@D@std@@V?$allocator@D@2@@std@@QEBA_KXZ 000000014000fd50 f i Logger.obj
 0001:0000edc0       ?message@_Iostream_error_category2@std@@UEBA?AV?$basic_string@DU?$char_traits@D@std@@V?$allocator@D@2@@2@H@Z 000000014000fdc0 f i Logger.obj
 0001:0000ee50       ?message@error_code@std@@QEBA?AV?$basic_string@DU?$char_traits@D@std@@V?$allocator@D@2@@2@XZ 000000014000fe50 f i Logger.obj
 0001:0000eec0       ?name@_Iostream_error_category2@std@@UEBAPEBDXZ 000000014000fec0 f i Logger.obj
 0001:0000eed0       ?not_eof@?$_WChar_traits@_W@std@@SAGG@Z 000000014000fed0 f i Logger.obj
 0001:0000ef40       ?open@?$basic_filebuf@_WU?$char_traits@_W@std@@@std@@QEAAPEAV12@PEB_WHH@Z 000000014000ff40 f i Logger.obj
 0001:0000f000       ?out@?$codecvt@_WDU_Mbstatet@@@std@@QEBAHAEAU_Mbstatet@@PEB_W1AEAPEB_WPEAD3AEAPEAD@Z 0000000140010000 f i Logger.obj
 0001:0000f070       ?overflow@?$basic_filebuf@_WU?$char_traits@_W@std@@@std@@MEAAGG@Z 0000000140010070 f i Logger.obj
 0001:0000f320       ?overflow@?$basic_streambuf@_WU?$char_traits@_W@std@@@std@@MEAAGG@Z 0000000140010320 f i Logger.obj
 0001:0000f320       ?pbackfail@?$basic_streambuf@_WU?$char_traits@_W@std@@@std@@MEAAGG@Z 0000000140010320 f i Logger.obj
 0001:0000f340       ?overflow@?$basic_stringbuf@_WU?$char_traits@_W@std@@V?$allocator@_W@2@@std@@MEAAGG@Z 0000000140010340 f i Logger.obj
 0001:0000f5e0       ?pbackfail@?$basic_filebuf@_WU?$char_traits@_W@std@@@std@@MEAAGG@Z 00000001400105e0 f i Logger.obj
 0001:0000f750       ?pbackfail@?$basic_stringbuf@_WU?$char_traits@_W@std@@V?$allocator@_W@2@@std@@MEAAGG@Z 0000000140010750 f i Logger.obj
 0001:0000f850       ?pbase@?$basic_streambuf@_WU?$char_traits@_W@std@@@std@@IEBAPEA_WXZ 0000000140010850 f i Logger.obj
 0001:0000f870       ?pbump@?$basic_streambuf@_WU?$char_traits@_W@std@@@std@@IEAAXH@Z 0000000140010870 f i Logger.obj
 0001:0000f8c0       ?pointer_to@?$pointer_traits@PEAU?$pair@$$CBU?$pair@PEAUHWND__@@I@std@@V?$basic_string@_WU?$char_traits@_W@std@@V?$allocator@_W@2@@2@@std@@@std@@SAPEAU?$pair@$$CBU?$pair@PEAUHWND__@@I@std@@V?$basic_string@_WU?$char_traits@_W@std@@V?$allocator@_W@2@@2@@2@AEAU32@@Z 00000001400108c0 f i TrayIconScraper.obj
 0001:0000f8c0       ?pointer_to@?$pointer_traits@PEAUTaskButtonInfo@@@std@@SAPEAUTaskButtonInfo@@AEAU3@@Z 00000001400108c0 f i TaskbarWindow.obj
 0001:0000f8c0       ?pointer_to@?$pointer_traits@PEA_W@std@@SAPEA_WAEA_W@Z 00000001400108c0 f i Logger.obj
 0001:0000f8e0       ?pptr@?$basic_streambuf@_WU?$char_traits@_W@std@@@std@@IEBAPEA_WXZ 00000001400108e0 f i Logger.obj
 0001:0000f900       ?precision@ios_base@std@@QEBA_JXZ 0000000140010900 f i Logger.obj
 0001:0000f900       ?size@?$__crt_win32_buffer@DU__crt_win32_buffer_no_resizing@@@@QEBA_KXZ 0000000140010900 f i libucrtd:strftime.obj
 0001:0000f910       ?pubsync@?$basic_streambuf@_WU?$char_traits@_W@std@@@std@@QEAAHXZ 0000000140010910 f i Logger.obj
 0001:0000f930       ?push_back@?$basic_string@DU?$char_traits@D@std@@V?$allocator@D@2@@std@@QEAAXD@Z 0000000140010930 f i Logger.obj
 0001:0000fa00       ?put@?$num_put@_WV?$ostreambuf_iterator@_WU?$char_traits@_W@std@@@std@@@std@@QEBA?AV?$ostreambuf_iterator@_WU?$char_traits@_W@std@@@2@V32@AEAVios_base@2@_WK@Z 0000000140010a00 f i Logger.obj
 0001:0000fa80       ?rdbuf@?$basic_ios@_WU?$char_traits@_W@std@@@std@@QEBAPEAV?$basic_streambuf@_WU?$char_traits@_W@std@@@2@XZ 0000000140010a80 f i Logger.obj
 0001:0000fa90       ?rdstate@ios_base@std@@QEBAHXZ 0000000140010a90 f i Logger.obj
 0001:0000faa0       ?release@?$unique_ptr@V_Facet_base@std@@U?$default_delete@V_Facet_base@std@@@2@@std@@QEAAPEAV_Facet_base@2@XZ 0000000140010aa0 f i Logger.obj
 0001:0000fad0       ?resize@?$basic_string@DU?$char_traits@D@std@@V?$allocator@D@2@@std@@QEAAX_KD@Z 0000000140010ad0 f i Logger.obj
 0001:0000fb40       ?seekoff@?$basic_filebuf@_WU?$char_traits@_W@std@@@std@@MEAA?AV?$fpos@U_Mbstatet@@@2@_JHH@Z 0000000140010b40 f i Logger.obj
 0001:0000fc40       ?seekoff@?$basic_streambuf@_WU?$char_traits@_W@std@@@std@@MEAA?AV?$fpos@U_Mbstatet@@@2@_JHH@Z 0000000140010c40 f i Logger.obj
 0001:0000fc40       ?seekpos@?$basic_streambuf@_WU?$char_traits@_W@std@@@std@@MEAA?AV?$fpos@U_Mbstatet@@@2@V32@H@Z 0000000140010c40 f i Logger.obj
 0001:0000fc80       ?seekoff@?$basic_stringbuf@_WU?$char_traits@_W@std@@V?$allocator@_W@2@@std@@MEAA?AV?$fpos@U_Mbstatet@@@2@_JHH@Z 0000000140010c80 f i Logger.obj
 0001:00010030       ?seekpos@?$basic_filebuf@_WU?$char_traits@_W@std@@@std@@MEAA?AV?$fpos@U_Mbstatet@@@2@V32@H@Z 0000000140011030 f i Logger.obj
 0001:000100f0       ?seekpos@?$basic_stringbuf@_WU?$char_traits@_W@std@@V?$allocator@_W@2@@std@@MEAA?AV?$fpos@U_Mbstatet@@@2@V32@H@Z 00000001400110f0 f i Logger.obj
 0001:00010350       ?setbuf@?$basic_filebuf@_WU?$char_traits@_W@std@@@std@@MEAAPEAV?$basic_streambuf@_WU?$char_traits@_W@std@@@2@PEA_W_J@Z 0000000140011350 f i Logger.obj
 0001:000103f0       ?setbuf@?$basic_streambuf@_WU?$char_traits@_W@std@@@std@@MEAAPEAV12@PEA_W_J@Z 00000001400113f0 f i Logger.obj
 0001:00010410       ?setf@ios_base@std@@QEAAHHH@Z 0000000140011410 f i Logger.obj
 0001:00010460       ?setg@?$basic_streambuf@_WU?$char_traits@_W@std@@@std@@IEAAXPEA_W00@Z 0000000140011460 f i Logger.obj
 0001:000104c0       ?setp@?$basic_streambuf@_WU?$char_traits@_W@std@@@std@@IEAAXPEA_W00@Z 00000001400114c0 f i Logger.obj
 0001:00010520       ?setp@?$basic_streambuf@_WU?$char_traits@_W@std@@@std@@IEAAXPEA_W0@Z 0000000140011520 f i Logger.obj
 0001:00010570       ?setstate@?$basic_ios@_WU?$char_traits@_W@std@@@std@@QEAAXH_N@Z 0000000140011570 f i Logger.obj
 0001:000105b0       ?getESTypes@__FrameHandler4@@SAPEBU_s_ESTypeList@@PEAUFuncInfo4@FH4@@@Z 00000001400115b0 f i libvcruntimed:frame.obj
 0001:000105b0       ?get_current_state_index@__crt_state_management@@YA_KAEBV__crt_scoped_get_last_error_reset@@@Z 00000001400115b0 f i libucrtd:invalid_parameter.obj
 0001:000105b0       ?showmanyc@?$basic_streambuf@_WU?$char_traits@_W@std@@@std@@MEAA_JXZ 00000001400115b0 f i Logger.obj
 0001:000105b0       ?sync@?$basic_streambuf@_WU?$char_traits@_W@std@@@std@@MEAAHXZ 00000001400115b0 f i Logger.obj
 0001:000105b0       _matherr                   00000001400115b0 f i LIBCMTD:matherr.obj
 0001:000105c0       ?capacity@?$__crt_win32_buffer@DU__crt_win32_buffer_internal_dynamic_resizing@@@@QEBA_KXZ 00000001400115c0 f i libucrtd:argv_wildcards.obj
 0001:000105c0       ?capacity@?$__crt_win32_buffer@DU__crt_win32_buffer_no_resizing@@@@QEBA_KXZ 00000001400115c0 f i libucrtd:strftime.obj
 0001:000105c0       ?capacity@?$__crt_win32_buffer@_WU__crt_win32_buffer_internal_dynamic_resizing@@@@QEBA_KXZ 00000001400115c0 f i libucrtd:strftime.obj
 0001:000105c0       ?length@?$basic_string@_WU?$char_traits@_W@std@@V?$allocator@_W@2@@std@@QEBA_KXZ 00000001400115c0 f i TaskbarProperties.obj
 0001:000105c0       ?size@?$basic_string@DU?$char_traits@D@std@@V?$allocator@D@2@@std@@QEBA_KXZ 00000001400115c0 f i Logger.obj
 0001:000105c0       ?size@?$basic_string@_WU?$char_traits@_W@std@@V?$allocator@_W@2@@std@@QEBA_KXZ 00000001400115c0 f i Logger.obj
 0001:000105d0       ?sputc@?$basic_streambuf@_WU?$char_traits@_W@std@@@std@@QEAAG_W@Z 00000001400115d0 f i Logger.obj
 0001:00010650       ?sputn@?$basic_streambuf@_WU?$char_traits@_W@std@@@std@@QEAA_JPEB_W_J@Z 0000000140011650 f i Logger.obj
 0001:00010690       ?state@?$fpos@U_Mbstatet@@@std@@QEBA?AU_Mbstatet@@XZ 0000000140011690 f i Logger.obj
 0001:000106c0       ?str@?$basic_stringbuf@_WU?$char_traits@_W@std@@V?$allocator@_W@2@@std@@QEBA?AV?$basic_string@_WU?$char_traits@_W@std@@V?$allocator@_W@2@@2@XZ 00000001400116c0 f i Logger.obj
 0001:00010770       ?str@?$basic_stringstream@_WU?$char_traits@_W@std@@V?$allocator@_W@2@@std@@QEBA?AV?$basic_string@_WU?$char_traits@_W@std@@V?$allocator@_W@2@@2@XZ 0000000140011770 f i Logger.obj
 0001:000107c0       ?sync@?$basic_filebuf@_WU?$char_traits@_W@std@@@std@@MEAAHXZ 00000001400117c0 f i Logger.obj
 0001:00010840       ?thousands_sep@?$numpunct@_W@std@@QEBA_WXZ 0000000140011840 f i Logger.obj
 0001:00010860       ?tie@?$basic_ios@_WU?$char_traits@_W@std@@@std@@QEBAPEAV?$basic_ostream@_WU?$char_traits@_W@std@@@2@XZ 0000000140011860 f i Logger.obj
 0001:00010870       ?to_char_type@?$_WChar_traits@_W@std@@SA_WG@Z 0000000140011870 f i Logger.obj
 0001:00010870       ?to_int_type@?$_WChar_traits@_W@std@@SAG_W@Z 0000000140011870 f i Logger.obj
 0001:00010880       ?truename@?$numpunct@_W@std@@QEBA?AV?$basic_string@_WU?$char_traits@_W@std@@V?$allocator@_W@2@@2@XZ 0000000140011880 f i Logger.obj
 0001:000108c0       ?uflow@?$basic_filebuf@_WU?$char_traits@_W@std@@@std@@MEAAGXZ 00000001400118c0 f i Logger.obj
 0001:00010c30       ?uflow@?$basic_streambuf@_WU?$char_traits@_W@std@@@std@@MEAAGXZ 0000000140011c30 f i Logger.obj
 0001:00010ca0       ?underflow@?$basic_filebuf@_WU?$char_traits@_W@std@@@std@@MEAAGXZ 0000000140011ca0 f i Logger.obj
 0001:00010d50       ?underflow@?$basic_streambuf@_WU?$char_traits@_W@std@@@std@@MEAAGXZ 0000000140011d50 f i Logger.obj
 0001:00010d70       ?underflow@?$basic_stringbuf@_WU?$char_traits@_W@std@@V?$allocator@_W@2@@std@@MEAAGXZ 0000000140011d70 f i Logger.obj
 0001:00010e80       ?unshift@?$codecvt@_WDU_Mbstatet@@@std@@QEBAHAEAU_Mbstatet@@PEAD1AEAPEAD@Z 0000000140011e80 f i Logger.obj
 0001:00010ed0       ?GetValue@Color@Gdiplus@@QEBAKXZ 0000000140011ed0 f i TaskbarWindow.obj
 0001:00010ed0       ?getNumTryBlocks@TryBlockMap4@FH4@@QEAAIXZ 0000000140011ed0 f i libvcruntimed:frame.obj
 0001:00010ed0       ?unsafe_value@?$cached@H@__crt_cached_ptd_host@@QEAAHXZ 0000000140011ed0 f i libucrtd:invalid_parameter.obj
 0001:00010ed0       ?unsafe_value@?$cached@K@__crt_cached_ptd_host@@QEAAKXZ 0000000140011ed0 f i libucrtd:invalid_parameter.obj
 0001:00010ed0       ?value@error_code@std@@QEBAHXZ 0000000140011ed0 f i Logger.obj
 0001:00010ed0       ?value@error_condition@std@@QEBAHXZ 0000000140011ed0 f i Logger.obj
 0001:00010ee0       ?widen@?$basic_ios@_WU?$char_traits@_W@std@@@std@@QEBA_WD@Z 0000000140011ee0 f i Logger.obj
 0001:00010f40       ?widen@?$ctype@_W@std@@QEBAPEBDPEBD0PEA_W@Z 0000000140011f40 f i Logger.obj
 0001:00010f80       ?widen@?$ctype@_W@std@@QEBA_WD@Z 0000000140011f80 f i Logger.obj
 0001:00010fb0       ?width@ios_base@std@@QEAA_J_J@Z 0000000140011fb0 f i Logger.obj
 0001:00010ff0       ?size@?$vector@_NV?$allocator@_N@std@@@std@@QEBA_KXZ 0000000140011ff0 f i TaskbarWindow.obj
 0001:00010ff0       ?width@ios_base@std@@QEBA_JXZ 0000000140011ff0 f i Logger.obj
 0001:00011000       ?xsgetn@?$basic_filebuf@_WU?$char_traits@_W@std@@@std@@MEAA_JPEA_W_J@Z 0000000140012000 f i Logger.obj
 0001:00011030       ?xsgetn@?$basic_streambuf@_WU?$char_traits@_W@std@@@std@@MEAA_JPEA_W_J@Z 0000000140012030 f i Logger.obj
 0001:00011160       ?xsputn@?$basic_filebuf@_WU?$char_traits@_W@std@@@std@@MEAA_JPEB_W_J@Z 0000000140012160 f i Logger.obj
 0001:00011190       ?xsputn@?$basic_streambuf@_WU?$char_traits@_W@std@@@std@@MEAA_JPEB_W_J@Z 0000000140012190 f i Logger.obj
 0001:000112c0       _vsprintf_s_l              00000001400122c0 f i Logger.obj
 0001:00011330       fabsl                      0000000140012330 f i Logger.obj
 0001:00011350       frexpl                     0000000140012350 f i Logger.obj
 0001:00011380       sprintf_s                  0000000140012380 f i Logger.obj
 0001:000113e0       wmemset                    00000001400123e0 f i Logger.obj
 0001:00011440       ?Initialize@TaskbarWindow@@YA_NPEAUHINSTANCE__@@@Z 0000000140012440 f   TaskbarWindow.obj
 0001:00013190       ?RunMessageLoop@TaskbarWindow@@YAXXZ 0000000140014190 f   TaskbarWindow.obj
 0001:000131f0       ?Cleanup@TaskbarWindow@@YAXXZ 00000001400141f0 f   TaskbarWindow.obj
 0001:00013690       ?UpdateTrayToolbarFromIndependent@@YAXPEAUTaskbarInstance@@@Z 0000000140014690 f   TaskbarWindow.obj
 0001:000137b0       ?UpdateTaskbarLayout@@YAXPEAUTaskbarInstance@@@Z 00000001400147b0 f   TaskbarWindow.obj
 0001:00014050       ?GetOrCreateTrayTooltip@@YAPEAUHWND__@@PEAU1@@Z 0000000140015050 f   TaskbarWindow.obj
 0001:000140f0       ?UpdateTooltipText@@YAXPEAUHWND__@@0AEBV?$basic_string@_WU?$char_traits@_W@std@@V?$allocator@_W@2@@std@@UtagPOINT@@@Z 00000001400150f0 f   TaskbarWindow.obj
 0001:00014230       ?HideTooltip@@YAXPEAUHWND__@@0@Z 0000000140015230 f   TaskbarWindow.obj
 0001:000142f0       ?TrayToolbarSubclassProc@@YA_JPEAUHWND__@@I_K_J11@Z 00000001400152f0 f   TaskbarWindow.obj
 0001:000148d0       ?GetIndependentTrayTooltip@@YA?AV?$basic_string@_WU?$char_traits@_W@std@@V?$allocator@_W@2@@std@@PEAUHWND__@@I@Z 00000001400158d0 f   TaskbarWindow.obj
 0001:000149b0       ?SysPagerSubclassProc@@YA_JPEAUHWND__@@I_K_J11@Z 00000001400159b0 f   TaskbarWindow.obj
 0001:00014ce0       ?GetWindowIconFix@@YAPEAUHICON__@@PEAUHWND__@@@Z 0000000140015ce0 f   TaskbarWindow.obj
 0001:00015410       ?StartNativeTaskbarSpoof@@YAXPEAUHWND__@@@Z 0000000140016410 f   TaskbarWindow.obj
 0001:000154e0       ?GetTaskbarInstance@@YAPEAUTaskbarInstance@@PEAUHWND__@@@Z 00000001400164e0 f   TaskbarWindow.obj
 0001:000155e0       ?ClockFlyoutWinEventProc@@YAXPEAUHWINEVENTHOOK__@@KPEAUHWND__@@JJKK@Z 00000001400165e0 f   TaskbarWindow.obj
 0001:00015770       ?ShowLegacyClockExperience@@YAHPEAUHWND__@@@Z 0000000140016770 f   TaskbarWindow.obj
 0001:00015960       ?PreviewWndProc@@YA_JPEAUHWND__@@I_K_J@Z 0000000140016960 f   TaskbarWindow.obj
 0001:00015f60       ?TaskSwitchSubclassProc@@YA_JPEAUHWND__@@I_K_J11@Z 0000000140016f60 f   TaskbarWindow.obj
 0001:00016810       ?AddTaskButton@@YAXAEAUTaskButtonInfo@@@Z 0000000140017810 f   TaskbarWindow.obj
 0001:00016ac0       ?SyncTaskbarButtonsAcrossMonitors@@YAXXZ 0000000140017ac0 f   TaskbarWindow.obj
 0001:00016e40       ?GetWindowMonitor@@YAPEAUHMONITOR__@@PEAUHWND__@@@Z 0000000140017e40 f   TaskbarWindow.obj
 0001:00016ef0       ?RemoveTaskButton@@YAXPEAUHWND__@@@Z 0000000140017ef0 f   TaskbarWindow.obj
 0001:00017050       ?UpdateTaskButtonActive@@YAXPEAUHWND__@@@Z 0000000140018050 f   TaskbarWindow.obj
 0001:00017210       ?SyncWindowsAcrossMonitors@@YAXXZ 0000000140018210 f   TaskbarWindow.obj
 0001:00017440       ?TrayFlyoutProc@@YA_JPEAUHWND__@@I_K_J@Z 0000000140018440 f   TaskbarWindow.obj
 0001:000179a0       ?TrayNotifyProc@@YA_JPEAUHWND__@@I_K_J@Z 00000001400189a0 f   TaskbarWindow.obj
 0001:00019220       ?TrayClockProc@@YA_JPEAUHWND__@@I_K_J@Z 000000014001a220 f   TaskbarWindow.obj
 0001:00019fd0       ?TrayShowDesktopButtonProc@@YA_JPEAUHWND__@@I_K_J@Z 000000014001afd0 f   TaskbarWindow.obj
 0001:0001a5c0       ?WindowProc@@YA_JPEAUHWND__@@I_K_J@Z 000000014001b5c0 f   TaskbarWindow.obj
 0001:0001de70       ?TaskbarMonitorEnumProc@@YAHPEAUHMONITOR__@@PEAUHDC__@@PEAUtagRECT@@_J@Z 000000014001ee70 f   TaskbarWindow.obj
 0001:0001e1d0       ?IsEliteTaskbarRunning@@YA_NXZ 000000014001f1d0 f   TaskbarWindow.obj
 0001:0001e210       ??$?0$$V@?$_Compressed_pair@V?$allocator@U?$_List_node@UTaskButtonInfo@@PEAX@std@@@std@@V?$_List_val@U?$_List_simple_types@UTaskButtonInfo@@@std@@@2@$00@std@@QEAA@U_Zero_then_variadic_args_t@1@@Z 000000014001f210 f i TaskbarWindow.obj
 0001:0001e210       ??$?0$$V@?$_Compressed_pair@V?$allocator@U?$_Tree_node@U?$pair@$$CBU?$pair@PEAUHWND__@@I@std@@V?$basic_string@_WU?$char_traits@_W@std@@V?$allocator@_W@2@@2@@std@@PEAX@std@@@std@@V?$_Tree_val@U?$_Tree_simple_types@U?$pair@$$CBU?$pair@PEAUHWND__@@I@std@@V?$basic_string@_WU?$char_traits@_W@std@@V?$allocator@_W@2@@2@@std@@@std@@@2@$00@std@@QEAA@U_Zero_then_variadic_args_t@1@@Z 000000014001f210 f i TrayIconScraper.obj
 0001:0001e240       ??$?0AEBUTaskButtonInfo@@@?$_List_node_emplace_op2@V?$allocator@U?$_List_node@UTaskButtonInfo@@PEAX@std@@@std@@@std@@QEAA@AEAV?$allocator@U?$_List_node@UTaskButtonInfo@@PEAX@std@@@1@AEBUTaskButtonInfo@@@Z 000000014001f240 f i TaskbarWindow.obj
 0001:0001e2c0       ??$?0AEBV?$allocator@I@std@@$$V@?$_Compressed_pair@V?$allocator@I@std@@V?$_Vector_val@U?$_Simple_types@I@std@@@2@$00@std@@QEAA@U_One_then_variadic_args_t@1@AEBV?$allocator@I@1@@Z 000000014001f2c0 f i TaskbarWindow.obj
 0001:0001e2c0       ??$?0AEBV?$allocator@_W@std@@$$V@?$_Compressed_pair@V?$allocator@_W@std@@V?$_Vector_val@U?$_Simple_types@_W@std@@@2@$00@std@@QEAA@U_One_then_variadic_args_t@1@AEBV?$allocator@_W@1@@Z 000000014001f2c0 f i TrayIconScraper.obj
 0001:0001e300       ??$?H_WU?$char_traits@_W@std@@V?$allocator@_W@1@@std@@YA?AV?$basic_string@_WU?$char_traits@_W@std@@V?$allocator@_W@2@@0@QEB_W$$QEAV10@@Z 000000014001f300 f i TaskbarWindow.obj
 0001:0001e360       ??$?H_WU?$char_traits@_W@std@@V?$allocator@_W@1@@std@@YA?AV?$basic_string@_WU?$char_traits@_W@std@@V?$allocator@_W@2@@0@QEB_WAEBV10@@Z 000000014001f360 f i TaskbarWindow.obj
 0001:0001e430       ??$_Adl_verify_range@V?$_Vb_iterator@U?$_Wrap_alloc@V?$allocator@I@std@@@std@@@std@@V12@@std@@YAXAEBV?$_Vb_iterator@U?$_Wrap_alloc@V?$allocator@I@std@@@std@@@0@0@Z 000000014001f430 f i TaskbarWindow.obj
 0001:0001e460       ??$_Allocate_at_least_helper@V?$allocator@I@std@@@std@@YAPEAIAEAV?$allocator@I@0@AEA_K@Z 000000014001f460 f i TaskbarWindow.obj
 0001:0001e490       ??$_Allocate_at_least_helper@V?$allocator@PEAUHMONITOR__@@@std@@@std@@YAPEAPEAUHMONITOR__@@AEAV?$allocator@PEAUHMONITOR__@@@0@AEA_K@Z 000000014001f490 f i TaskbarWindow.obj
 0001:0001e490       ??$_Allocate_at_least_helper@V?$allocator@PEAUHWND__@@@std@@@std@@YAPEAPEAUHWND__@@AEAV?$allocator@PEAUHWND__@@@0@AEA_K@Z 000000014001f490 f i TaskbarWindow.obj
 0001:0001e490       ??$_Allocate_at_least_helper@V?$allocator@PEAUTaskbarInstance@@@std@@@std@@YAPEAPEAUTaskbarInstance@@AEAV?$allocator@PEAUTaskbarInstance@@@0@AEA_K@Z 000000014001f490 f i TaskbarWindow.obj
 0001:0001e490       ??$_Allocate_at_least_helper@V?$allocator@PEAU_PSP@@@std@@@std@@YAPEAPEAU_PSP@@AEAV?$allocator@PEAU_PSP@@@0@AEA_K@Z 000000014001f490 f i TaskbarProperties.obj
 0001:0001e4c0       ??$_Allocate_at_least_helper@V?$allocator@UEliteTrayIcon@@@std@@@std@@YAPEAUEliteTrayIcon@@AEAV?$allocator@UEliteTrayIcon@@@0@AEA_K@Z 000000014001f4c0 f i TaskbarWindow.obj
 0001:0001e4f0       ??$_Allocate_at_least_helper@V?$allocator@UMonitorInfo@@@std@@@std@@YAPEAUMonitorInfo@@AEAV?$allocator@UMonitorInfo@@@0@AEA_K@Z 000000014001f4f0 f i TaskbarProperties.obj
 0001:0001e4f0       ??$_Allocate_at_least_helper@V?$allocator@UScrapedTrayIcon@@@std@@@std@@YAPEAUScrapedTrayIcon@@AEAV?$allocator@UScrapedTrayIcon@@@0@AEA_K@Z 000000014001f4f0 f i TaskbarWindow.obj
 0001:0001e520       ??$_Allocate_at_least_helper@V?$allocator@UtagRECT@@@std@@@std@@YAPEAUtagRECT@@AEAV?$allocator@UtagRECT@@@0@AEA_K@Z 000000014001f520 f i TaskbarWindow.obj
 0001:0001e550       ??$_Construct@$01PEB_W@?$basic_string@_WU?$char_traits@_W@std@@V?$allocator@_W@2@@std@@AEAAXQEB_W_K@Z 000000014001f550 f i TaskbarWindow.obj
 0001:0001e6f0       ??$_Construct_in_place@UEliteTrayIcon@@AEBU1@@std@@YAXAEAUEliteTrayIcon@@AEBU1@@Z 000000014001f6f0 f i TaskbarWindow.obj
 0001:0001e740       ??$_Construct_in_place@UMonitorInfo@@AEBU1@@std@@YAXAEAUMonitorInfo@@AEBU1@@Z 000000014001f740 f i TaskbarProperties.obj
 0001:0001e740       ??$_Construct_in_place@UScrapedTrayIcon@@AEBU1@@std@@YAXAEAUScrapedTrayIcon@@AEBU1@@Z 000000014001f740 f i TaskbarWindow.obj
 0001:0001e790       ??$_Construct_in_place@UtagRECT@@AEBU1@@std@@YAXAEAUtagRECT@@AEBU1@@Z 000000014001f790 f i TaskbarWindow.obj
 0001:0001e7e0       ??$_Copy_backward_unchecked@V?$_Vb_iterator@U?$_Wrap_alloc@V?$allocator@I@std@@@std@@@std@@V12@@std@@YA?AV?$_Vb_iterator@U?$_Wrap_alloc@V?$allocator@I@std@@@std@@@0@V10@00@Z 000000014001f7e0 f i TaskbarWindow.obj
 0001:0001e8e0       ??$_Copy_memmove@PEAIPEAI@std@@YAPEAIPEAI00@Z 000000014001f8e0 f i TaskbarWindow.obj
 0001:0001e980       ??$_Copy_memmove@PEAPEAUHMONITOR__@@PEAPEAU1@@std@@YAPEAPEAUHMONITOR__@@PEAPEAU1@00@Z 000000014001f980 f i TaskbarWindow.obj
 0001:0001e980       ??$_Copy_memmove@PEAPEAUHWND__@@PEAPEAU1@@std@@YAPEAPEAUHWND__@@PEAPEAU1@00@Z 000000014001f980 f i TaskbarWindow.obj
 0001:0001e980       ??$_Copy_memmove@PEAPEAUTaskbarInstance@@PEAPEAU1@@std@@YAPEAPEAUTaskbarInstance@@PEAPEAU1@00@Z 000000014001f980 f i TaskbarWindow.obj
 0001:0001e980       ??$_Copy_memmove@PEAPEAU_PSP@@PEAPEAU1@@std@@YAPEAPEAU_PSP@@PEAPEAU1@00@Z 000000014001f980 f i TaskbarProperties.obj
 0001:0001ea20       ??$_Copy_memmove@PEAUEliteTrayIcon@@PEAU1@@std@@YAPEAUEliteTrayIcon@@PEAU1@00@Z 000000014001fa20 f i TaskbarWindow.obj
 0001:0001eac0       ??$_Copy_memmove@PEAUMonitorInfo@@PEAU1@@std@@YAPEAUMonitorInfo@@PEAU1@00@Z 000000014001fac0 f i TaskbarProperties.obj
 0001:0001eac0       ??$_Copy_memmove@PEAUScrapedTrayIcon@@PEAU1@@std@@YAPEAUScrapedTrayIcon@@PEAU1@00@Z 000000014001fac0 f i TaskbarWindow.obj
 0001:0001eb60       ??$_Copy_memmove@PEAUtagRECT@@PEAU1@@std@@YAPEAUtagRECT@@PEAU1@00@Z 000000014001fb60 f i TaskbarWindow.obj
 0001:0001ec00       ??$_Copy_memmove_tail@PEAI@std@@YAPEAIQEBDQEAI_K2@Z 000000014001fc00 f i TaskbarWindow.obj
 0001:0001ec00       ??$_Copy_memmove_tail@PEAPEAUHMONITOR__@@@std@@YAPEAPEAUHMONITOR__@@QEBDQEAPEAU1@_K2@Z 000000014001fc00 f i TaskbarWindow.obj
 0001:0001ec00       ??$_Copy_memmove_tail@PEAPEAUHWND__@@@std@@YAPEAPEAUHWND__@@QEBDQEAPEAU1@_K2@Z 000000014001fc00 f i TaskbarWindow.obj
 0001:0001ec00       ??$_Copy_memmove_tail@PEAPEAUTaskbarInstance@@@std@@YAPEAPEAUTaskbarInstance@@QEBDQEAPEAU1@_K2@Z 000000014001fc00 f i TaskbarWindow.obj
 0001:0001ec00       ??$_Copy_memmove_tail@PEAPEAU_PSP@@@std@@YAPEAPEAU_PSP@@QEBDQEAPEAU1@_K2@Z 000000014001fc00 f i TaskbarProperties.obj
 0001:0001ec00       ??$_Copy_memmove_tail@PEAUEliteTrayIcon@@@std@@YAPEAUEliteTrayIcon@@QEBDQEAU1@_K2@Z 000000014001fc00 f i TaskbarWindow.obj
 0001:0001ec00       ??$_Copy_memmove_tail@PEAUMonitorInfo@@@std@@YAPEAUMonitorInfo@@QEBDQEAU1@_K2@Z 000000014001fc00 f i TaskbarProperties.obj
 0001:0001ec00       ??$_Copy_memmove_tail@PEAUScrapedTrayIcon@@@std@@YAPEAUScrapedTrayIcon@@QEBDQEAU1@_K2@Z 000000014001fc00 f i TaskbarWindow.obj
 0001:0001ec00       ??$_Copy_memmove_tail@PEAUtagRECT@@@std@@YAPEAUtagRECT@@QEBDQEAU1@_K2@Z 000000014001fc00 f i TaskbarWindow.obj
 0001:0001ec60       ??$_Emplace@AEBUTaskButtonInfo@@@?$list@UTaskButtonInfo@@V?$allocator@UTaskButtonInfo@@@std@@@std@@QEAAPEAU?$_List_node@UTaskButtonInfo@@PEAX@1@QEAU21@AEBUTaskButtonInfo@@@Z 000000014001fc60 f i TaskbarWindow.obj
 0001:0001ed10       ??$_Emplace_back@AEBI@?$_Uninitialized_backout_al@V?$allocator@I@std@@@std@@QEAAXAEBI@Z 000000014001fd10 f i TaskbarWindow.obj
 0001:0001ed10       ??$_Emplace_back@I@?$_Uninitialized_backout_al@V?$allocator@I@std@@@std@@QEAAX$$QEAI@Z 000000014001fd10 f i TaskbarWindow.obj
 0001:0001ed70       ??$_Emplace_back@PEAUHMONITOR__@@@?$_Uninitialized_backout_al@V?$allocator@PEAUHMONITOR__@@@std@@@std@@QEAAX$$QEAPEAUHMONITOR__@@@Z 000000014001fd70 f i TaskbarWindow.obj
 0001:0001ed70       ??$_Emplace_back@PEAUHWND__@@@?$_Uninitialized_backout_al@V?$allocator@PEAUHWND__@@@std@@@std@@QEAAX$$QEAPEAUHWND__@@@Z 000000014001fd70 f i TaskbarWindow.obj
 0001:0001ed70       ??$_Emplace_back@PEAUTaskbarInstance@@@?$_Uninitialized_backout_al@V?$allocator@PEAUTaskbarInstance@@@std@@@std@@QEAAX$$QEAPEAUTaskbarInstance@@@Z 000000014001fd70 f i TaskbarWindow.obj
 0001:0001ed70       ??$_Emplace_back@PEAU_PSP@@@?$_Uninitialized_backout_al@V?$allocator@PEAU_PSP@@@std@@@std@@QEAAX$$QEAPEAU_PSP@@@Z 000000014001fd70 f i TaskbarProperties.obj
 0001:0001edd0       ??$_Emplace_back@UEliteTrayIcon@@@?$_Uninitialized_backout_al@V?$allocator@UEliteTrayIcon@@@std@@@std@@QEAAX$$QEAUEliteTrayIcon@@@Z 000000014001fdd0 f i TaskbarWindow.obj
 0001:0001ee40       ??$_Emplace_back@AEAUScrapedTrayIcon@@@?$_Uninitialized_backout_al@V?$allocator@UScrapedTrayIcon@@@std@@@std@@QEAAXAEAUScrapedTrayIcon@@@Z 000000014001fe40 f i TrayIconScraper.obj
 0001:0001ee40       ??$_Emplace_back@UMonitorInfo@@@?$_Uninitialized_backout_al@V?$allocator@UMonitorInfo@@@std@@@std@@QEAAX$$QEAUMonitorInfo@@@Z 000000014001fe40 f i TaskbarProperties.obj
 0001:0001ee40       ??$_Emplace_back@UScrapedTrayIcon@@@?$_Uninitialized_backout_al@V?$allocator@UScrapedTrayIcon@@@std@@@std@@QEAAX$$QEAUScrapedTrayIcon@@@Z 000000014001fe40 f i TaskbarWindow.obj
 0001:0001eea0       ??$_Emplace_back@UtagRECT@@@?$_Uninitialized_backout_al@V?$allocator@UtagRECT@@@std@@@std@@QEAAX$$QEAUtagRECT@@@Z 000000014001fea0 f i TaskbarWindow.obj
 0001:0001ef00       ??$_Emplace_back_with_unused_capacity@AEBQEAUHMONITOR__@@@?$vector@PEAUHMONITOR__@@V?$allocator@PEAUHMONITOR__@@@std@@@std@@AEAAAEAPEAUHMONITOR__@@AEBQEAU2@@Z 000000014001ff00 f i TaskbarWindow.obj
 0001:0001ef00       ??$_Emplace_back_with_unused_capacity@AEBQEAUHWND__@@@?$vector@PEAUHWND__@@V?$allocator@PEAUHWND__@@@std@@@std@@AEAAAEAPEAUHWND__@@AEBQEAU2@@Z 000000014001ff00 f i TaskbarWindow.obj
 0001:0001ef00       ??$_Emplace_back_with_unused_capacity@AEBQEAUTaskbarInstance@@@?$vector@PEAUTaskbarInstance@@V?$allocator@PEAUTaskbarInstance@@@std@@@std@@AEAAAEAPEAUTaskbarInstance@@AEBQEAU2@@Z 000000014001ff00 f i TaskbarWindow.obj
 0001:0001ef00       ??$_Emplace_back_with_unused_capacity@AEBQEAU_PSP@@@?$vector@PEAU_PSP@@V?$allocator@PEAU_PSP@@@std@@@std@@AEAAAEAPEAU_PSP@@AEBQEAU2@@Z 000000014001ff00 f i TaskbarProperties.obj
 0001:0001ef90       ??$_Emplace_back_with_unused_capacity@AEBUEliteTrayIcon@@@?$vector@UEliteTrayIcon@@V?$allocator@UEliteTrayIcon@@@std@@@std@@AEAAAEAUEliteTrayIcon@@AEBU2@@Z 000000014001ff90 f i TaskbarWindow.obj
 0001:0001f020       ??$_Emplace_back_with_unused_capacity@AEBUMonitorInfo@@@?$vector@UMonitorInfo@@V?$allocator@UMonitorInfo@@@std@@@std@@AEAAAEAUMonitorInfo@@AEBU2@@Z 0000000140020020 f i TaskbarProperties.obj
 0001:0001f020       ??$_Emplace_back_with_unused_capacity@AEBUScrapedTrayIcon@@@?$vector@UScrapedTrayIcon@@V?$allocator@UScrapedTrayIcon@@@std@@@std@@AEAAAEAUScrapedTrayIcon@@AEBU2@@Z 0000000140020020 f i TaskbarWindow.obj
 0001:0001f0b0       ??$_Emplace_back_with_unused_capacity@AEBUtagRECT@@@?$vector@UtagRECT@@V?$allocator@UtagRECT@@@std@@@std@@AEAAAEAUtagRECT@@AEBU2@@Z 00000001400200b0 f i TaskbarWindow.obj
 0001:0001f140       ??$_Emplace_one_at_back@AEBQEAUHMONITOR__@@@?$vector@PEAUHMONITOR__@@V?$allocator@PEAUHMONITOR__@@@std@@@std@@AEAAAEAPEAUHMONITOR__@@AEBQEAU2@@Z 0000000140020140 f i TaskbarWindow.obj
 0001:0001f140       ??$_Emplace_one_at_back@AEBQEAUHWND__@@@?$vector@PEAUHWND__@@V?$allocator@PEAUHWND__@@@std@@@std@@AEAAAEAPEAUHWND__@@AEBQEAU2@@Z 0000000140020140 f i TaskbarWindow.obj
 0001:0001f140       ??$_Emplace_one_at_back@AEBQEAUTaskbarInstance@@@?$vector@PEAUTaskbarInstance@@V?$allocator@PEAUTaskbarInstance@@@std@@@std@@AEAAAEAPEAUTaskbarInstance@@AEBQEAU2@@Z 0000000140020140 f i TaskbarWindow.obj
 0001:0001f140       ??$_Emplace_one_at_back@AEBQEAU_PSP@@@?$vector@PEAU_PSP@@V?$allocator@PEAU_PSP@@@std@@@std@@AEAAAEAPEAU_PSP@@AEBQEAU2@@Z 0000000140020140 f i TaskbarProperties.obj
 0001:0001f1c0       ??$_Emplace_one_at_back@AEBUEliteTrayIcon@@@?$vector@UEliteTrayIcon@@V?$allocator@UEliteTrayIcon@@@std@@@std@@AEAAAEAUEliteTrayIcon@@AEBU2@@Z 00000001400201c0 f i TaskbarWindow.obj
 0001:0001f240       ??$_Emplace_one_at_back@AEBUMonitorInfo@@@?$vector@UMonitorInfo@@V?$allocator@UMonitorInfo@@@std@@@std@@AEAAAEAUMonitorInfo@@AEBU2@@Z 0000000140020240 f i TaskbarProperties.obj
 0001:0001f240       ??$_Emplace_one_at_back@AEBUScrapedTrayIcon@@@?$vector@UScrapedTrayIcon@@V?$allocator@UScrapedTrayIcon@@@std@@@std@@AEAAAEAUScrapedTrayIcon@@AEBU2@@Z 0000000140020240 f i TaskbarWindow.obj
 0001:0001f2c0       ??$_Emplace_one_at_back@AEBUtagRECT@@@?$vector@UtagRECT@@V?$allocator@UtagRECT@@@std@@@std@@AEAAAEAUtagRECT@@AEBU2@@Z 00000001400202c0 f i TaskbarWindow.obj
 0001:0001f340       ??$_Emplace_reallocate@AEBQEAUHMONITOR__@@@?$vector@PEAUHMONITOR__@@V?$allocator@PEAUHMONITOR__@@@std@@@std@@AEAAPEAPEAUHMONITOR__@@QEAPEAU2@AEBQEAU2@@Z 0000000140020340 f i TaskbarWindow.obj
 0001:0001f340       ??$_Emplace_reallocate@AEBQEAUHWND__@@@?$vector@PEAUHWND__@@V?$allocator@PEAUHWND__@@@std@@@std@@AEAAPEAPEAUHWND__@@QEAPEAU2@AEBQEAU2@@Z 0000000140020340 f i TaskbarWindow.obj
 0001:0001f340       ??$_Emplace_reallocate@AEBQEAUTaskbarInstance@@@?$vector@PEAUTaskbarInstance@@V?$allocator@PEAUTaskbarInstance@@@std@@@std@@AEAAPEAPEAUTaskbarInstance@@QEAPEAU2@AEBQEAU2@@Z 0000000140020340 f i TaskbarWindow.obj
 0001:0001f340       ??$_Emplace_reallocate@AEBQEAU_PSP@@@?$vector@PEAU_PSP@@V?$allocator@PEAU_PSP@@@std@@@std@@AEAAPEAPEAU_PSP@@QEAPEAU2@AEBQEAU2@@Z 0000000140020340 f i TaskbarProperties.obj
 0001:0001f5c0       ??$_Emplace_reallocate@AEBUEliteTrayIcon@@@?$vector@UEliteTrayIcon@@V?$allocator@UEliteTrayIcon@@@std@@@std@@AEAAPEAUEliteTrayIcon@@QEAU2@AEBU2@@Z 00000001400205c0 f i TaskbarWindow.obj
 0001:0001f870       ??$_Emplace_reallocate@AEBUMonitorInfo@@@?$vector@UMonitorInfo@@V?$allocator@UMonitorInfo@@@std@@@std@@AEAAPEAUMonitorInfo@@QEAU2@AEBU2@@Z 0000000140020870 f i TaskbarProperties.obj
 0001:0001f870       ??$_Emplace_reallocate@AEBUScrapedTrayIcon@@@?$vector@UScrapedTrayIcon@@V?$allocator@UScrapedTrayIcon@@@std@@@std@@AEAAPEAUScrapedTrayIcon@@QEAU2@AEBU2@@Z 0000000140020870 f i TaskbarWindow.obj
 0001:0001fb00       ??$_Emplace_reallocate@AEBUtagRECT@@@?$vector@UtagRECT@@V?$allocator@UtagRECT@@@std@@@std@@AEAAPEAUtagRECT@@QEAU2@AEBU2@@Z 0000000140020b00 f i TaskbarWindow.obj
 0001:0001fd90       ??$_Fill_vbool@V?$_Vb_iterator@U?$_Wrap_alloc@V?$allocator@I@std@@@std@@@std@@@std@@YAXV?$_Vb_iterator@U?$_Wrap_alloc@V?$allocator@I@std@@@std@@@0@V10@_N@Z 0000000140020d90 f i TaskbarWindow.obj
 0001:00020030       ??$_Fill_zero_memset@PEAI@std@@YAXPEAI_K@Z 0000000140021030 f i TaskbarWindow.obj
 0001:00020070       ??$_Free_non_head@V?$allocator@U?$_List_node@UTaskButtonInfo@@PEAX@std@@@std@@@?$_List_node@UTaskButtonInfo@@PEAX@std@@SAXAEAV?$allocator@U?$_List_node@UTaskButtonInfo@@PEAX@std@@@1@PEAU01@@Z 0000000140021070 f i TaskbarWindow.obj
 0001:000200e0       ??$_Freenode0@V?$allocator@U?$_List_node@UTaskButtonInfo@@PEAX@std@@@std@@@?$_List_node@UTaskButtonInfo@@PEAX@std@@SAXAEAV?$allocator@U?$_List_node@UTaskButtonInfo@@PEAX@std@@@1@PEAU01@@Z 00000001400210e0 f i TaskbarWindow.obj
 0001:00020130       ??$_Freenode@V?$allocator@U?$_List_node@UTaskButtonInfo@@PEAX@std@@@std@@@?$_List_node@UTaskButtonInfo@@PEAX@std@@SAXAEAV?$allocator@U?$_List_node@UTaskButtonInfo@@PEAX@std@@@1@PEAU01@@Z 0000000140021130 f i TaskbarWindow.obj
 0001:00020180       ??$_Get_size_of_n@$03@std@@YA_K_K@Z 0000000140021180 f i TaskbarWindow.obj
 0001:000201d0       ??$_Get_size_of_n@$07@std@@YA_K_K@Z 00000001400211d0 f i TaskbarWindow.obj
 0001:00020220       ??$_Get_size_of_n@$0BCA@@std@@YA_K_K@Z 0000000140021220 f i TaskbarWindow.obj
 0001:00020270       ??$_Get_size_of_n@$0CA@@std@@YA_K_K@Z 0000000140021270 f i TaskbarWindow.obj
 0001:000202b0       ??$_Get_size_of_n@$0FA@@std@@YA_K_K@Z 00000001400212b0 f i TaskbarWindow.obj
 0001:000202f0       ??$_Get_unwrapped@AEBQEAI@std@@YA?A_TAEBQEAI@Z 00000001400212f0 f i TaskbarWindow.obj
 0001:000202f0       ??$_Get_unwrapped@AEBQEAPEAUHMONITOR__@@@std@@YA?A_TAEBQEAPEAUHMONITOR__@@@Z 00000001400212f0 f i TaskbarWindow.obj
 0001:000202f0       ??$_Get_unwrapped@AEBQEAPEAUHWND__@@@std@@YA?A_TAEBQEAPEAUHWND__@@@Z 00000001400212f0 f i TaskbarWindow.obj
 0001:000202f0       ??$_Get_unwrapped@AEBQEAPEAUTaskbarInstance@@@std@@YA?A_TAEBQEAPEAUTaskbarInstance@@@Z 00000001400212f0 f i TaskbarWindow.obj
 0001:000202f0       ??$_Get_unwrapped@AEBQEAPEAU_PSP@@@std@@YA?A_TAEBQEAPEAU_PSP@@@Z 00000001400212f0 f i TaskbarProperties.obj
 0001:000202f0       ??$_Get_unwrapped@AEBQEAUEliteTrayIcon@@@std@@YA?A_TAEBQEAUEliteTrayIcon@@@Z 00000001400212f0 f i TaskbarWindow.obj
 0001:000202f0       ??$_Get_unwrapped@AEBQEAUMonitorInfo@@@std@@YA?A_TAEBQEAUMonitorInfo@@@Z 00000001400212f0 f i TaskbarProperties.obj
 0001:000202f0       ??$_Get_unwrapped@AEBQEAUSavedPos@@@std@@YA?A_TAEBQEAUSavedPos@@@Z 00000001400212f0 f i DesktopWindow.obj
 0001:000202f0       ??$_Get_unwrapped@AEBQEAUScrapedTrayIcon@@@std@@YA?A_TAEBQEAUScrapedTrayIcon@@@Z 00000001400212f0 f i TaskbarWindow.obj
 0001:000202f0       ??$_Get_unwrapped@AEBQEAUtagRECT@@@std@@YA?A_TAEBQEAUtagRECT@@@Z 00000001400212f0 f i TaskbarWindow.obj
 0001:000202f0       ??$_Get_unwrapped@AEBQEAV?$basic_string@_WU?$char_traits@_W@std@@V?$allocator@_W@2@@std@@@std@@YA?A_TAEBQEAV?$basic_string@_WU?$char_traits@_W@std@@V?$allocator@_W@2@@0@@Z 00000001400212f0 f i StartButton.obj
 0001:000202f0       ??$_Get_unwrapped@PEAUScrapedTrayIcon@@@std@@YA?A_T$$QEAPEAUScrapedTrayIcon@@@Z 00000001400212f0 f i TrayIconScraper.obj
 0001:000202f0       ??$_To_address@PEAI@std@@YA?A_PAEBQEAI@Z 00000001400212f0 f i TaskbarWindow.obj
 0001:000202f0       ??$_To_address@PEAPEAUHMONITOR__@@@std@@YA?A_PAEBQEAPEAUHMONITOR__@@@Z 00000001400212f0 f i TaskbarWindow.obj
 0001:000202f0       ??$_To_address@PEAPEAUHWND__@@@std@@YA?A_PAEBQEAPEAUHWND__@@@Z 00000001400212f0 f i TaskbarWindow.obj
 0001:000202f0       ??$_To_address@PEAPEAUTaskbarInstance@@@std@@YA?A_PAEBQEAPEAUTaskbarInstance@@@Z 00000001400212f0 f i TaskbarWindow.obj
 0001:000202f0       ??$_To_address@PEAPEAU_PSP@@@std@@YA?A_PAEBQEAPEAU_PSP@@@Z 00000001400212f0 f i TaskbarProperties.obj
 0001:000202f0       ??$_To_address@PEAUEliteTrayIcon@@@std@@YA?A_PAEBQEAUEliteTrayIcon@@@Z 00000001400212f0 f i TaskbarWindow.obj
 0001:000202f0       ??$_To_address@PEAUMonitorInfo@@@std@@YA?A_PAEBQEAUMonitorInfo@@@Z 00000001400212f0 f i TaskbarProperties.obj
 0001:000202f0       ??$_To_address@PEAUScrapedTrayIcon@@@std@@YA?A_PAEBQEAUScrapedTrayIcon@@@Z 00000001400212f0 f i TaskbarWindow.obj
 0001:000202f0       ??$_To_address@PEAUtagRECT@@@std@@YA?A_PAEBQEAUtagRECT@@@Z 00000001400212f0 f i TaskbarWindow.obj
 0001:000202f0       ??$_To_address@PEA_W@std@@YA?A_PAEBQEA_W@Z 00000001400212f0 f i TrayIconScraper.obj
 0001:000202f0       ??$_Tuple_get@$0A@$$QEAU?$pair@PEAUHWND__@@I@std@@@std@@YA$$QEA_P$$QEAV?$tuple@$$QEAU?$pair@PEAUHWND__@@I@std@@@0@@Z 00000001400212f0 f i TrayIconScraper.obj
 0001:000202f0       ??C__crt_stdio_stream@@QEBAPEAU__crt_stdio_stream_data@@XZ 00000001400212f0 f i libucrtd:output.obj
 0001:000202f0       ?get@?$__crt_scoped_stack_ptr@_W@@QEBAPEA_WXZ 00000001400212f0 f i libcpmtd:StlLCMapStringA.obj
 0001:000202f0       ?get@?$__crt_unique_handle_t@U__crt_findfile_traits@@@@QEBAPEAXXZ 00000001400212f0 f i libucrtd:argv_wildcards.obj
 0001:000202f0       ?get@?$__crt_unique_handle_t@U__crt_hmodule_traits@@@@QEBAPEAUHINSTANCE__@@XZ 00000001400212f0 f i libucrtd:exit.obj
 0001:000202f0       ?get@?$__crt_unique_heap_ptr@DU__crt_internal_free_policy@@@@QEBAPEADXZ 00000001400212f0 f i libvcruntimed:std_type_info.obj
 0001:000202f0       ?get@?$__crt_unique_heap_ptr@DU__crt_public_free_policy@@@@QEBAPEADXZ 00000001400212f0 f i libvcruntimed:std_exception.obj
 0001:000202f0       ?get@?$__crt_unique_heap_ptr@EU__crt_internal_free_policy@@@@QEBAPEAEXZ 00000001400212f0 f i libcpmtd:xwcsxfrm.obj
 0001:000202f0       ?get@?$__crt_unique_heap_ptr@PEADU__crt_internal_free_policy@@@@QEBAPEAPEADXZ 00000001400212f0 f i libucrtd:argv_parsing.obj
 0001:000202f0       ?get@?$__crt_unique_heap_ptr@PEA_WU__crt_internal_free_policy@@@@QEBAPEAPEA_WXZ 00000001400212f0 f i libucrtd:argv_parsing.obj
 0001:000202f0       ?get@?$__crt_unique_heap_ptr@U__acrt_ptd@@U__crt_internal_free_policy@@@@QEBAPEAU__acrt_ptd@@XZ 00000001400212f0 f i libucrtd:per_thread_data.obj
 0001:000202f0       ?get@?$__crt_unique_heap_ptr@U__crt_lc_time_data@@U__crt_internal_free_policy@@@@QEBAPEAU__crt_lc_time_data@@XZ 00000001400212f0 f i libucrtd:inittime.obj
 0001:000202f0       ?get@?$__crt_unique_heap_ptr@U__crt_lowio_handle_data@@U__crt_internal_free_policy@@@@QEBAPEAU__crt_lowio_handle_data@@XZ 00000001400212f0 f i libucrtd:osfinfo.obj
 0001:000202f0       ?get@?$__crt_unique_heap_ptr@U__crt_multibyte_data@@U__crt_internal_free_policy@@@@QEBAPEAU__crt_multibyte_data@@XZ 00000001400212f0 f i libucrtd:wsetlocale.obj
 0001:000202f0       ?get@?$__crt_unique_heap_ptr@U__vcrt_ptd@@U__crt_internal_free_policy@@@@QEBAPEAU__vcrt_ptd@@XZ 00000001400212f0 f i libvcruntimed:per_thread_data.obj
 0001:000202f0       ?get@?$__crt_unique_heap_ptr@_WU__crt_internal_free_policy@@@@QEBAPEA_WXZ 00000001400212f0 f i libucrtd:system.obj
 0001:000202f0       ?public_stream@__crt_stdio_stream@@QEBAPEAU_iobuf@@XZ 00000001400212f0 f i libucrtd:output.obj
 0001:000202f0       ?save_state@?$c_string_character_source@D@__crt_strtox@@QEBAPEBDXZ 00000001400212f0 f i libucrtd:output.obj
 0001:000202f0       ?save_state@?$c_string_character_source@_W@__crt_strtox@@QEBAPEB_WXZ 00000001400212f0 f i libucrtd:output.obj
 0001:00020300       ??$_Idl_distance@V?$_Vb_iterator@U?$_Wrap_alloc@V?$allocator@I@std@@@std@@@std@@V12@@std@@YA?A_PAEBV?$_Vb_iterator@U?$_Wrap_alloc@V?$allocator@I@std@@@std@@@0@0@Z 0000000140021300 f i TaskbarWindow.obj
 0001:00020330       ??$_Is_all_bits_zero@I@std@@YA_NAEBI@Z 0000000140021330 f i TaskbarWindow.obj
 0001:00020380       ??$_Move_unchecked@PEAPEAUTaskbarInstance@@PEAPEAU1@@std@@YAPEAPEAUTaskbarInstance@@PEAPEAU1@00@Z 0000000140021380 f i TaskbarWindow.obj
 0001:00020400       ??$_Move_unchecked@PEAUEliteTrayIcon@@PEAU1@@std@@YAPEAUEliteTrayIcon@@PEAU1@00@Z 0000000140021400 f i TaskbarWindow.obj
 0001:00020480       ??$_Reallocate_grow_by@V<lambda_967c2ed818824c5314a20ec3af46b793>@@_KPEB_W_K@?$basic_string@_WU?$char_traits@_W@std@@V?$allocator@_W@2@@std@@AEAAAEAV01@_KV<lambda_967c2ed818824c5314a20ec3af46b793>@@_KPEB_W2@Z 0000000140021480 f i TaskbarWindow.obj
 0001:00020680       ??$_Resize@I@?$vector@IV?$allocator@I@std@@@std@@AEAAX_KAEBI@Z 0000000140021680 f i TaskbarWindow.obj
 0001:00020800       ??$_Resize_reallocate@I@?$vector@IV?$allocator@I@std@@@std@@AEAAX_KAEBI@Z 0000000140021800 f i TaskbarWindow.obj
 0001:000209b0       ??$_Seek_wrapped@V?$_Vb_iterator@U?$_Wrap_alloc@V?$allocator@I@std@@@std@@@std@@V12@@std@@YAXAEAV?$_Vb_iterator@U?$_Wrap_alloc@V?$allocator@I@std@@@std@@@0@$$QEAV10@@Z 00000001400219b0 f i TaskbarWindow.obj
 0001:000209e0       ??$_Uninitialized_fill_n@V?$allocator@I@std@@@std@@YAPEAIPEAI_KAEBIAEAV?$allocator@I@0@@Z 00000001400219e0 f i TaskbarWindow.obj
 0001:00020aa0       ??$_Uninitialized_move@PEAIV?$allocator@I@std@@@std@@YAPEAIQEAI0PEAIAEAV?$allocator@I@0@@Z 0000000140021aa0 f i TaskbarWindow.obj
 0001:00020b80       ??$_Uninitialized_move@PEAPEAUHMONITOR__@@V?$allocator@PEAUHMONITOR__@@@std@@@std@@YAPEAPEAUHMONITOR__@@QEAPEAU1@0PEAPEAU1@AEAV?$allocator@PEAUHMONITOR__@@@0@@Z 0000000140021b80 f i TaskbarWindow.obj
 0001:00020b80       ??$_Uninitialized_move@PEAPEAUHWND__@@V?$allocator@PEAUHWND__@@@std@@@std@@YAPEAPEAUHWND__@@QEAPEAU1@0PEAPEAU1@AEAV?$allocator@PEAUHWND__@@@0@@Z 0000000140021b80 f i TaskbarWindow.obj
 0001:00020b80       ??$_Uninitialized_move@PEAPEAUTaskbarInstance@@V?$allocator@PEAUTaskbarInstance@@@std@@@std@@YAPEAPEAUTaskbarInstance@@QEAPEAU1@0PEAPEAU1@AEAV?$allocator@PEAUTaskbarInstance@@@0@@Z 0000000140021b80 f i TaskbarWindow.obj
 0001:00020b80       ??$_Uninitialized_move@PEAPEAU_PSP@@V?$allocator@PEAU_PSP@@@std@@@std@@YAPEAPEAU_PSP@@QEAPEAU1@0PEAPEAU1@AEAV?$allocator@PEAU_PSP@@@0@@Z 0000000140021b80 f i TaskbarProperties.obj
 0001:00020c60       ??$_Uninitialized_move@PEAUEliteTrayIcon@@V?$allocator@UEliteTrayIcon@@@std@@@std@@YAPEAUEliteTrayIcon@@QEAU1@0PEAU1@AEAV?$allocator@UEliteTrayIcon@@@0@@Z 0000000140021c60 f i TaskbarWindow.obj
 0001:00020d50       ??$_Uninitialized_move@PEAUMonitorInfo@@V?$allocator@UMonitorInfo@@@std@@@std@@YAPEAUMonitorInfo@@QEAU1@0PEAU1@AEAV?$allocator@UMonitorInfo@@@0@@Z 0000000140021d50 f i TaskbarProperties.obj
 0001:00020d50       ??$_Uninitialized_move@PEAUScrapedTrayIcon@@V?$allocator@UScrapedTrayIcon@@@std@@@std@@YAPEAUScrapedTrayIcon@@QEAU1@0PEAU1@AEAV?$allocator@UScrapedTrayIcon@@@0@@Z 0000000140021d50 f i TaskbarWindow.obj
 0001:00020e40       ??$_Uninitialized_move@PEAUtagRECT@@V?$allocator@UtagRECT@@@std@@@std@@YAPEAUtagRECT@@QEAU1@0PEAU1@AEAV?$allocator@UtagRECT@@@0@@Z 0000000140021e40 f i TaskbarWindow.obj
 0001:00020f30       ??$construct@IAEBI@?$_Default_allocator_traits@V?$allocator@I@std@@@std@@SAXAEAV?$allocator@I@1@QEAIAEBI@Z 0000000140021f30 f i TaskbarWindow.obj
 0001:00020f30       ??$construct@II@?$_Default_allocator_traits@V?$allocator@I@std@@@std@@SAXAEAV?$allocator@I@1@QEAI$$QEAI@Z 0000000140021f30 f i TaskbarWindow.obj
 0001:00020f70       ??$construct@PEAUHMONITOR__@@AEBQEAU1@@?$_Default_allocator_traits@V?$allocator@PEAUHMONITOR__@@@std@@@std@@SAXAEAV?$allocator@PEAUHMONITOR__@@@1@QEAPEAUHMONITOR__@@AEBQEAU3@@Z 0000000140021f70 f i TaskbarWindow.obj
 0001:00020f70       ??$construct@PEAUHMONITOR__@@PEAU1@@?$_Default_allocator_traits@V?$allocator@PEAUHMONITOR__@@@std@@@std@@SAXAEAV?$allocator@PEAUHMONITOR__@@@1@QEAPEAUHMONITOR__@@$$QEAPEAU3@@Z 0000000140021f70 f i TaskbarWindow.obj
 0001:00020f70       ??$construct@PEAUHWND__@@AEBQEAU1@@?$_Default_allocator_traits@V?$allocator@PEAUHWND__@@@std@@@std@@SAXAEAV?$allocator@PEAUHWND__@@@1@QEAPEAUHWND__@@AEBQEAU3@@Z 0000000140021f70 f i TaskbarWindow.obj
 0001:00020f70       ??$construct@PEAUHWND__@@PEAU1@@?$_Default_allocator_traits@V?$allocator@PEAUHWND__@@@std@@@std@@SAXAEAV?$allocator@PEAUHWND__@@@1@QEAPEAUHWND__@@$$QEAPEAU3@@Z 0000000140021f70 f i TaskbarWindow.obj
 0001:00020f70       ??$construct@PEAUTaskbarInstance@@AEBQEAU1@@?$_Default_allocator_traits@V?$allocator@PEAUTaskbarInstance@@@std@@@std@@SAXAEAV?$allocator@PEAUTaskbarInstance@@@1@QEAPEAUTaskbarInstance@@AEBQEAU3@@Z 0000000140021f70 f i TaskbarWindow.obj
 0001:00020f70       ??$construct@PEAUTaskbarInstance@@PEAU1@@?$_Default_allocator_traits@V?$allocator@PEAUTaskbarInstance@@@std@@@std@@SAXAEAV?$allocator@PEAUTaskbarInstance@@@1@QEAPEAUTaskbarInstance@@$$QEAPEAU3@@Z 0000000140021f70 f i TaskbarWindow.obj
 0001:00020f70       ??$construct@PEAU_PSP@@AEBQEAU1@@?$_Default_allocator_traits@V?$allocator@PEAU_PSP@@@std@@@std@@SAXAEAV?$allocator@PEAU_PSP@@@1@QEAPEAU_PSP@@AEBQEAU3@@Z 0000000140021f70 f i TaskbarProperties.obj
 0001:00020f70       ??$construct@PEAU_PSP@@PEAU1@@?$_Default_allocator_traits@V?$allocator@PEAU_PSP@@@std@@@std@@SAXAEAV?$allocator@PEAU_PSP@@@1@QEAPEAU_PSP@@$$QEAPEAU3@@Z 0000000140021f70 f i TaskbarProperties.obj
 0001:00020fc0       ??$construct@UEliteTrayIcon@@AEBU1@@?$_Default_allocator_traits@V?$allocator@UEliteTrayIcon@@@std@@@std@@SAXAEAV?$allocator@UEliteTrayIcon@@@1@QEAUEliteTrayIcon@@AEBU3@@Z 0000000140021fc0 f i TaskbarWindow.obj
 0001:00020fc0       ??$construct@UEliteTrayIcon@@U1@@?$_Default_allocator_traits@V?$allocator@UEliteTrayIcon@@@std@@@std@@SAXAEAV?$allocator@UEliteTrayIcon@@@1@QEAUEliteTrayIcon@@$$QEAU3@@Z 0000000140021fc0 f i TaskbarWindow.obj
 0001:00021010       ??$construct@UMonitorInfo@@AEBU1@@?$_Default_allocator_traits@V?$allocator@UMonitorInfo@@@std@@@std@@SAXAEAV?$allocator@UMonitorInfo@@@1@QEAUMonitorInfo@@AEBU3@@Z 0000000140022010 f i TaskbarProperties.obj
 0001:00021010       ??$construct@UMonitorInfo@@U1@@?$_Default_allocator_traits@V?$allocator@UMonitorInfo@@@std@@@std@@SAXAEAV?$allocator@UMonitorInfo@@@1@QEAUMonitorInfo@@$$QEAU3@@Z 0000000140022010 f i TaskbarProperties.obj
 0001:00021010       ??$construct@UScrapedTrayIcon@@AEAU1@@?$_Default_allocator_traits@V?$allocator@UScrapedTrayIcon@@@std@@@std@@SAXAEAV?$allocator@UScrapedTrayIcon@@@1@QEAUScrapedTrayIcon@@AEAU3@@Z 0000000140022010 f i TrayIconScraper.obj
 0001:00021010       ??$construct@UScrapedTrayIcon@@AEBU1@@?$_Default_allocator_traits@V?$allocator@UScrapedTrayIcon@@@std@@@std@@SAXAEAV?$allocator@UScrapedTrayIcon@@@1@QEAUScrapedTrayIcon@@AEBU3@@Z 0000000140022010 f i TaskbarWindow.obj
 0001:00021010       ??$construct@UScrapedTrayIcon@@U1@@?$_Default_allocator_traits@V?$allocator@UScrapedTrayIcon@@@std@@@std@@SAXAEAV?$allocator@UScrapedTrayIcon@@@1@QEAUScrapedTrayIcon@@$$QEAU3@@Z 0000000140022010 f i TaskbarWindow.obj
 0001:00021060       ??$construct@UTaskButtonInfo@@AEBU1@@?$_Default_allocator_traits@V?$allocator@U?$_List_node@UTaskButtonInfo@@PEAX@std@@@std@@@std@@SAXAEAV?$allocator@U?$_List_node@UTaskButtonInfo@@PEAX@std@@@1@QEAUTaskButtonInfo@@AEBU3@@Z 0000000140022060 f i TaskbarWindow.obj
 0001:000210b0       ??$construct@UtagRECT@@AEBU1@@?$_Default_allocator_traits@V?$allocator@UtagRECT@@@std@@@std@@SAXAEAV?$allocator@UtagRECT@@@1@QEAUtagRECT@@AEBU3@@Z 00000001400220b0 f i TaskbarWindow.obj
 0001:000210b0       ??$construct@UtagRECT@@U1@@?$_Default_allocator_traits@V?$allocator@UtagRECT@@@std@@@std@@SAXAEAV?$allocator@UtagRECT@@@1@QEAUtagRECT@@$$QEAU3@@Z 00000001400220b0 f i TaskbarWindow.obj
 0001:00021100       ??$copy_backward@V?$_Vb_iterator@U?$_Wrap_alloc@V?$allocator@I@std@@@std@@@std@@V12@@std@@YA?AV?$_Vb_iterator@U?$_Wrap_alloc@V?$allocator@I@std@@@std@@@0@V10@00@Z 0000000140022100 f i TaskbarWindow.obj
 0001:000212e0       ??$destroy@UTaskButtonInfo@@@?$_Default_allocator_traits@V?$allocator@U?$_List_node@UTaskButtonInfo@@PEAX@std@@@std@@@std@@SAXAEAV?$allocator@U?$_List_node@UTaskButtonInfo@@PEAX@std@@@1@QEAUTaskButtonInfo@@@Z 00000001400222e0 f i TaskbarWindow.obj
 0001:00021300       ??$fill_n@V?$_Vb_iterator@U?$_Wrap_alloc@V?$allocator@I@std@@@std@@@std@@_K_N@std@@YA?AV?$_Vb_iterator@U?$_Wrap_alloc@V?$allocator@I@std@@@std@@@0@V10@_KAEB_N@Z 0000000140022300 f i TaskbarWindow.obj
 0001:00021430       ??$swprintf_s@$0IA@@@YAHAEAY0IA@_WPEB_WZZ 0000000140022430 f i TaskbarWindow.obj
 0001:00021470       ??$swprintf_s@$0IAA@@@YAHAEAY0IAA@_WPEB_WZZ 0000000140022470 f i TaskbarWindow.obj
 0001:000214b0       ??$wcscpy_s@$0CA@@@YAHAEAY0CA@_WPEB_W@Z 00000001400224b0 f i TaskbarWindow.obj
 0001:000214e0       ??$wcscpy_s@$0IA@@@YAHAEAY0IA@_WPEB_W@Z 00000001400224e0 f i TaskbarWindow.obj
 0001:00021510       ??$wcsncpy_s@$0FA@@@YAHAEAY0FA@_WPEB_W_K@Z 0000000140022510 f i TaskbarWindow.obj
 0001:00021550       ??0?$_List_const_iterator@V?$_List_val@U?$_List_simple_types@UTaskButtonInfo@@@std@@@std@@@std@@QEAA@AEBV01@@Z 0000000140022550 f i TaskbarWindow.obj
 0001:00021550       ??0?$_Vector_iterator@V?$_Vector_val@U?$_Simple_types@V?$basic_string@_WU?$char_traits@_W@std@@V?$allocator@_W@2@@std@@@std@@@std@@@std@@QEAA@AEBV01@@Z 0000000140022550 f i DesktopWindow.obj
 0001:00021580       ??0?$_List_const_iterator@V?$_List_val@U?$_List_simple_types@UTaskButtonInfo@@@std@@@std@@@std@@QEAA@PEAU?$_List_node@UTaskButtonInfo@@PEAX@1@PEBV?$_List_val@U?$_List_simple_types@UTaskButtonInfo@@@std@@@1@@Z 0000000140022580 f i TaskbarWindow.obj
 0001:00021580       ??0?$_Tree_const_iterator@V?$_Tree_val@U?$_Tree_simple_types@U?$pair@$$CBU?$pair@PEAUHWND__@@I@std@@V?$basic_string@_WU?$char_traits@_W@std@@V?$allocator@_W@2@@2@@std@@@std@@@std@@@std@@QEAA@PEAU?$_Tree_node@U?$pair@$$CBU?$pair@PEAUHWND__@@I@std@@V?$basic_string@_WU?$char_traits@_W@std@@V?$allocator@_W@2@@2@@std@@PEAX@1@PEBV?$_Tree_val@U?$_Tree_simple_types@U?$pair@$$CBU?$pair@PEAUHWND__@@I@std@@V?$basic_string@_WU?$char_traits@_W@std@@V?$allocator@_W@2@@2@@std@@@std@@@1@@Z 0000000140022580 f i TrayIconScraper.obj
 0001:00021580       ??0?$_Vector_iterator@V?$_Vector_val@U?$_Simple_types@PEAUTaskbarInstance@@@std@@@std@@@std@@QEAA@PEAPEAUTaskbarInstance@@PEBU_Container_base12@1@@Z 0000000140022580 f i TaskbarWindow.obj
 0001:00021580       ??0?$_Vector_iterator@V?$_Vector_val@U?$_Simple_types@UEliteTrayIcon@@@std@@@std@@@std@@QEAA@PEAUEliteTrayIcon@@PEBU_Container_base12@1@@Z 0000000140022580 f i TaskbarWindow.obj
 0001:00021580       ??0?$_Vector_iterator@V?$_Vector_val@U?$_Simple_types@V?$basic_string@_WU?$char_traits@_W@std@@V?$allocator@_W@2@@std@@@std@@@std@@@std@@QEAA@PEAV?$basic_string@_WU?$char_traits@_W@std@@V?$allocator@_W@2@@1@PEBU_Container_base12@1@@Z 0000000140022580 f i DesktopWindow.obj
 0001:000215c0       ??0?$_List_iterator@V?$_List_val@U?$_List_simple_types@UTaskButtonInfo@@@std@@@std@@@std@@QEAA@PEAU?$_List_node@UTaskButtonInfo@@PEAX@1@PEBV?$_List_val@U?$_List_simple_types@UTaskButtonInfo@@@std@@@1@@Z 00000001400225c0 f i TaskbarWindow.obj
 0001:000215c0       ??0?$_Tree_iterator@V?$_Tree_val@U?$_Tree_simple_types@U?$pair@$$CBU?$pair@PEAUHWND__@@I@std@@V?$basic_string@_WU?$char_traits@_W@std@@V?$allocator@_W@2@@2@@std@@@std@@@std@@@std@@QEAA@PEAU?$_Tree_node@U?$pair@$$CBU?$pair@PEAUHWND__@@I@std@@V?$basic_string@_WU?$char_traits@_W@std@@V?$allocator@_W@2@@2@@std@@PEAX@1@PEBV?$_Tree_val@U?$_Tree_simple_types@U?$pair@$$CBU?$pair@PEAUHWND__@@I@std@@V?$basic_string@_WU?$char_traits@_W@std@@V?$allocator@_W@2@@2@@std@@@std@@@1@@Z 00000001400225c0 f i TrayIconScraper.obj
 0001:00021600       ??0?$_List_unchecked_const_iterator@V?$_List_val@U?$_List_simple_types@UTaskButtonInfo@@@std@@@std@@U_Iterator_base0@2@@std@@QEAA@PEAU?$_List_node@UTaskButtonInfo@@PEAX@1@PEBV?$_List_val@U?$_List_simple_types@UTaskButtonInfo@@@std@@@1@@Z 0000000140022600 f i TaskbarWindow.obj
 0001:00021640       ??0?$_List_unchecked_const_iterator@V?$_List_val@U?$_List_simple_types@UTaskButtonInfo@@@std@@@std@@U_Iterator_base12@2@@std@@QEAA@AEBV01@@Z 0000000140022640 f i TaskbarWindow.obj
 0001:00021640       ??0?$_Vector_const_iterator@V?$_Vector_val@U?$_Simple_types@PEAUTaskbarInstance@@@std@@@std@@@std@@QEAA@AEBV01@@Z 0000000140022640 f i TaskbarWindow.obj
 0001:00021640       ??0?$_Vector_const_iterator@V?$_Vector_val@U?$_Simple_types@UEliteTrayIcon@@@std@@@std@@@std@@QEAA@AEBV01@@Z 0000000140022640 f i TaskbarWindow.obj
 0001:00021640       ??0?$_Vector_const_iterator@V?$_Vector_val@U?$_Simple_types@V?$basic_string@_WU?$char_traits@_W@std@@V?$allocator@_W@2@@std@@@std@@@std@@@std@@QEAA@AEBV01@@Z 0000000140022640 f i DesktopWindow.obj
 0001:00021680       ??0?$_List_unchecked_const_iterator@V?$_List_val@U?$_List_simple_types@UTaskButtonInfo@@@std@@@std@@U_Iterator_base12@2@@std@@QEAA@PEAU?$_List_node@UTaskButtonInfo@@PEAX@1@PEBV?$_List_val@U?$_List_simple_types@UTaskButtonInfo@@@std@@@1@@Z 0000000140022680 f i TaskbarWindow.obj
 0001:00021680       ??0?$_Tree_unchecked_const_iterator@V?$_Tree_val@U?$_Tree_simple_types@U?$pair@$$CBU?$pair@PEAUHWND__@@I@std@@V?$basic_string@_WU?$char_traits@_W@std@@V?$allocator@_W@2@@2@@std@@@std@@@std@@U_Iterator_base12@2@@std@@QEAA@PEAU?$_Tree_node@U?$pair@$$CBU?$pair@PEAUHWND__@@I@std@@V?$basic_string@_WU?$char_traits@_W@std@@V?$allocator@_W@2@@2@@std@@PEAX@1@PEBV?$_Tree_val@U?$_Tree_simple_types@U?$pair@$$CBU?$pair@PEAUHWND__@@I@std@@V?$basic_string@_WU?$char_traits@_W@std@@V?$allocator@_W@2@@2@@std@@@std@@@1@@Z 0000000140022680 f i TrayIconScraper.obj
 0001:00021680       ??0?$_Vector_const_iterator@V?$_Vector_val@U?$_Simple_types@PEAUTaskbarInstance@@@std@@@std@@@std@@QEAA@PEAPEAUTaskbarInstance@@PEBU_Container_base12@1@@Z 0000000140022680 f i TaskbarWindow.obj
 0001:00021680       ??0?$_Vector_const_iterator@V?$_Vector_val@U?$_Simple_types@UEliteTrayIcon@@@std@@@std@@@std@@QEAA@PEAUEliteTrayIcon@@PEBU_Container_base12@1@@Z 0000000140022680 f i TaskbarWindow.obj
 0001:00021680       ??0?$_Vector_const_iterator@V?$_Vector_val@U?$_Simple_types@V?$basic_string@_WU?$char_traits@_W@std@@V?$allocator@_W@2@@std@@@std@@@std@@@std@@QEAA@PEAV?$basic_string@_WU?$char_traits@_W@std@@V?$allocator@_W@2@@1@PEBU_Container_base12@1@@Z 0000000140022680 f i DesktopWindow.obj
 0001:000216d0       ??0?$_List_unchecked_iterator@V?$_List_val@U?$_List_simple_types@UTaskButtonInfo@@@std@@@std@@@std@@QEAA@PEAU?$_List_node@UTaskButtonInfo@@PEAX@1@PEBV?$_List_val@U?$_List_simple_types@UTaskButtonInfo@@@std@@@1@@Z 00000001400226d0 f i TaskbarWindow.obj
 0001:00021710       ??0?$_List_val@U?$_List_simple_types@UTaskButtonInfo@@@std@@@std@@QEAA@XZ 0000000140022710 f i TaskbarWindow.obj
 0001:00021710       ??0?$_Tree_val@U?$_Tree_simple_types@U?$pair@$$CBU?$pair@PEAUHWND__@@I@std@@V?$basic_string@_WU?$char_traits@_W@std@@V?$allocator@_W@2@@2@@std@@@std@@@std@@QEAA@XZ 0000000140022710 f i TrayIconScraper.obj
 0001:00021750       ??0?$_Uninitialized_backout_al@V?$allocator@I@std@@@std@@QEAA@PEAIAEAV?$allocator@I@1@@Z 0000000140022750 f i TaskbarWindow.obj
 0001:00021750       ??0?$_Uninitialized_backout_al@V?$allocator@PEAUHMONITOR__@@@std@@@std@@QEAA@PEAPEAUHMONITOR__@@AEAV?$allocator@PEAUHMONITOR__@@@1@@Z 0000000140022750 f i TaskbarWindow.obj
 0001:00021750       ??0?$_Uninitialized_backout_al@V?$allocator@PEAUHWND__@@@std@@@std@@QEAA@PEAPEAUHWND__@@AEAV?$allocator@PEAUHWND__@@@1@@Z 0000000140022750 f i TaskbarWindow.obj
 0001:00021750       ??0?$_Uninitialized_backout_al@V?$allocator@PEAUTaskbarInstance@@@std@@@std@@QEAA@PEAPEAUTaskbarInstance@@AEAV?$allocator@PEAUTaskbarInstance@@@1@@Z 0000000140022750 f i TaskbarWindow.obj
 0001:00021750       ??0?$_Uninitialized_backout_al@V?$allocator@PEAU_PSP@@@std@@@std@@QEAA@PEAPEAU_PSP@@AEAV?$allocator@PEAU_PSP@@@1@@Z 0000000140022750 f i TaskbarProperties.obj
 0001:00021750       ??0?$_Uninitialized_backout_al@V?$allocator@UEliteTrayIcon@@@std@@@std@@QEAA@PEAUEliteTrayIcon@@AEAV?$allocator@UEliteTrayIcon@@@1@@Z 0000000140022750 f i TaskbarWindow.obj
 0001:00021750       ??0?$_Uninitialized_backout_al@V?$allocator@UMonitorInfo@@@std@@@std@@QEAA@PEAUMonitorInfo@@AEAV?$allocator@UMonitorInfo@@@1@@Z 0000000140022750 f i TaskbarProperties.obj
 0001:00021750       ??0?$_Uninitialized_backout_al@V?$allocator@USavedPos@@@std@@@std@@QEAA@PEAUSavedPos@@AEAV?$allocator@USavedPos@@@1@@Z 0000000140022750 f i DesktopWindow.obj
 0001:00021750       ??0?$_Uninitialized_backout_al@V?$allocator@UScrapedTrayIcon@@@std@@@std@@QEAA@PEAUScrapedTrayIcon@@AEAV?$allocator@UScrapedTrayIcon@@@1@@Z 0000000140022750 f i TaskbarWindow.obj
 0001:00021750       ??0?$_Uninitialized_backout_al@V?$allocator@UtagRECT@@@std@@@std@@QEAA@PEAUtagRECT@@AEAV?$allocator@UtagRECT@@@1@@Z 0000000140022750 f i TaskbarWindow.obj
 0001:00021750       ??0?$_Uninitialized_backout_al@V?$allocator@V?$basic_string@_WU?$char_traits@_W@std@@V?$allocator@_W@2@@std@@@std@@@std@@QEAA@PEAV?$basic_string@_WU?$char_traits@_W@std@@V?$allocator@_W@2@@1@AEAV?$allocator@V?$basic_string@_WU?$char_traits@_W@std@@V?$allocator@_W@2@@std@@@1@@Z 0000000140022750 f i StartButton.obj
 0001:00021750       ??0?$_Uninitialized_backout_al@V?$allocator@_W@std@@@std@@QEAA@PEA_WAEAV?$allocator@_W@1@@Z 0000000140022750 f i TrayIconScraper.obj
 0001:00021790       ??0?$_Vb_const_iterator@U?$_Wrap_alloc@V?$allocator@I@std@@@std@@@std@@QEAA@$$QEAV01@@Z 0000000140022790 f i TaskbarWindow.obj
 0001:00021790       ??0?$_Vb_const_iterator@U?$_Wrap_alloc@V?$allocator@I@std@@@std@@@std@@QEAA@AEBV01@@Z 0000000140022790 f i TaskbarWindow.obj
 0001:000217c0       ??0?$_Vb_const_iterator@U?$_Wrap_alloc@V?$allocator@I@std@@@std@@@std@@QEAA@PEBIPEBU_Container_base12@1@@Z 00000001400227c0 f i TaskbarWindow.obj
 0001:00021800       ??0?$_Vb_iter_base@U?$_Wrap_alloc@V?$allocator@I@std@@@std@@@std@@QEAA@$$QEAV01@@Z 0000000140022800 f i TaskbarWindow.obj
 0001:00021800       ??0?$_Vb_iter_base@U?$_Wrap_alloc@V?$allocator@I@std@@@std@@@std@@QEAA@AEBV01@@Z 0000000140022800 f i TaskbarWindow.obj
 0001:00021850       ??0?$_Vb_iter_base@U?$_Wrap_alloc@V?$allocator@I@std@@@std@@@std@@QEAA@PEBI_KPEBU_Container_base12@1@@Z 0000000140022850 f i TaskbarWindow.obj
 0001:000218b0       ??0?$_Vb_iterator@U?$_Wrap_alloc@V?$allocator@I@std@@@std@@@std@@QEAA@$$QEAV01@@Z 00000001400228b0 f i TaskbarWindow.obj
 0001:000218b0       ??0?$_Vb_iterator@U?$_Wrap_alloc@V?$allocator@I@std@@@std@@@std@@QEAA@AEBV01@@Z 00000001400228b0 f i TaskbarWindow.obj
 0001:000218e0       ??0?$_Vb_iterator@U?$_Wrap_alloc@V?$allocator@I@std@@@std@@@std@@QEAA@PEBIPEBU_Container_base12@1@@Z 00000001400228e0 f i TaskbarWindow.obj
 0001:00021920       ??0?$_Vb_reference@U?$_Wrap_alloc@V?$allocator@I@std@@@std@@@std@@QEAA@AEBV?$_Vb_iter_base@U?$_Wrap_alloc@V?$allocator@I@std@@@std@@@1@@Z 0000000140022920 f i TaskbarWindow.obj
 0001:00021970       ??0?$_Vb_val@V?$allocator@_N@std@@@std@@QEAA@AEBV?$allocator@_N@1@@Z 0000000140022970 f i TaskbarWindow.obj
 0001:000219f0       ??0?$basic_string@_WU?$char_traits@_W@std@@V?$allocator@_W@2@@std@@QEAA@AEBV01@@Z 00000001400229f0 f i TaskbarWindow.obj
 0001:00021a60       ??0?$list@UTaskButtonInfo@@V?$allocator@UTaskButtonInfo@@@std@@@std@@QEAA@XZ 0000000140022a60 f i TaskbarWindow.obj
 0001:00021aa0       ??0?$vector@IV?$allocator@I@std@@@std@@QEAA@AEBV?$allocator@I@1@@Z 0000000140022aa0 f i TaskbarWindow.obj
 0001:00021b00       ??0?$vector@_NV?$allocator@_N@std@@@std@@QEAA@XZ 0000000140022b00 f i TaskbarWindow.obj
 0001:00021b30       ??0Brush@Gdiplus@@IEAA@PEAVGpBrush@1@W4Status@1@@Z 0000000140022b30 f i TaskbarWindow.obj
 0001:00021b80       ??0Brush@Gdiplus@@IEAA@XZ  0000000140022b80 f i TaskbarWindow.obj
 0001:00021bc0       ??0Color@Gdiplus@@QEAA@EEEE@Z 0000000140022bc0 f i TaskbarWindow.obj
 0001:00021c10       ??0Graphics@Gdiplus@@QEAA@PEAUHDC__@@@Z 0000000140022c10 f i TaskbarWindow.obj
 0001:00021c60       ??0MonitorEnumData@@QEAA@XZ 0000000140022c60 f i TaskbarWindow.obj
 0001:00021cb0       ??0Pen@Gdiplus@@QEAA@AEBVColor@1@M@Z 0000000140022cb0 f i TaskbarWindow.obj
 0001:00021d20       ??0ScrapedTrayIcon@@QEAA@XZ 0000000140022d20 f i TaskbarWindow.obj
 0001:00021d40       ??0SolidBrush@Gdiplus@@QEAA@AEBVColor@1@@Z 0000000140022d40 f i TaskbarWindow.obj
 0001:00021db0       ??0TaskButtonInfo@@QEAA@AEBU0@@Z 0000000140022db0 f i TaskbarWindow.obj
 0001:00021e30       ??0TaskButtonInfo@@QEAA@XZ 0000000140022e30 f i TaskbarWindow.obj
 0001:00021e60       ??0_Iterator_base12@std@@QEAA@AEBU01@@Z 0000000140022e60 f i TaskbarWindow.obj
 0001:00021eb0       ??0_Iterator_base12@std@@QEAA@XZ 0000000140022eb0 f i TaskbarWindow.obj
 0001:00021ee0       ??1?$_Alloc_construct_ptr@V?$allocator@U?$_List_node@UTaskButtonInfo@@PEAX@std@@@std@@@std@@QEAA@XZ 0000000140022ee0 f i TaskbarWindow.obj
 0001:00021f20       ??1?$_List_const_iterator@V?$_List_val@U?$_List_simple_types@UTaskButtonInfo@@@std@@@std@@@std@@QEAA@XZ 0000000140022f20 f i TaskbarWindow.obj
 0001:00021f20       ??1?$_Tree_const_iterator@V?$_Tree_val@U?$_Tree_simple_types@U?$pair@$$CBU?$pair@PEAUHWND__@@I@std@@V?$basic_string@_WU?$char_traits@_W@std@@V?$allocator@_W@2@@2@@std@@@std@@@std@@@std@@QEAA@XZ 0000000140022f20 f i TrayIconScraper.obj
 0001:00021f20       ??1?$_Vb_const_iterator@U?$_Wrap_alloc@V?$allocator@I@std@@@std@@@std@@QEAA@XZ 0000000140022f20 f i TaskbarWindow.obj
 0001:00021f20       ??1?$_Vb_reference@U?$_Wrap_alloc@V?$allocator@I@std@@@std@@@std@@QEAA@XZ 0000000140022f20 f i TaskbarWindow.obj
 0001:00021f20       ??1?$_Vector_iterator@V?$_Vector_val@U?$_Simple_types@PEAUTaskbarInstance@@@std@@@std@@@std@@QEAA@XZ 0000000140022f20 f i TaskbarWindow.obj
 0001:00021f20       ??1?$_Vector_iterator@V?$_Vector_val@U?$_Simple_types@UEliteTrayIcon@@@std@@@std@@@std@@QEAA@XZ 0000000140022f20 f i TaskbarWindow.obj
 0001:00021f20       ??1?$_Vector_iterator@V?$_Vector_val@U?$_Simple_types@V?$basic_string@_WU?$char_traits@_W@std@@V?$allocator@_W@2@@std@@@std@@@std@@@std@@QEAA@XZ 0000000140022f20 f i DesktopWindow.obj
 0001:00021f40       ??1?$_List_iterator@V?$_List_val@U?$_List_simple_types@UTaskButtonInfo@@@std@@@std@@@std@@QEAA@XZ 0000000140022f40 f i TaskbarWindow.obj
 0001:00021f40       ??1?$_Tree_iterator@V?$_Tree_val@U?$_Tree_simple_types@U?$pair@$$CBU?$pair@PEAUHWND__@@I@std@@V?$basic_string@_WU?$char_traits@_W@std@@V?$allocator@_W@2@@2@@std@@@std@@@std@@@std@@QEAA@XZ 0000000140022f40 f i TrayIconScraper.obj
 0001:00021f40       ??1?$_Vb_iterator@U?$_Wrap_alloc@V?$allocator@I@std@@@std@@@std@@QEAA@XZ 0000000140022f40 f i TaskbarWindow.obj
 0001:00021f60       ??1?$_List_node_emplace_op2@V?$allocator@U?$_List_node@UTaskButtonInfo@@PEAX@std@@@std@@@std@@QEAA@XZ 0000000140022f60 f i TaskbarWindow.obj
 0001:00021fb0       ??1?$_List_unchecked_const_iterator@V?$_List_val@U?$_List_simple_types@UTaskButtonInfo@@@std@@@std@@U_Iterator_base12@2@@std@@QEAA@XZ 0000000140022fb0 f i TaskbarWindow.obj
 0001:00021fb0       ??1?$_Tree_unchecked_const_iterator@V?$_Tree_val@U?$_Tree_simple_types@U?$pair@$$CBU?$pair@PEAUHWND__@@I@std@@V?$basic_string@_WU?$char_traits@_W@std@@V?$allocator@_W@2@@2@@std@@@std@@@std@@U_Iterator_base12@2@@std@@QEAA@XZ 0000000140022fb0 f i TrayIconScraper.obj
 0001:00021fb0       ??1?$_Vb_iter_base@U?$_Wrap_alloc@V?$allocator@I@std@@@std@@@std@@QEAA@XZ 0000000140022fb0 f i TaskbarWindow.obj
 0001:00021fb0       ??1?$_Vector_const_iterator@V?$_Vector_val@U?$_Simple_types@PEAUTaskbarInstance@@@std@@@std@@@std@@QEAA@XZ 0000000140022fb0 f i TaskbarWindow.obj
 0001:00021fb0       ??1?$_Vector_const_iterator@V?$_Vector_val@U?$_Simple_types@UEliteTrayIcon@@@std@@@std@@@std@@QEAA@XZ 0000000140022fb0 f i TaskbarWindow.obj
 0001:00021fb0       ??1?$_Vector_const_iterator@V?$_Vector_val@U?$_Simple_types@V?$basic_string@_WU?$char_traits@_W@std@@V?$allocator@_W@2@@std@@@std@@@std@@@std@@QEAA@XZ 0000000140022fb0 f i DesktopWindow.obj
 0001:00021fd0       ??1?$_Uninitialized_backout_al@V?$allocator@I@std@@@std@@QEAA@XZ 0000000140022fd0 f i TaskbarWindow.obj
 0001:00021fd0       ??1?$_Uninitialized_backout_al@V?$allocator@PEAUHMONITOR__@@@std@@@std@@QEAA@XZ 0000000140022fd0 f i TaskbarWindow.obj
 0001:00021fd0       ??1?$_Uninitialized_backout_al@V?$allocator@PEAUHWND__@@@std@@@std@@QEAA@XZ 0000000140022fd0 f i TaskbarWindow.obj
 0001:00021fd0       ??1?$_Uninitialized_backout_al@V?$allocator@PEAUTaskbarInstance@@@std@@@std@@QEAA@XZ 0000000140022fd0 f i TaskbarWindow.obj
 0001:00021fd0       ??1?$_Uninitialized_backout_al@V?$allocator@PEAU_PSP@@@std@@@std@@QEAA@XZ 0000000140022fd0 f i TaskbarProperties.obj
 0001:00021fd0       ??1?$_Uninitialized_backout_al@V?$allocator@UEliteTrayIcon@@@std@@@std@@QEAA@XZ 0000000140022fd0 f i TaskbarWindow.obj
 0001:00021fd0       ??1?$_Uninitialized_backout_al@V?$allocator@UMonitorInfo@@@std@@@std@@QEAA@XZ 0000000140022fd0 f i TaskbarProperties.obj
 0001:00021fd0       ??1?$_Uninitialized_backout_al@V?$allocator@UScrapedTrayIcon@@@std@@@std@@QEAA@XZ 0000000140022fd0 f i TaskbarWindow.obj
 0001:00021fd0       ??1?$_Uninitialized_backout_al@V?$allocator@UtagRECT@@@std@@@std@@QEAA@XZ 0000000140022fd0 f i TaskbarWindow.obj
 0001:00021fd0       ??1?$_Uninitialized_backout_al@V?$allocator@_W@std@@@std@@QEAA@XZ 0000000140022fd0 f i TrayIconScraper.obj
 0001:00022000       ??1?$_Vb_val@V?$allocator@_N@std@@@std@@QEAA@XZ 0000000140023000 f i TaskbarWindow.obj
 0001:00022080       ??1?$list@UTaskButtonInfo@@V?$allocator@UTaskButtonInfo@@@std@@@std@@QEAA@XZ 0000000140023080 f i TaskbarWindow.obj
 0001:000220d0       ??1?$vector@IV?$allocator@I@std@@@std@@QEAA@XZ 00000001400230d0 f i TaskbarWindow.obj
 0001:00022140       ??1?$vector@UEliteTrayIcon@@V?$allocator@UEliteTrayIcon@@@std@@@std@@QEAA@XZ 0000000140023140 f i TaskbarWindow.obj
 0001:000221b0       ??1?$vector@UMonitorInfo@@V?$allocator@UMonitorInfo@@@std@@@std@@QEAA@XZ 00000001400231b0 f i TaskbarProperties.obj
 0001:000221b0       ??1?$vector@UScrapedTrayIcon@@V?$allocator@UScrapedTrayIcon@@@std@@@std@@QEAA@XZ 00000001400231b0 f i TaskbarWindow.obj
 0001:00022220       ??1?$vector@UtagRECT@@V?$allocator@UtagRECT@@@std@@@std@@QEAA@XZ 0000000140023220 f i TaskbarWindow.obj
 0001:00022290       ??1?$vector@_NV?$allocator@_N@std@@@std@@QEAA@XZ 0000000140023290 f i TaskbarWindow.obj
 0001:000222b0       ??1Brush@Gdiplus@@UEAA@XZ  00000001400232b0 f i TaskbarWindow.obj
 0001:000222e0       ??1Graphics@Gdiplus@@QEAA@XZ 00000001400232e0 f i TaskbarWindow.obj
 0001:00022300       ??1MonitorEnumData@@QEAA@XZ 0000000140023300 f i TaskbarWindow.obj
 0001:00022340       ??1Pen@Gdiplus@@QEAA@XZ    0000000140023340 f i TaskbarWindow.obj
 0001:00022360       ??1SolidBrush@Gdiplus@@UEAA@XZ 0000000140023360 f i TaskbarWindow.obj
 0001:00022360       ??1TextureBrush@Gdiplus@@UEAA@XZ 0000000140023360 f i DesktopWindow.obj
 0001:00022380       ??1?$pair@$$CBU?$pair@PEAUHWND__@@I@std@@V?$basic_string@_WU?$char_traits@_W@std@@V?$allocator@_W@2@@2@@std@@QEAA@XZ 0000000140023380 f i TrayIconScraper.obj
 0001:00022380       ??1TaskButtonInfo@@QEAA@XZ 0000000140023380 f i TaskbarWindow.obj
 0001:000223a0       ??1_Iterator_base12@std@@QEAA@XZ 00000001400233a0 f i TaskbarWindow.obj
 0001:000223c0       ??1_Reallocation_guard@?$vector@IV?$allocator@I@std@@@std@@QEAA@XZ 00000001400233c0 f i TaskbarWindow.obj
 0001:00022420       ??1_Reallocation_guard@?$vector@PEAUHMONITOR__@@V?$allocator@PEAUHMONITOR__@@@std@@@std@@QEAA@XZ 0000000140023420 f i TaskbarWindow.obj
 0001:00022420       ??1_Reallocation_guard@?$vector@PEAUHWND__@@V?$allocator@PEAUHWND__@@@std@@@std@@QEAA@XZ 0000000140023420 f i TaskbarWindow.obj
 0001:00022420       ??1_Reallocation_guard@?$vector@PEAUTaskbarInstance@@V?$allocator@PEAUTaskbarInstance@@@std@@@std@@QEAA@XZ 0000000140023420 f i TaskbarWindow.obj
 0001:00022420       ??1_Reallocation_guard@?$vector@PEAU_PSP@@V?$allocator@PEAU_PSP@@@std@@@std@@QEAA@XZ 0000000140023420 f i TaskbarProperties.obj
 0001:00022480       ??1_Reallocation_guard@?$vector@UEliteTrayIcon@@V?$allocator@UEliteTrayIcon@@@std@@@std@@QEAA@XZ 0000000140023480 f i TaskbarWindow.obj
 0001:000224e0       ??1_Reallocation_guard@?$vector@UMonitorInfo@@V?$allocator@UMonitorInfo@@@std@@@std@@QEAA@XZ 00000001400234e0 f i TaskbarProperties.obj
 0001:000224e0       ??1_Reallocation_guard@?$vector@UScrapedTrayIcon@@V?$allocator@UScrapedTrayIcon@@@std@@@std@@QEAA@XZ 00000001400234e0 f i TaskbarWindow.obj
 0001:00022540       ??1_Reallocation_guard@?$vector@UtagRECT@@V?$allocator@UtagRECT@@@std@@@std@@QEAA@XZ 0000000140023540 f i TaskbarWindow.obj
 0001:000225a0       ??2GdiplusBase@Gdiplus@@SAPEAX_K@Z 00000001400235a0 f i TaskbarWindow.obj
 0001:000225c0       ??3GdiplusBase@Gdiplus@@SAXPEAX@Z 00000001400235c0 f i TaskbarWindow.obj
 0001:000225e0       ??4?$_Vb_const_iterator@U?$_Wrap_alloc@V?$allocator@I@std@@@std@@@std@@QEAAAEAV01@$$QEAV01@@Z 00000001400235e0 f i TaskbarWindow.obj
 0001:00022610       ??4?$_Vb_iter_base@U?$_Wrap_alloc@V?$allocator@I@std@@@std@@@std@@QEAAAEAV01@$$QEAV01@@Z 0000000140023610 f i TaskbarWindow.obj
 0001:00022660       ??4?$_Vb_iterator@U?$_Wrap_alloc@V?$allocator@I@std@@@std@@@std@@QEAAAEAV01@$$QEAV01@@Z 0000000140023660 f i TaskbarWindow.obj
 0001:00022690       ??4?$_Vb_reference@U?$_Wrap_alloc@V?$allocator@I@std@@@std@@@std@@QEAAAEAV01@AEBV01@@Z 0000000140023690 f i TaskbarWindow.obj
 0001:000226c0       ??4?$_Vb_reference@U?$_Wrap_alloc@V?$allocator@I@std@@@std@@@std@@QEAAAEAV01@_N@Z 00000001400236c0 f i TaskbarWindow.obj
 0001:00022740       ??4?$basic_string@_WU?$char_traits@_W@std@@V?$allocator@_W@2@@std@@QEAAAEAV01@QEB_W@Z 0000000140023740 f i TaskbarWindow.obj
 0001:00022770       ??4_Iterator_base12@std@@QEAAAEAU01@AEBU01@@Z 0000000140023770 f i TaskbarWindow.obj
 0001:000227a0       ??8?$_List_const_iterator@V?$_List_val@U?$_List_simple_types@UTaskButtonInfo@@@std@@@std@@@std@@QEBA_NAEBV01@@Z 00000001400237a0 f i TaskbarWindow.obj
 0001:00022860       ??8?$_List_unchecked_const_iterator@V?$_List_val@U?$_List_simple_types@UTaskButtonInfo@@@std@@@std@@U_Iterator_base0@2@@std@@QEBA_NAEBV01@@Z 0000000140023860 f i TaskbarWindow.obj
 0001:000228a0       ??8?$_Vb_const_iterator@U?$_Wrap_alloc@V?$allocator@I@std@@@std@@@std@@QEBA_NAEBV01@@Z 00000001400238a0 f i TaskbarWindow.obj
 0001:00022910       ??8?$_Vector_const_iterator@V?$_Vector_val@U?$_Simple_types@PEAUTaskbarInstance@@@std@@@std@@@std@@QEBA_NAEBV01@@Z 0000000140023910 f i TaskbarWindow.obj
 0001:00022910       ??8?$_Vector_const_iterator@V?$_Vector_val@U?$_Simple_types@UEliteTrayIcon@@@std@@@std@@@std@@QEBA_NAEBV01@@Z 0000000140023910 f i TaskbarWindow.obj
 0001:00022960       ??9?$_List_const_iterator@V?$_List_val@U?$_List_simple_types@UTaskButtonInfo@@@std@@@std@@@std@@QEBA_NAEBV01@@Z 0000000140023960 f i TaskbarWindow.obj
 0001:000229a0       ??9?$_List_unchecked_const_iterator@V?$_List_val@U?$_List_simple_types@UTaskButtonInfo@@@std@@@std@@U_Iterator_base0@2@@std@@QEBA_NAEBV01@@Z 00000001400239a0 f i TaskbarWindow.obj
 0001:000229e0       ??9?$_Vb_const_iterator@U?$_Wrap_alloc@V?$allocator@I@std@@@std@@@std@@QEBA_NAEBV01@@Z 00000001400239e0 f i TaskbarWindow.obj
 0001:00022a20       ??9?$_Vector_const_iterator@V?$_Vector_val@U?$_Simple_types@PEAUTaskbarInstance@@@std@@@std@@@std@@QEBA_NAEBV01@@Z 0000000140023a20 f i TaskbarWindow.obj
 0001:00022a20       ??9?$_Vector_const_iterator@V?$_Vector_val@U?$_Simple_types@UEliteTrayIcon@@@std@@@std@@@std@@QEBA_NAEBV01@@Z 0000000140023a20 f i TaskbarWindow.obj
 0001:00022a60       ??A?$vector@PEAUHMONITOR__@@V?$allocator@PEAUHMONITOR__@@@std@@@std@@QEAAAEAPEAUHMONITOR__@@_K@Z 0000000140023a60 f i TaskbarWindow.obj
 0001:00022a60       ??A?$vector@PEAUTaskbarInstance@@V?$allocator@PEAUTaskbarInstance@@@std@@@std@@QEAAAEAPEAUTaskbarInstance@@_K@Z 0000000140023a60 f i TaskbarWindow.obj
 0001:00022b10       ??A?$vector@UScrapedTrayIcon@@V?$allocator@UScrapedTrayIcon@@@std@@@std@@QEAAAEAUScrapedTrayIcon@@_K@Z 0000000140023b10 f i TaskbarWindow.obj
 0001:00022bb0       ??A?$vector@UtagRECT@@V?$allocator@UtagRECT@@@std@@@std@@QEAAAEAUtagRECT@@_K@Z 0000000140023bb0 f i TaskbarWindow.obj
 0001:00022c50       ??A?$vector@_NV?$allocator@_N@std@@@std@@QEAA?AV?$_Vb_reference@U?$_Wrap_alloc@V?$allocator@I@std@@@std@@@1@_K@Z 0000000140023c50 f i TaskbarWindow.obj
 0001:00022d10       ??B?$_Vb_reference@U?$_Wrap_alloc@V?$allocator@I@std@@@std@@@std@@QEBA_NXZ 0000000140023d10 f i TaskbarWindow.obj
 0001:00022d60       ??C?$_List_iterator@V?$_List_val@U?$_List_simple_types@UTaskButtonInfo@@@std@@@std@@@std@@QEBAPEAUTaskButtonInfo@@XZ 0000000140023d60 f i TaskbarWindow.obj
 0001:00022d80       ??C?$_Vector_iterator@V?$_Vector_val@U?$_Simple_types@UEliteTrayIcon@@@std@@@std@@@std@@QEBAPEAUEliteTrayIcon@@XZ 0000000140023d80 f i TaskbarWindow.obj
 0001:00022ee0       ??D?$_List_const_iterator@V?$_List_val@U?$_List_simple_types@UTaskButtonInfo@@@std@@@std@@@std@@QEBAAEBUTaskButtonInfo@@XZ 0000000140023ee0 f i TaskbarWindow.obj
 0001:00022fd0       ??D?$_List_iterator@V?$_List_val@U?$_List_simple_types@UTaskButtonInfo@@@std@@@std@@@std@@QEBAAEAUTaskButtonInfo@@XZ 0000000140023fd0 f i TaskbarWindow.obj
 0001:00022ff0       ??D?$_List_unchecked_const_iterator@V?$_List_val@U?$_List_simple_types@UTaskButtonInfo@@@std@@@std@@U_Iterator_base0@2@@std@@QEBAAEBUTaskButtonInfo@@XZ 0000000140023ff0 f i TaskbarWindow.obj
 0001:00023010       ??D?$_List_unchecked_iterator@V?$_List_val@U?$_List_simple_types@UTaskButtonInfo@@@std@@@std@@@std@@QEBAAEAUTaskButtonInfo@@XZ 0000000140024010 f i TaskbarWindow.obj
 0001:00023030       ??D?$_Vb_iterator@U?$_Wrap_alloc@V?$allocator@I@std@@@std@@@std@@QEBA?AV?$_Vb_reference@U?$_Wrap_alloc@V?$allocator@I@std@@@std@@@1@XZ 0000000140024030 f i TaskbarWindow.obj
 0001:00023130       ??D?$_Vector_const_iterator@V?$_Vector_val@U?$_Simple_types@PEAUTaskbarInstance@@@std@@@std@@@std@@QEBAAEBQEAUTaskbarInstance@@XZ 0000000140024130 f i TaskbarWindow.obj
 0001:00023290       ??D?$_Vector_iterator@V?$_Vector_val@U?$_Simple_types@PEAUTaskbarInstance@@@std@@@std@@@std@@QEBAAEAPEAUTaskbarInstance@@XZ 0000000140024290 f i TaskbarWindow.obj
 0001:000232b0       ??E?$_List_const_iterator@V?$_List_val@U?$_List_simple_types@UTaskButtonInfo@@@std@@@std@@@std@@QEAAAEAV01@XZ 00000001400242b0 f i TaskbarWindow.obj
 0001:000233b0       ??E?$_List_iterator@V?$_List_val@U?$_List_simple_types@UTaskButtonInfo@@@std@@@std@@@std@@QEAAAEAV01@XZ 00000001400243b0 f i TaskbarWindow.obj
 0001:000233d0       ??E?$_List_unchecked_const_iterator@V?$_List_val@U?$_List_simple_types@UTaskButtonInfo@@@std@@@std@@U_Iterator_base0@2@@std@@QEAAAEAV01@XZ 00000001400243d0 f i TaskbarWindow.obj
 0001:000233f0       ??E?$_List_unchecked_iterator@V?$_List_val@U?$_List_simple_types@UTaskButtonInfo@@@std@@@std@@@std@@QEAAAEAV01@XZ 00000001400243f0 f i TaskbarWindow.obj
 0001:00023410       ??E?$_Vector_const_iterator@V?$_Vector_val@U?$_Simple_types@PEAUTaskbarInstance@@@std@@@std@@@std@@QEAAAEAV01@XZ 0000000140024410 f i TaskbarWindow.obj
 0001:00023570       ??E?$_Vector_const_iterator@V?$_Vector_val@U?$_Simple_types@UEliteTrayIcon@@@std@@@std@@@std@@QEAAAEAV01@XZ 0000000140024570 f i TaskbarWindow.obj
 0001:000236d0       ??E?$_Vector_iterator@V?$_Vector_val@U?$_Simple_types@PEAUTaskbarInstance@@@std@@@std@@@std@@QEAAAEAV01@XZ 00000001400246d0 f i TaskbarWindow.obj
 0001:000236f0       ??E?$_Vector_iterator@V?$_Vector_val@U?$_Simple_types@UEliteTrayIcon@@@std@@@std@@@std@@QEAAAEAV01@XZ 00000001400246f0 f i TaskbarWindow.obj
 0001:00023710       ??F?$_Vb_const_iterator@U?$_Wrap_alloc@V?$allocator@I@std@@@std@@@std@@QEAAAEAV01@XZ 0000000140024710 f i TaskbarWindow.obj
 0001:00023730       ??F?$_Vb_iterator@U?$_Wrap_alloc@V?$allocator@I@std@@@std@@@std@@QEAAAEAV01@XZ 0000000140024730 f i TaskbarWindow.obj
 0001:00023750       ??G?$_Vb_const_iterator@U?$_Wrap_alloc@V?$allocator@I@std@@@std@@@std@@QEBA_JAEBV01@@Z 0000000140024750 f i TaskbarWindow.obj
 0001:000237b0       ??H?$_Vb_iterator@U?$_Wrap_alloc@V?$allocator@I@std@@@std@@@std@@QEBA?AV01@_J@Z 00000001400247b0 f i TaskbarWindow.obj
 0001:00023810       ??M?$_Vb_const_iterator@U?$_Wrap_alloc@V?$allocator@I@std@@@std@@@std@@QEBA_NAEBV01@@Z 0000000140024810 f i TaskbarWindow.obj
 0001:00023890       ??N?$_Vb_const_iterator@U?$_Wrap_alloc@V?$allocator@I@std@@@std@@@std@@QEBA_NAEBV01@@Z 0000000140024890 f i TaskbarWindow.obj
 0001:000238d0       ??P?$_Vb_const_iterator@U?$_Wrap_alloc@V?$allocator@I@std@@@std@@@std@@QEBA_NAEBV01@@Z 00000001400248d0 f i TaskbarWindow.obj
 0001:00023910       ??R<lambda_967c2ed818824c5314a20ec3af46b793>@@QEBA@QEA_WQEB_W_K212@Z 0000000140024910 f i TaskbarWindow.obj
 0001:000239c0       ??Y?$_Vb_const_iterator@U?$_Wrap_alloc@V?$allocator@I@std@@@std@@@std@@QEAAAEAV01@_J@Z 00000001400249c0 f i TaskbarWindow.obj
 0001:00023c40       ??Y?$_Vb_iterator@U?$_Wrap_alloc@V?$allocator@I@std@@@std@@@std@@QEAAAEAV01@_J@Z 0000000140024c40 f i TaskbarWindow.obj
 0001:00023c70       ??_EBrush@Gdiplus@@UEAAPEAXI@Z 0000000140024c70 f i TaskbarWindow.obj
 0001:00023c70       ??_GBrush@Gdiplus@@UEAAPEAXI@Z 0000000140024c70 f i TaskbarWindow.obj
 0001:00023cd0       ??_ESolidBrush@Gdiplus@@UEAAPEAXI@Z 0000000140024cd0 f i TaskbarWindow.obj
 0001:00023cd0       ??_ETextureBrush@Gdiplus@@UEAAPEAXI@Z 0000000140024cd0 f i DesktopWindow.obj
 0001:00023cd0       ??_GSolidBrush@Gdiplus@@UEAAPEAXI@Z 0000000140024cd0 f i TaskbarWindow.obj
 0001:00023cd0       ??_GTextureBrush@Gdiplus@@UEAAPEAXI@Z 0000000140024cd0 f i DesktopWindow.obj
 0001:00023d30       ??_GStartButton@@QEAAPEAXI@Z 0000000140024d30 f i TaskbarWindow.obj
 0001:00023d70       ??_GTaskButtonInfo@@QEAAPEAXI@Z 0000000140024d70 f i TaskbarWindow.obj
 0001:00023db0       ?Clone@Brush@Gdiplus@@UEBAPEAV12@XZ 0000000140024db0 f i TaskbarWindow.obj
 0001:00023e60       ?DrawLine@Graphics@Gdiplus@@QEAA?AW4Status@2@PEBVPen@2@HHHH@Z 0000000140024e60 f i TaskbarWindow.obj
 0001:00023ec0       ?FillRectangle@Graphics@Gdiplus@@QEAA?AW4Status@2@PEBVBrush@2@HHHH@Z 0000000140024ec0 f i TaskbarWindow.obj
 0001:00023f20       ?GetTooltipLastIndex@@YAHPEAUHWND__@@@Z 0000000140024f20 f i TaskbarWindow.obj
 0001:00023f50       ?GetTooltipTracking@@YA_NPEAUHWND__@@@Z 0000000140024f50 f i TaskbarWindow.obj
 0001:00023f90       ?MakeARGB@Color@Gdiplus@@SAKEEEE@Z 0000000140024f90 f i TaskbarWindow.obj
 0001:00023fd0       ?SetNativeBrush@Brush@Gdiplus@@IEAAXPEAVGpBrush@2@@Z 0000000140024fd0 f i TaskbarWindow.obj
 0001:00023fd0       ?SetNativeImage@Image@Gdiplus@@IEAAXPEAVGpImage@2@@Z 0000000140024fd0 f i StartButton.obj
 0001:00023ff0       ?SetNativeFont@Font@Gdiplus@@IEAAXPEAVGpFont@2@@Z 0000000140024ff0 f i ClockWidget.obj
 0001:00023ff0       ?SetNativeGraphics@Graphics@Gdiplus@@IEAAXPEAVGpGraphics@2@@Z 0000000140024ff0 f i TaskbarWindow.obj
 0001:00024010       ?SetStatus@Brush@Gdiplus@@IEBA?AW4Status@2@W432@@Z 0000000140025010 f i TaskbarWindow.obj
 0001:00024010       ?SetStatus@Image@Gdiplus@@IEBA?AW4Status@2@W432@@Z 0000000140025010 f i StartButton.obj
 0001:00024040       ?SetStatus@Graphics@Gdiplus@@IEBA?AW4Status@2@W432@@Z 0000000140025040 f i TaskbarWindow.obj
 0001:00024070       ?SetTooltipLastIndex@@YAXPEAUHWND__@@H@Z 0000000140025070 f i TaskbarWindow.obj
 0001:000240a0       ?SetTooltipTracking@@YAXPEAUHWND__@@_N@Z 00000001400250a0 f i TaskbarWindow.obj
 0001:000240f0       ?_Adopt@_Iterator_base12@std@@QEAAXPEBU_Container_base12@2@@Z 00000001400250f0 f i TaskbarWindow.obj
 0001:00024120       ?_Adopt_locked@_Iterator_base12@std@@AEAAXPEBU_Container_base12@2@@Z 0000000140025120 f i TaskbarWindow.obj
 0001:00024160       ?_Adopt_unlocked@_Iterator_base12@std@@AEAAXPEBU_Container_base12@2@@Z 0000000140025160 f i TaskbarWindow.obj
 0001:000241f0       ?_Advance@?$_Vb_iter_base@U?$_Wrap_alloc@V?$allocator@I@std@@@std@@@std@@QEAAX_K@Z 00000001400251f0 f i TaskbarWindow.obj
 0001:00024260       ?_Alloc_sentinel_and_proxy@?$list@UTaskButtonInfo@@V?$allocator@UTaskButtonInfo@@@std@@@std@@AEAAXXZ 0000000140025260 f i TaskbarWindow.obj
 0001:00024320       ?_Allocate@?$_Alloc_construct_ptr@V?$allocator@U?$_List_node@UTaskButtonInfo@@PEAX@std@@@std@@@std@@QEAAXXZ 0000000140025320 f i TaskbarWindow.obj
 0001:00024360       ?_Assign_locked@_Iterator_base12@std@@AEAAXAEBU12@@Z 0000000140025360 f i TaskbarWindow.obj
 0001:000243a0       ?_Assign_unlocked@_Iterator_base12@std@@AEAAXAEBU12@@Z 00000001400253a0 f i TaskbarWindow.obj
 0001:00024400       ?_Calculate_growth@?$vector@IV?$allocator@I@std@@@std@@AEBA_K_K@Z 0000000140025400 f i TaskbarWindow.obj
 0001:00024490       ?_Calculate_growth@?$vector@PEAUHMONITOR__@@V?$allocator@PEAUHMONITOR__@@@std@@@std@@AEBA_K_K@Z 0000000140025490 f i TaskbarWindow.obj
 0001:00024490       ?_Calculate_growth@?$vector@PEAUHWND__@@V?$allocator@PEAUHWND__@@@std@@@std@@AEBA_K_K@Z 0000000140025490 f i TaskbarWindow.obj
 0001:00024490       ?_Calculate_growth@?$vector@PEAUTaskbarInstance@@V?$allocator@PEAUTaskbarInstance@@@std@@@std@@AEBA_K_K@Z 0000000140025490 f i TaskbarWindow.obj
 0001:00024490       ?_Calculate_growth@?$vector@PEAU_PSP@@V?$allocator@PEAU_PSP@@@std@@@std@@AEBA_K_K@Z 0000000140025490 f i TaskbarProperties.obj
 0001:00024520       ?_Calculate_growth@?$vector@UEliteTrayIcon@@V?$allocator@UEliteTrayIcon@@@std@@@std@@AEBA_K_K@Z 0000000140025520 f i TaskbarWindow.obj
 0001:000245b0       ?_Calculate_growth@?$vector@UMonitorInfo@@V?$allocator@UMonitorInfo@@@std@@@std@@AEBA_K_K@Z 00000001400255b0 f i TaskbarProperties.obj
 0001:000245b0       ?_Calculate_growth@?$vector@UScrapedTrayIcon@@V?$allocator@UScrapedTrayIcon@@@std@@@std@@AEBA_K_K@Z 00000001400255b0 f i TaskbarWindow.obj
 0001:00024640       ?_Calculate_growth@?$vector@UtagRECT@@V?$allocator@UtagRECT@@@std@@@std@@AEBA_K_K@Z 0000000140025640 f i TaskbarWindow.obj
 0001:000246d0       ?_Change_array@?$vector@IV?$allocator@I@std@@@std@@AEAAXQEAI_K1@Z 00000001400256d0 f i TaskbarWindow.obj
 0001:000247d0       ?_Change_array@?$vector@PEAUHMONITOR__@@V?$allocator@PEAUHMONITOR__@@@std@@@std@@AEAAXQEAPEAUHMONITOR__@@_K1@Z 00000001400257d0 f i TaskbarWindow.obj
 0001:000247d0       ?_Change_array@?$vector@PEAUHWND__@@V?$allocator@PEAUHWND__@@@std@@@std@@AEAAXQEAPEAUHWND__@@_K1@Z 00000001400257d0 f i TaskbarWindow.obj
 0001:000247d0       ?_Change_array@?$vector@PEAUTaskbarInstance@@V?$allocator@PEAUTaskbarInstance@@@std@@@std@@AEAAXQEAPEAUTaskbarInstance@@_K1@Z 00000001400257d0 f i TaskbarWindow.obj
 0001:000247d0       ?_Change_array@?$vector@PEAU_PSP@@V?$allocator@PEAU_PSP@@@std@@@std@@AEAAXQEAPEAU_PSP@@_K1@Z 00000001400257d0 f i TaskbarProperties.obj
 0001:000248d0       ?_Change_array@?$vector@UEliteTrayIcon@@V?$allocator@UEliteTrayIcon@@@std@@@std@@AEAAXQEAUEliteTrayIcon@@_K1@Z 00000001400258d0 f i TaskbarWindow.obj
 0001:000249e0       ?_Change_array@?$vector@UMonitorInfo@@V?$allocator@UMonitorInfo@@@std@@@std@@AEAAXQEAUMonitorInfo@@_K1@Z 00000001400259e0 f i TaskbarProperties.obj
 0001:000249e0       ?_Change_array@?$vector@UScrapedTrayIcon@@V?$allocator@UScrapedTrayIcon@@@std@@@std@@AEAAXQEAUScrapedTrayIcon@@_K1@Z 00000001400259e0 f i TaskbarWindow.obj
 0001:00024ae0       ?_Change_array@?$vector@UtagRECT@@V?$allocator@UtagRECT@@@std@@@std@@AEAAXQEAUtagRECT@@_K1@Z 0000000140025ae0 f i TaskbarWindow.obj
 0001:00024be0       ?_Compat@?$_Vb_const_iterator@U?$_Wrap_alloc@V?$allocator@I@std@@@std@@@std@@QEBAXAEBV12@@Z 0000000140025be0 f i TaskbarWindow.obj
 0001:00024c70       ?_Compat@?$_Vector_const_iterator@V?$_Vector_val@U?$_Simple_types@PEAUTaskbarInstance@@@std@@@std@@@std@@QEBAXAEBV12@@Z 0000000140025c70 f i TaskbarWindow.obj
 0001:00024c70       ?_Compat@?$_Vector_const_iterator@V?$_Vector_val@U?$_Simple_types@UEliteTrayIcon@@@std@@@std@@@std@@QEBAXAEBV12@@Z 0000000140025c70 f i TaskbarWindow.obj
 0001:00024d00       ?_Dec@?$_Vb_const_iterator@U?$_Wrap_alloc@V?$allocator@I@std@@@std@@@std@@QEAAXXZ 0000000140025d00 f i TaskbarWindow.obj
 0001:00024e30       ?_Getal@?$_Vb_val@V?$allocator@_N@std@@@std@@QEAAAEAV?$allocator@I@2@XZ 0000000140025e30 f i TaskbarWindow.obj
 0001:00024e50       ?_Getcont@_Iterator_base12@std@@QEBAPEBU_Container_base12@2@XZ 0000000140025e50 f i TaskbarWindow.obj
 0001:00024e90       ?_Getptr@?$_Vb_reference@U?$_Wrap_alloc@V?$allocator@I@std@@@std@@@std@@QEBAPEBIXZ 0000000140025e90 f i TaskbarWindow.obj
 0001:00024f80       ?_Insert_n@?$vector@_NV?$allocator@_N@std@@@std@@QEAA?AV?$_Vb_iterator@U?$_Wrap_alloc@V?$allocator@I@std@@@std@@@2@V?$_Vb_const_iterator@U?$_Wrap_alloc@V?$allocator@I@std@@@std@@@2@_KAEB_N@Z 0000000140025f80 f i TaskbarWindow.obj
 0001:000250c0       ?_Insert_x@?$vector@_NV?$allocator@_N@std@@@std@@QEAA_KV?$_Vb_const_iterator@U?$_Wrap_alloc@V?$allocator@I@std@@@std@@@2@_K@Z 00000001400260c0 f i TaskbarWindow.obj
 0001:00025470       ?_Make_iter@?$list@UTaskButtonInfo@@V?$allocator@UTaskButtonInfo@@@std@@@std@@QEBA?AV?$_List_iterator@V?$_List_val@U?$_List_simple_types@UTaskButtonInfo@@@std@@@std@@@2@PEAU?$_List_node@UTaskButtonInfo@@PEAX@2@@Z 0000000140026470 f i TaskbarWindow.obj
 0001:000254b0       ?_Mask@?$_Vb_reference@U?$_Wrap_alloc@V?$allocator@I@std@@@std@@@std@@IEBAIXZ 00000001400264b0 f i TaskbarWindow.obj
 0001:000254e0       ?_Nw@?$_Vb_val@V?$allocator@_N@std@@@std@@SA_K_K@Z 00000001400264e0 f i TaskbarWindow.obj
 0001:00025500       ?_Orphan_me_locked_v3@_Iterator_base12@std@@AEAAXXZ 0000000140026500 f i TaskbarWindow.obj
 0001:00025540       ?_Orphan_me_unlocked_v3@_Iterator_base12@std@@AEAAXXZ 0000000140026540 f i TaskbarWindow.obj
 0001:00025620       ?_Orphan_ptr2@?$_List_val@U?$_List_simple_types@UTaskButtonInfo@@@std@@@std@@QEAAXPEAU?$_List_node@UTaskButtonInfo@@PEAX@2@@Z 0000000140026620 f i TaskbarWindow.obj
 0001:000256e0       ?_Orphan_range@?$vector@IV?$allocator@I@std@@@std@@AEBAXPEAI0@Z 00000001400266e0 f i TaskbarWindow.obj
 0001:000256e0       ?_Orphan_range@?$vector@PEAUHMONITOR__@@V?$allocator@PEAUHMONITOR__@@@std@@@std@@AEBAXPEAPEAUHMONITOR__@@0@Z 00000001400266e0 f i TaskbarWindow.obj
 0001:000256e0       ?_Orphan_range@?$vector@PEAUHWND__@@V?$allocator@PEAUHWND__@@@std@@@std@@AEBAXPEAPEAUHWND__@@0@Z 00000001400266e0 f i TaskbarWindow.obj
 0001:000256e0       ?_Orphan_range@?$vector@PEAUTaskbarInstance@@V?$allocator@PEAUTaskbarInstance@@@std@@@std@@AEBAXPEAPEAUTaskbarInstance@@0@Z 00000001400266e0 f i TaskbarWindow.obj
 0001:000256e0       ?_Orphan_range@?$vector@PEAU_PSP@@V?$allocator@PEAU_PSP@@@std@@@std@@AEBAXPEAPEAU_PSP@@0@Z 00000001400266e0 f i TaskbarProperties.obj
 0001:000256e0       ?_Orphan_range@?$vector@UEliteTrayIcon@@V?$allocator@UEliteTrayIcon@@@std@@@std@@AEBAXPEAUEliteTrayIcon@@0@Z 00000001400266e0 f i TaskbarWindow.obj
 0001:000256e0       ?_Orphan_range@?$vector@UMonitorInfo@@V?$allocator@UMonitorInfo@@@std@@@std@@AEBAXPEAUMonitorInfo@@0@Z 00000001400266e0 f i TaskbarProperties.obj
 0001:000256e0       ?_Orphan_range@?$vector@USavedPos@@V?$allocator@USavedPos@@@std@@@std@@AEBAXPEAUSavedPos@@0@Z 00000001400266e0 f i DesktopWindow.obj
 0001:000256e0       ?_Orphan_range@?$vector@UScrapedTrayIcon@@V?$allocator@UScrapedTrayIcon@@@std@@@std@@AEBAXPEAUScrapedTrayIcon@@0@Z 00000001400266e0 f i TaskbarWindow.obj
 0001:000256e0       ?_Orphan_range@?$vector@UtagRECT@@V?$allocator@UtagRECT@@@std@@@std@@AEBAXPEAUtagRECT@@0@Z 00000001400266e0 f i TaskbarWindow.obj
 0001:000256e0       ?_Orphan_range@?$vector@V?$basic_string@_WU?$char_traits@_W@std@@V?$allocator@_W@2@@std@@V?$allocator@V?$basic_string@_WU?$char_traits@_W@std@@V?$allocator@_W@2@@std@@@2@@std@@AEBAXPEAV?$basic_string@_WU?$char_traits@_W@std@@V?$allocator@_W@2@@2@0@Z 00000001400266e0 f i StartButton.obj
 0001:00025710       ?_Orphan_range@?$vector@_NV?$allocator@_N@std@@@std@@QEBAX_K0@Z 0000000140026710 f i TaskbarWindow.obj
 0001:00025740       ?_Orphan_range_locked@?$vector@IV?$allocator@I@std@@@std@@AEBAXPEAI0@Z 0000000140026740 f i TaskbarWindow.obj
 0001:00025740       ?_Orphan_range_locked@?$vector@PEAUHMONITOR__@@V?$allocator@PEAUHMONITOR__@@@std@@@std@@AEBAXPEAPEAUHMONITOR__@@0@Z 0000000140026740 f i TaskbarWindow.obj
 0001:00025740       ?_Orphan_range_locked@?$vector@PEAUHWND__@@V?$allocator@PEAUHWND__@@@std@@@std@@AEBAXPEAPEAUHWND__@@0@Z 0000000140026740 f i TaskbarWindow.obj
 0001:00025740       ?_Orphan_range_locked@?$vector@PEAUTaskbarInstance@@V?$allocator@PEAUTaskbarInstance@@@std@@@std@@AEBAXPEAPEAUTaskbarInstance@@0@Z 0000000140026740 f i TaskbarWindow.obj
 0001:00025740       ?_Orphan_range_locked@?$vector@PEAU_PSP@@V?$allocator@PEAU_PSP@@@std@@@std@@AEBAXPEAPEAU_PSP@@0@Z 0000000140026740 f i TaskbarProperties.obj
 0001:00025740       ?_Orphan_range_locked@?$vector@UEliteTrayIcon@@V?$allocator@UEliteTrayIcon@@@std@@@std@@AEBAXPEAUEliteTrayIcon@@0@Z 0000000140026740 f i TaskbarWindow.obj
 0001:00025740       ?_Orphan_range_locked@?$vector@UMonitorInfo@@V?$allocator@UMonitorInfo@@@std@@@std@@AEBAXPEAUMonitorInfo@@0@Z 0000000140026740 f i TaskbarProperties.obj
 0001:00025740       ?_Orphan_range_locked@?$vector@USavedPos@@V?$allocator@USavedPos@@@std@@@std@@AEBAXPEAUSavedPos@@0@Z 0000000140026740 f i DesktopWindow.obj
 0001:00025740       ?_Orphan_range_locked@?$vector@UScrapedTrayIcon@@V?$allocator@UScrapedTrayIcon@@@std@@@std@@AEBAXPEAUScrapedTrayIcon@@0@Z 0000000140026740 f i TaskbarWindow.obj
 0001:00025740       ?_Orphan_range_locked@?$vector@UtagRECT@@V?$allocator@UtagRECT@@@std@@@std@@AEBAXPEAUtagRECT@@0@Z 0000000140026740 f i TaskbarWindow.obj
 0001:00025740       ?_Orphan_range_locked@?$vector@V?$basic_string@_WU?$char_traits@_W@std@@V?$allocator@_W@2@@std@@V?$allocator@V?$basic_string@_WU?$char_traits@_W@std@@V?$allocator@_W@2@@std@@@2@@std@@AEBAXPEAV?$basic_string@_WU?$char_traits@_W@std@@V?$allocator@_W@2@@2@0@Z 0000000140026740 f i StartButton.obj
 0001:00025790       ?_Orphan_range_locked@?$vector@_NV?$allocator@_N@std@@@std@@QEBAX_K0@Z 0000000140026790 f i TaskbarWindow.obj
 0001:000257e0       ?_Orphan_range_unlocked@?$vector@IV?$allocator@I@std@@@std@@AEBAXPEAI0@Z 00000001400267e0 f i TaskbarWindow.obj
 0001:000257e0       ?_Orphan_range_unlocked@?$vector@PEAUHMONITOR__@@V?$allocator@PEAUHMONITOR__@@@std@@@std@@AEBAXPEAPEAUHMONITOR__@@0@Z 00000001400267e0 f i TaskbarWindow.obj
 0001:000257e0       ?_Orphan_range_unlocked@?$vector@PEAUHWND__@@V?$allocator@PEAUHWND__@@@std@@@std@@AEBAXPEAPEAUHWND__@@0@Z 00000001400267e0 f i TaskbarWindow.obj
 0001:000257e0       ?_Orphan_range_unlocked@?$vector@PEAUTaskbarInstance@@V?$allocator@PEAUTaskbarInstance@@@std@@@std@@AEBAXPEAPEAUTaskbarInstance@@0@Z 00000001400267e0 f i TaskbarWindow.obj
 0001:000257e0       ?_Orphan_range_unlocked@?$vector@PEAU_PSP@@V?$allocator@PEAU_PSP@@@std@@@std@@AEBAXPEAPEAU_PSP@@0@Z 00000001400267e0 f i TaskbarProperties.obj
 0001:000257e0       ?_Orphan_range_unlocked@?$vector@UEliteTrayIcon@@V?$allocator@UEliteTrayIcon@@@std@@@std@@AEBAXPEAUEliteTrayIcon@@0@Z 00000001400267e0 f i TaskbarWindow.obj
 0001:000257e0       ?_Orphan_range_unlocked@?$vector@UMonitorInfo@@V?$allocator@UMonitorInfo@@@std@@@std@@AEBAXPEAUMonitorInfo@@0@Z 00000001400267e0 f i TaskbarProperties.obj
 0001:000257e0       ?_Orphan_range_unlocked@?$vector@USavedPos@@V?$allocator@USavedPos@@@std@@@std@@AEBAXPEAUSavedPos@@0@Z 00000001400267e0 f i DesktopWindow.obj
 0001:000257e0       ?_Orphan_range_unlocked@?$vector@UScrapedTrayIcon@@V?$allocator@UScrapedTrayIcon@@@std@@@std@@AEBAXPEAUScrapedTrayIcon@@0@Z 00000001400267e0 f i TaskbarWindow.obj
 0001:000257e0       ?_Orphan_range_unlocked@?$vector@UtagRECT@@V?$allocator@UtagRECT@@@std@@@std@@AEBAXPEAUtagRECT@@0@Z 00000001400267e0 f i TaskbarWindow.obj
 0001:000257e0       ?_Orphan_range_unlocked@?$vector@V?$basic_string@_WU?$char_traits@_W@std@@V?$allocator@_W@2@@std@@V?$allocator@V?$basic_string@_WU?$char_traits@_W@std@@V?$allocator@_W@2@@std@@@2@@std@@AEBAXPEAV?$basic_string@_WU?$char_traits@_W@std@@V?$allocator@_W@2@@2@0@Z 00000001400267e0 f i StartButton.obj
 0001:00025880       ?_Orphan_range_unlocked@?$vector@_NV?$allocator@_N@std@@@std@@QEBAX_K0@Z 0000000140026880 f i TaskbarWindow.obj
 0001:00025990       ?_Release@?$_Uninitialized_backout_al@V?$allocator@I@std@@@std@@QEAAPEAIXZ 0000000140026990 f i TaskbarWindow.obj
 0001:00025990       ?_Release@?$_Uninitialized_backout_al@V?$allocator@PEAUHMONITOR__@@@std@@@std@@QEAAPEAPEAUHMONITOR__@@XZ 0000000140026990 f i TaskbarWindow.obj
 0001:00025990       ?_Release@?$_Uninitialized_backout_al@V?$allocator@PEAUHWND__@@@std@@@std@@QEAAPEAPEAUHWND__@@XZ 0000000140026990 f i TaskbarWindow.obj
 0001:00025990       ?_Release@?$_Uninitialized_backout_al@V?$allocator@PEAUTaskbarInstance@@@std@@@std@@QEAAPEAPEAUTaskbarInstance@@XZ 0000000140026990 f i TaskbarWindow.obj
 0001:00025990       ?_Release@?$_Uninitialized_backout_al@V?$allocator@PEAU_PSP@@@std@@@std@@QEAAPEAPEAU_PSP@@XZ 0000000140026990 f i TaskbarProperties.obj
 0001:00025990       ?_Release@?$_Uninitialized_backout_al@V?$allocator@UEliteTrayIcon@@@std@@@std@@QEAAPEAUEliteTrayIcon@@XZ 0000000140026990 f i TaskbarWindow.obj
 0001:00025990       ?_Release@?$_Uninitialized_backout_al@V?$allocator@UMonitorInfo@@@std@@@std@@QEAAPEAUMonitorInfo@@XZ 0000000140026990 f i TaskbarProperties.obj
 0001:00025990       ?_Release@?$_Uninitialized_backout_al@V?$allocator@USavedPos@@@std@@@std@@QEAAPEAUSavedPos@@XZ 0000000140026990 f i DesktopWindow.obj
 0001:00025990       ?_Release@?$_Uninitialized_backout_al@V?$allocator@UScrapedTrayIcon@@@std@@@std@@QEAAPEAUScrapedTrayIcon@@XZ 0000000140026990 f i TaskbarWindow.obj
 0001:00025990       ?_Release@?$_Uninitialized_backout_al@V?$allocator@UtagRECT@@@std@@@std@@QEAAPEAUtagRECT@@XZ 0000000140026990 f i TaskbarWindow.obj
 0001:00025990       ?_Release@?$_Uninitialized_backout_al@V?$allocator@V?$basic_string@_WU?$char_traits@_W@std@@V?$allocator@_W@2@@std@@@std@@@std@@QEAAPEAV?$basic_string@_WU?$char_traits@_W@std@@V?$allocator@_W@2@@2@XZ 0000000140026990 f i StartButton.obj
 0001:00025990       ?_Release@?$_Uninitialized_backout_al@V?$allocator@_W@std@@@std@@QEAAPEA_WXZ 0000000140026990 f i TrayIconScraper.obj
 0001:000259b0       ?_Tidy@?$list@UTaskButtonInfo@@V?$allocator@UTaskButtonInfo@@@std@@@std@@AEAAXXZ 00000001400269b0 f i TaskbarWindow.obj
 0001:00025a10       ?_Tidy@?$vector@IV?$allocator@I@std@@@std@@AEAAXXZ 0000000140026a10 f i TaskbarWindow.obj
 0001:00025af0       ?_Tidy@?$vector@UEliteTrayIcon@@V?$allocator@UEliteTrayIcon@@@std@@@std@@AEAAXXZ 0000000140026af0 f i TaskbarWindow.obj
 0001:00025bd0       ?_Tidy@?$vector@UMonitorInfo@@V?$allocator@UMonitorInfo@@@std@@@std@@AEAAXXZ 0000000140026bd0 f i TaskbarProperties.obj
 0001:00025bd0       ?_Tidy@?$vector@UScrapedTrayIcon@@V?$allocator@UScrapedTrayIcon@@@std@@@std@@AEAAXXZ 0000000140026bd0 f i TaskbarWindow.obj
 0001:00025cb0       ?_Tidy@?$vector@UtagRECT@@V?$allocator@UtagRECT@@@std@@@std@@AEAAXXZ 0000000140026cb0 f i TaskbarWindow.obj
 0001:00025d90       ?_Total_off@?$_Vb_iter_base@U?$_Wrap_alloc@V?$allocator@I@std@@@std@@@std@@QEBA_JPEBV?$vector@_NV?$allocator@_N@std@@@2@@Z 0000000140026d90 f i TaskbarWindow.obj
 0001:00025de0       ?_Transfer_before@?$_List_node_emplace_op2@V?$allocator@U?$_List_node@UTaskButtonInfo@@PEAX@std@@@std@@@std@@QEAAPEAU?$_List_node@UTaskButtonInfo@@PEAX@2@QEAU32@@Z 0000000140026de0 f i TaskbarWindow.obj
 0001:00025e70       ?_Unchecked_begin@?$list@UTaskButtonInfo@@V?$allocator@UTaskButtonInfo@@@std@@@std@@QEAA?AV?$_List_unchecked_iterator@V?$_List_val@U?$_List_simple_types@UTaskButtonInfo@@@std@@@std@@@2@XZ 0000000140026e70 f i TaskbarWindow.obj
 0001:00025eb0       ?_Unchecked_begin@?$vector@PEAUHWND__@@V?$allocator@PEAUHWND__@@@std@@@std@@QEAAPEAPEAUHWND__@@XZ 0000000140026eb0 f i TaskbarWindow.obj
 0001:00025eb0       ?_Unchecked_begin@?$vector@PEAUTaskbarInstance@@V?$allocator@PEAUTaskbarInstance@@@std@@@std@@QEAAPEAPEAUTaskbarInstance@@XZ 0000000140026eb0 f i TaskbarWindow.obj
 0001:00025eb0       ?_Unchecked_begin@?$vector@UEliteTrayIcon@@V?$allocator@UEliteTrayIcon@@@std@@@std@@QEAAPEAUEliteTrayIcon@@XZ 0000000140026eb0 f i TaskbarWindow.obj
 0001:00025eb0       ?_Unchecked_begin@?$vector@UMonitorInfo@@V?$allocator@UMonitorInfo@@@std@@@std@@QEAAPEAUMonitorInfo@@XZ 0000000140026eb0 f i TaskbarProperties.obj
 0001:00025eb0       ?_Unchecked_begin@?$vector@USavedPos@@V?$allocator@USavedPos@@@std@@@std@@QEAAPEAUSavedPos@@XZ 0000000140026eb0 f i DesktopWindow.obj
 0001:00025eb0       ?_Unchecked_begin@?$vector@UScrapedTrayIcon@@V?$allocator@UScrapedTrayIcon@@@std@@@std@@QEAAPEAUScrapedTrayIcon@@XZ 0000000140026eb0 f i TrayIconScraper.obj
 0001:00025eb0       ?_Unchecked_begin@?$vector@UScrapedTrayIcon@@V?$allocator@UScrapedTrayIcon@@@std@@@std@@QEBAPEBUScrapedTrayIcon@@XZ 0000000140026eb0 f i TrayIconScraper.obj
 0001:00025eb0       ?_Unchecked_begin@?$vector@V?$basic_string@_WU?$char_traits@_W@std@@V?$allocator@_W@2@@std@@V?$allocator@V?$basic_string@_WU?$char_traits@_W@std@@V?$allocator@_W@2@@std@@@2@@std@@QEAAPEAV?$basic_string@_WU?$char_traits@_W@std@@V?$allocator@_W@2@@2@XZ 0000000140026eb0 f i StartButton.obj
 0001:00025eb0       ?data@?$vector@IV?$allocator@I@std@@@std@@QEAAPEAIXZ 0000000140026eb0 f i TaskbarWindow.obj
 0001:00025eb0       ?data@?$vector@IV?$allocator@I@std@@@std@@QEBAPEBIXZ 0000000140026eb0 f i TaskbarWindow.obj
 0001:00025eb0       ?data@?$vector@PEAU_PSP@@V?$allocator@PEAU_PSP@@@std@@@std@@QEAAPEAPEAU_PSP@@XZ 0000000140026eb0 f i TaskbarProperties.obj
 0001:00025ed0       ?_Unchecked_end@?$list@UTaskButtonInfo@@V?$allocator@UTaskButtonInfo@@@std@@@std@@QEAA?AV?$_List_unchecked_iterator@V?$_List_val@U?$_List_simple_types@UTaskButtonInfo@@@std@@@std@@@2@XZ 0000000140026ed0 f i TaskbarWindow.obj
 0001:00025f00       ?_Unchecked_end@?$vector@PEAUHWND__@@V?$allocator@PEAUHWND__@@@std@@@std@@QEAAPEAPEAUHWND__@@XZ 0000000140026f00 f i TaskbarWindow.obj
 0001:00025f00       ?_Unchecked_end@?$vector@PEAUTaskbarInstance@@V?$allocator@PEAUTaskbarInstance@@@std@@@std@@QEAAPEAPEAUTaskbarInstance@@XZ 0000000140026f00 f i TaskbarWindow.obj
 0001:00025f00       ?_Unchecked_end@?$vector@UEliteTrayIcon@@V?$allocator@UEliteTrayIcon@@@std@@@std@@QEAAPEAUEliteTrayIcon@@XZ 0000000140026f00 f i TaskbarWindow.obj
 0001:00025f00       ?_Unchecked_end@?$vector@UMonitorInfo@@V?$allocator@UMonitorInfo@@@std@@@std@@QEAAPEAUMonitorInfo@@XZ 0000000140026f00 f i TaskbarProperties.obj
 0001:00025f00       ?_Unchecked_end@?$vector@USavedPos@@V?$allocator@USavedPos@@@std@@@std@@QEAAPEAUSavedPos@@XZ 0000000140026f00 f i DesktopWindow.obj
 0001:00025f00       ?_Unchecked_end@?$vector@UScrapedTrayIcon@@V?$allocator@UScrapedTrayIcon@@@std@@@std@@QEAAPEAUScrapedTrayIcon@@XZ 0000000140026f00 f i TrayIconScraper.obj
 0001:00025f00       ?_Unchecked_end@?$vector@UScrapedTrayIcon@@V?$allocator@UScrapedTrayIcon@@@std@@@std@@QEBAPEBUScrapedTrayIcon@@XZ 0000000140026f00 f i TrayIconScraper.obj
 0001:00025f00       ?_Unchecked_end@?$vector@V?$basic_string@_WU?$char_traits@_W@std@@V?$allocator@_W@2@@std@@V?$allocator@V?$basic_string@_WU?$char_traits@_W@std@@V?$allocator@_W@2@@std@@@2@@std@@QEAAPEAV?$basic_string@_WU?$char_traits@_W@std@@V?$allocator@_W@2@@2@XZ 0000000140026f00 f i StartButton.obj
 0001:00025f00       ?_Unwrapped@?$_Vector_iterator@V?$_Vector_val@U?$_Simple_types@V?$basic_string@_WU?$char_traits@_W@std@@V?$allocator@_W@2@@std@@@std@@@std@@@std@@QEBAPEAV?$basic_string@_WU?$char_traits@_W@std@@V?$allocator@_W@2@@2@XZ 0000000140026f00 f i DesktopWindow.obj
 0001:00025f20       ?_Unlinknode@?$_List_val@U?$_List_simple_types@UTaskButtonInfo@@@std@@@std@@QEAAPEAU?$_List_node@UTaskButtonInfo@@PEAX@2@PEAU32@@Z 0000000140026f20 f i TaskbarWindow.obj
 0001:00025f90       ?_Verify_range@std@@YAXAEBV?$_Vb_const_iterator@U?$_Wrap_alloc@V?$allocator@I@std@@@std@@@1@0@Z 0000000140026f90 f i TaskbarWindow.obj
 0001:00026010       ?_Xlen@?$vector@_NV?$allocator@_N@std@@@std@@SAXXZ 0000000140027010 f i TaskbarWindow.obj
 0001:00026030       ?_Xlength@?$vector@IV?$allocator@I@std@@@std@@CAXXZ 0000000140027030 f i TaskbarWindow.obj
 0001:00026030       ?_Xlength@?$vector@PEAUHMONITOR__@@V?$allocator@PEAUHMONITOR__@@@std@@@std@@CAXXZ 0000000140027030 f i TaskbarWindow.obj
 0001:00026030       ?_Xlength@?$vector@PEAUHWND__@@V?$allocator@PEAUHWND__@@@std@@@std@@CAXXZ 0000000140027030 f i TaskbarWindow.obj
 0001:00026030       ?_Xlength@?$vector@PEAUTaskbarInstance@@V?$allocator@PEAUTaskbarInstance@@@std@@@std@@CAXXZ 0000000140027030 f i TaskbarWindow.obj
 0001:00026030       ?_Xlength@?$vector@PEAU_PSP@@V?$allocator@PEAU_PSP@@@std@@@std@@CAXXZ 0000000140027030 f i TaskbarProperties.obj
 0001:00026030       ?_Xlength@?$vector@UEliteTrayIcon@@V?$allocator@UEliteTrayIcon@@@std@@@std@@CAXXZ 0000000140027030 f i TaskbarWindow.obj
 0001:00026030       ?_Xlength@?$vector@UMonitorInfo@@V?$allocator@UMonitorInfo@@@std@@@std@@CAXXZ 0000000140027030 f i TaskbarProperties.obj
 0001:00026030       ?_Xlength@?$vector@USavedPos@@V?$allocator@USavedPos@@@std@@@std@@CAXXZ 0000000140027030 f i DesktopWindow.obj
 0001:00026030       ?_Xlength@?$vector@UScrapedTrayIcon@@V?$allocator@UScrapedTrayIcon@@@std@@@std@@CAXXZ 0000000140027030 f i TaskbarWindow.obj
 0001:00026030       ?_Xlength@?$vector@UtagRECT@@V?$allocator@UtagRECT@@@std@@@std@@CAXXZ 0000000140027030 f i TaskbarWindow.obj
 0001:00026030       ?_Xlength@?$vector@V?$basic_string@_WU?$char_traits@_W@std@@V?$allocator@_W@2@@std@@V?$allocator@V?$basic_string@_WU?$char_traits@_W@std@@V?$allocator@_W@2@@std@@@2@@std@@CAXXZ 0000000140027030 f i StartButton.obj
 0001:00026030       ?_Xlength@?$vector@_WV?$allocator@_W@std@@@std@@CAXXZ 0000000140027030 f i TrayIconScraper.obj
 0001:00026050       ?abs@@YAJJ@Z               0000000140027050 f i TaskbarWindow.obj
 0001:00026070       ?allocate@?$allocator@I@std@@QEAAPEAI_K@Z 0000000140027070 f i TaskbarWindow.obj
 0001:000260a0       ?allocate@?$allocator@PEAUHMONITOR__@@@std@@QEAAPEAPEAUHMONITOR__@@_K@Z 00000001400270a0 f i TaskbarWindow.obj
 0001:000260a0       ?allocate@?$allocator@PEAUHWND__@@@std@@QEAAPEAPEAUHWND__@@_K@Z 00000001400270a0 f i TaskbarWindow.obj
 0001:000260a0       ?allocate@?$allocator@PEAUTaskbarInstance@@@std@@QEAAPEAPEAUTaskbarInstance@@_K@Z 00000001400270a0 f i TaskbarWindow.obj
 0001:000260a0       ?allocate@?$allocator@PEAU_PSP@@@std@@QEAAPEAPEAU_PSP@@_K@Z 00000001400270a0 f i TaskbarProperties.obj
 0001:000260d0       ?allocate@?$allocator@U?$_List_node@UTaskButtonInfo@@PEAX@std@@@std@@QEAAPEAU?$_List_node@UTaskButtonInfo@@PEAX@2@_K@Z 00000001400270d0 f i TaskbarWindow.obj
 0001:00026100       ?allocate@?$allocator@UEliteTrayIcon@@@std@@QEAAPEAUEliteTrayIcon@@_K@Z 0000000140027100 f i TaskbarWindow.obj
 0001:00026130       ?allocate@?$allocator@UMonitorInfo@@@std@@QEAAPEAUMonitorInfo@@_K@Z 0000000140027130 f i TaskbarProperties.obj
 0001:00026130       ?allocate@?$allocator@UScrapedTrayIcon@@@std@@QEAAPEAUScrapedTrayIcon@@_K@Z 0000000140027130 f i TaskbarWindow.obj
 0001:00026160       ?assign@?$basic_string@_WU?$char_traits@_W@std@@V?$allocator@_W@2@@std@@QEAAAEAV12@QEB_W@Z 0000000140027160 f i TaskbarWindow.obj
 0001:000261a0       ?back@?$list@UTaskButtonInfo@@V?$allocator@UTaskButtonInfo@@@std@@@std@@QEAAAEAUTaskButtonInfo@@XZ 00000001400271a0 f i TaskbarWindow.obj
 0001:00026220       ?begin@?$list@UTaskButtonInfo@@V?$allocator@UTaskButtonInfo@@@std@@@std@@QEAA?AV?$_List_iterator@V?$_List_val@U?$_List_simple_types@UTaskButtonInfo@@@std@@@std@@@2@XZ 0000000140027220 f i TaskbarWindow.obj
 0001:00026260       ?begin@?$vector@PEAUTaskbarInstance@@V?$allocator@PEAUTaskbarInstance@@@std@@@std@@QEAA?AV?$_Vector_iterator@V?$_Vector_val@U?$_Simple_types@PEAUTaskbarInstance@@@std@@@std@@@2@XZ 0000000140027260 f i TaskbarWindow.obj
 0001:00026260       ?begin@?$vector@UEliteTrayIcon@@V?$allocator@UEliteTrayIcon@@@std@@@std@@QEAA?AV?$_Vector_iterator@V?$_Vector_val@U?$_Simple_types@UEliteTrayIcon@@@std@@@std@@@2@XZ 0000000140027260 f i TaskbarWindow.obj
 0001:00026260       ?begin@?$vector@V?$basic_string@_WU?$char_traits@_W@std@@V?$allocator@_W@2@@std@@V?$allocator@V?$basic_string@_WU?$char_traits@_W@std@@V?$allocator@_W@2@@std@@@2@@std@@QEAA?AV?$_Vector_iterator@V?$_Vector_val@U?$_Simple_types@V?$basic_string@_WU?$char_traits@_W@std@@V?$allocator@_W@2@@std@@@std@@@std@@@2@XZ 0000000140027260 f i DesktopWindow.obj
 0001:000262b0       ?begin@?$vector@_NV?$allocator@_N@std@@@std@@QEAA?AV?$_Vb_iterator@U?$_Wrap_alloc@V?$allocator@I@std@@@std@@@2@XZ 00000001400272b0 f i TaskbarWindow.obj
 0001:000262f0       ?capacity@?$vector@IV?$allocator@I@std@@@std@@QEBA_KXZ 00000001400272f0 f i TaskbarWindow.obj
 0001:00026320       ?capacity@?$vector@PEAUHMONITOR__@@V?$allocator@PEAUHMONITOR__@@@std@@@std@@QEBA_KXZ 0000000140027320 f i TaskbarWindow.obj
 0001:00026320       ?capacity@?$vector@PEAUHWND__@@V?$allocator@PEAUHWND__@@@std@@@std@@QEBA_KXZ 0000000140027320 f i TaskbarWindow.obj
 0001:00026320       ?capacity@?$vector@PEAUTaskbarInstance@@V?$allocator@PEAUTaskbarInstance@@@std@@@std@@QEBA_KXZ 0000000140027320 f i TaskbarWindow.obj
 0001:00026320       ?capacity@?$vector@PEAU_PSP@@V?$allocator@PEAU_PSP@@@std@@@std@@QEBA_KXZ 0000000140027320 f i TaskbarProperties.obj
 0001:00026350       ?capacity@?$vector@UEliteTrayIcon@@V?$allocator@UEliteTrayIcon@@@std@@@std@@QEBA_KXZ 0000000140027350 f i TaskbarWindow.obj
 0001:00026390       ?capacity@?$vector@UMonitorInfo@@V?$allocator@UMonitorInfo@@@std@@@std@@QEBA_KXZ 0000000140027390 f i TaskbarProperties.obj
 0001:00026390       ?capacity@?$vector@UScrapedTrayIcon@@V?$allocator@UScrapedTrayIcon@@@std@@@std@@QEBA_KXZ 0000000140027390 f i TaskbarWindow.obj
 0001:000263c0       ?capacity@?$vector@UtagRECT@@V?$allocator@UtagRECT@@@std@@@std@@QEBA_KXZ 00000001400273c0 f i TaskbarWindow.obj
 0001:000263f0       ?capacity@?$vector@_NV?$allocator@_N@std@@@std@@QEBA_KXZ 00000001400273f0 f i TaskbarWindow.obj
 0001:00026420       ?clear@?$vector@PEAUHWND__@@V?$allocator@PEAUHWND__@@@std@@@std@@QEAAXXZ 0000000140027420 f i TaskbarWindow.obj
 0001:00026420       ?clear@?$vector@PEAUTaskbarInstance@@V?$allocator@PEAUTaskbarInstance@@@std@@@std@@QEAAXXZ 0000000140027420 f i TaskbarWindow.obj
 0001:000264b0       ?deallocate@?$_Default_allocator_traits@V?$allocator@U?$_List_node@UTaskButtonInfo@@PEAX@std@@@std@@@std@@SAXAEAV?$allocator@U?$_List_node@UTaskButtonInfo@@PEAX@std@@@2@QEAU?$_List_node@UTaskButtonInfo@@PEAX@2@_K@Z 00000001400274b0 f i TaskbarWindow.obj
 0001:000264e0       ?deallocate@?$allocator@I@std@@QEAAXQEAI_K@Z 00000001400274e0 f i TaskbarWindow.obj
 0001:00026580       ?deallocate@?$allocator@U?$_List_node@UTaskButtonInfo@@PEAX@std@@@std@@QEAAXQEAU?$_List_node@UTaskButtonInfo@@PEAX@2@_K@Z 0000000140027580 f i TaskbarWindow.obj
 0001:00026610       ?deallocate@?$allocator@UEliteTrayIcon@@@std@@QEAAXQEAUEliteTrayIcon@@_K@Z 0000000140027610 f i TaskbarWindow.obj
 0001:000266b0       ?deallocate@?$allocator@UMonitorInfo@@@std@@QEAAXQEAUMonitorInfo@@_K@Z 00000001400276b0 f i TaskbarProperties.obj
 0001:000266b0       ?deallocate@?$allocator@UScrapedTrayIcon@@@std@@QEAAXQEAUScrapedTrayIcon@@_K@Z 00000001400276b0 f i TaskbarWindow.obj
 0001:00026740       ?deallocate@?$allocator@UtagRECT@@@std@@QEAAXQEAUtagRECT@@_K@Z 0000000140027740 f i TaskbarWindow.obj
 0001:000267d0       ?empty@?$vector@PEAUHWND__@@V?$allocator@PEAUHWND__@@@std@@@std@@QEBA_NXZ 00000001400277d0 f i TaskbarWindow.obj
 0001:000267d0       ?empty@?$vector@PEAUTaskbarInstance@@V?$allocator@PEAUTaskbarInstance@@@std@@@std@@QEBA_NXZ 00000001400277d0 f i TaskbarWindow.obj
 0001:000267d0       ?empty@?$vector@PEAU_PSP@@V?$allocator@PEAU_PSP@@@std@@@std@@QEBA_NXZ 00000001400277d0 f i TaskbarProperties.obj
 0001:000267d0       ?empty@?$vector@UMonitorInfo@@V?$allocator@UMonitorInfo@@@std@@@std@@QEBA_NXZ 00000001400277d0 f i TaskbarProperties.obj
 0001:000267d0       ?empty@?$vector@UScrapedTrayIcon@@V?$allocator@UScrapedTrayIcon@@@std@@@std@@QEBA_NXZ 00000001400277d0 f i TrayIconScraper.obj
 0001:000267d0       ?empty@?$vector@V?$basic_string@_WU?$char_traits@_W@std@@V?$allocator@_W@2@@std@@V?$allocator@V?$basic_string@_WU?$char_traits@_W@std@@V?$allocator@_W@2@@std@@@2@@std@@QEBA_NXZ 00000001400277d0 f i DesktopWindow.obj
 0001:00026810       ?empty@?$vector@_NV?$allocator@_N@std@@@std@@QEBA_NXZ 0000000140027810 f i TaskbarWindow.obj
 0001:00026840       ?end@?$list@UTaskButtonInfo@@V?$allocator@UTaskButtonInfo@@@std@@@std@@QEAA?AV?$_List_iterator@V?$_List_val@U?$_List_simple_types@UTaskButtonInfo@@@std@@@std@@@2@XZ 0000000140027840 f i TaskbarWindow.obj
 0001:00026880       ?end@?$vector@PEAUTaskbarInstance@@V?$allocator@PEAUTaskbarInstance@@@std@@@std@@QEAA?AV?$_Vector_iterator@V?$_Vector_val@U?$_Simple_types@PEAUTaskbarInstance@@@std@@@std@@@2@XZ 0000000140027880 f i TaskbarWindow.obj
 0001:00026880       ?end@?$vector@UEliteTrayIcon@@V?$allocator@UEliteTrayIcon@@@std@@@std@@QEAA?AV?$_Vector_iterator@V?$_Vector_val@U?$_Simple_types@UEliteTrayIcon@@@std@@@std@@@2@XZ 0000000140027880 f i TaskbarWindow.obj
 0001:00026880       ?end@?$vector@V?$basic_string@_WU?$char_traits@_W@std@@V?$allocator@_W@2@@std@@V?$allocator@V?$basic_string@_WU?$char_traits@_W@std@@V?$allocator@_W@2@@std@@@2@@std@@QEAA?AV?$_Vector_iterator@V?$_Vector_val@U?$_Simple_types@V?$basic_string@_WU?$char_traits@_W@std@@V?$allocator@_W@2@@std@@@std@@@std@@@2@XZ 0000000140027880 f i DesktopWindow.obj
 0001:000268d0       ?end@?$vector@_NV?$allocator@_N@std@@@std@@QEAA?AV?$_Vb_iterator@U?$_Wrap_alloc@V?$allocator@I@std@@@std@@@2@XZ 00000001400278d0 f i TaskbarWindow.obj
 0001:00026920       ?erase@?$list@UTaskButtonInfo@@V?$allocator@UTaskButtonInfo@@@std@@@std@@QEAA?AV?$_List_iterator@V?$_List_val@U?$_List_simple_types@UTaskButtonInfo@@@std@@@std@@@2@V?$_List_const_iterator@V?$_List_val@U?$_List_simple_types@UTaskButtonInfo@@@std@@@std@@@2@@Z 0000000140027920 f i TaskbarWindow.obj
 0001:00026a20       ?erase@?$vector@PEAUTaskbarInstance@@V?$allocator@PEAUTaskbarInstance@@@std@@@std@@QEAA?AV?$_Vector_iterator@V?$_Vector_val@U?$_Simple_types@PEAUTaskbarInstance@@@std@@@std@@@2@V?$_Vector_const_iterator@V?$_Vector_val@U?$_Simple_types@PEAUTaskbarInstance@@@std@@@std@@@2@@Z 0000000140027a20 f i TaskbarWindow.obj
 0001:00026bb0       ?erase@?$vector@UEliteTrayIcon@@V?$allocator@UEliteTrayIcon@@@std@@@std@@QEAA?AV?$_Vector_iterator@V?$_Vector_val@U?$_Simple_types@UEliteTrayIcon@@@std@@@std@@@2@V?$_Vector_const_iterator@V?$_Vector_val@U?$_Simple_types@UEliteTrayIcon@@@std@@@std@@@2@@Z 0000000140027bb0 f i TaskbarWindow.obj
 0001:00026d40       ?insert@?$basic_string@_WU?$char_traits@_W@std@@V?$allocator@_W@2@@std@@QEAAAEAV12@_KQEB_W0@Z 0000000140027d40 f i TaskbarWindow.obj
 0001:00026f70       ?insert@?$basic_string@_WU?$char_traits@_W@std@@V?$allocator@_W@2@@std@@QEAAAEAV12@_KQEB_W@Z 0000000140027f70 f i TaskbarWindow.obj
 0001:00026fc0       ?insert@?$vector@_NV?$allocator@_N@std@@@std@@QEAA?AV?$_Vb_iterator@U?$_Wrap_alloc@V?$allocator@I@std@@@std@@@2@V?$_Vb_const_iterator@U?$_Wrap_alloc@V?$allocator@I@std@@@std@@@2@AEB_N@Z 0000000140027fc0 f i TaskbarWindow.obj
 0001:00027060       ?max_size@?$_Default_allocator_traits@V?$allocator@I@std@@@std@@SA_KAEBV?$allocator@I@2@@Z 0000000140028060 f i TaskbarWindow.obj
 0001:00027070       ?max_size@?$_Default_allocator_traits@V?$allocator@PEAUHMONITOR__@@@std@@@std@@SA_KAEBV?$allocator@PEAUHMONITOR__@@@2@@Z 0000000140028070 f i TaskbarWindow.obj
 0001:00027070       ?max_size@?$_Default_allocator_traits@V?$allocator@PEAUHWND__@@@std@@@std@@SA_KAEBV?$allocator@PEAUHWND__@@@2@@Z 0000000140028070 f i TaskbarWindow.obj
 0001:00027070       ?max_size@?$_Default_allocator_traits@V?$allocator@PEAUTaskbarInstance@@@std@@@std@@SA_KAEBV?$allocator@PEAUTaskbarInstance@@@2@@Z 0000000140028070 f i TaskbarWindow.obj
 0001:00027070       ?max_size@?$_Default_allocator_traits@V?$allocator@PEAU_PSP@@@std@@@std@@SA_KAEBV?$allocator@PEAU_PSP@@@2@@Z 0000000140028070 f i TaskbarProperties.obj
 0001:00027080       ?max_size@?$_Default_allocator_traits@V?$allocator@U?$_List_node@UTaskButtonInfo@@PEAX@std@@@std@@@std@@SA_KAEBV?$allocator@U?$_List_node@UTaskButtonInfo@@PEAX@std@@@2@@Z 0000000140028080 f i TaskbarWindow.obj
 0001:00027090       ?max_size@?$_Default_allocator_traits@V?$allocator@UEliteTrayIcon@@@std@@@std@@SA_KAEBV?$allocator@UEliteTrayIcon@@@2@@Z 0000000140028090 f i TaskbarWindow.obj
 0001:000270a0       ?max_size@?$_Default_allocator_traits@V?$allocator@UMonitorInfo@@@std@@@std@@SA_KAEBV?$allocator@UMonitorInfo@@@2@@Z 00000001400280a0 f i TaskbarProperties.obj
 0001:000270a0       ?max_size@?$_Default_allocator_traits@V?$allocator@UScrapedTrayIcon@@@std@@@std@@SA_KAEBV?$allocator@UScrapedTrayIcon@@@2@@Z 00000001400280a0 f i TaskbarWindow.obj
 0001:000270b0       ?max_size@?$_Default_allocator_traits@V?$allocator@UtagRECT@@@std@@@std@@SA_KAEBV?$allocator@UtagRECT@@@2@@Z 00000001400280b0 f i TaskbarWindow.obj
 0001:000270c0       ?max_size@?$list@UTaskButtonInfo@@V?$allocator@UTaskButtonInfo@@@std@@@std@@QEBA_KXZ 00000001400280c0 f i TaskbarWindow.obj
 0001:00027110       ?max_size@?$vector@IV?$allocator@I@std@@@std@@QEBA_KXZ 0000000140028110 f i TaskbarWindow.obj
 0001:00027160       ?max_size@?$vector@PEAUHMONITOR__@@V?$allocator@PEAUHMONITOR__@@@std@@@std@@QEBA_KXZ 0000000140028160 f i TaskbarWindow.obj
 0001:00027160       ?max_size@?$vector@PEAUHWND__@@V?$allocator@PEAUHWND__@@@std@@@std@@QEBA_KXZ 0000000140028160 f i TaskbarWindow.obj
 0001:00027160       ?max_size@?$vector@PEAUTaskbarInstance@@V?$allocator@PEAUTaskbarInstance@@@std@@@std@@QEBA_KXZ 0000000140028160 f i TaskbarWindow.obj
 0001:00027160       ?max_size@?$vector@PEAU_PSP@@V?$allocator@PEAU_PSP@@@std@@@std@@QEBA_KXZ 0000000140028160 f i TaskbarProperties.obj
 0001:000271b0       ?max_size@?$vector@UEliteTrayIcon@@V?$allocator@UEliteTrayIcon@@@std@@@std@@QEBA_KXZ 00000001400281b0 f i TaskbarWindow.obj
 0001:00027200       ?max_size@?$vector@UMonitorInfo@@V?$allocator@UMonitorInfo@@@std@@@std@@QEBA_KXZ 0000000140028200 f i TaskbarProperties.obj
 0001:00027200       ?max_size@?$vector@UScrapedTrayIcon@@V?$allocator@UScrapedTrayIcon@@@std@@@std@@QEBA_KXZ 0000000140028200 f i TaskbarWindow.obj
 0001:00027250       ?max_size@?$vector@UtagRECT@@V?$allocator@UtagRECT@@@std@@@std@@QEBA_KXZ 0000000140028250 f i TaskbarWindow.obj
 0001:000272a0       ?max_size@?$vector@_NV?$allocator@_N@std@@@std@@QEBA_KXZ 00000001400282a0 f i TaskbarWindow.obj
 0001:00027300       ?push_back@?$list@UTaskButtonInfo@@V?$allocator@UTaskButtonInfo@@@std@@@std@@QEAAXAEBUTaskButtonInfo@@@Z 0000000140028300 f i TaskbarWindow.obj
 0001:00027330       ?push_back@?$vector@PEAUHMONITOR__@@V?$allocator@PEAUHMONITOR__@@@std@@@std@@QEAAXAEBQEAUHMONITOR__@@@Z 0000000140028330 f i TaskbarWindow.obj
 0001:00027330       ?push_back@?$vector@PEAUHWND__@@V?$allocator@PEAUHWND__@@@std@@@std@@QEAAXAEBQEAUHWND__@@@Z 0000000140028330 f i TaskbarWindow.obj
 0001:00027330       ?push_back@?$vector@PEAUTaskbarInstance@@V?$allocator@PEAUTaskbarInstance@@@std@@@std@@QEAAXAEBQEAUTaskbarInstance@@@Z 0000000140028330 f i TaskbarWindow.obj
 0001:00027330       ?push_back@?$vector@PEAU_PSP@@V?$allocator@PEAU_PSP@@@std@@@std@@QEAAXAEBQEAU_PSP@@@Z 0000000140028330 f i TaskbarProperties.obj
 0001:00027360       ?push_back@?$vector@UEliteTrayIcon@@V?$allocator@UEliteTrayIcon@@@std@@@std@@QEAAXAEBUEliteTrayIcon@@@Z 0000000140028360 f i TaskbarWindow.obj
 0001:00027390       ?push_back@?$vector@UMonitorInfo@@V?$allocator@UMonitorInfo@@@std@@@std@@QEAAXAEBUMonitorInfo@@@Z 0000000140028390 f i TaskbarProperties.obj
 0001:00027390       ?push_back@?$vector@UScrapedTrayIcon@@V?$allocator@UScrapedTrayIcon@@@std@@@std@@QEAAXAEBUScrapedTrayIcon@@@Z 0000000140028390 f i TaskbarWindow.obj
 0001:000273c0       ?push_back@?$vector@UtagRECT@@V?$allocator@UtagRECT@@@std@@@std@@QEAAXAEBUtagRECT@@@Z 00000001400283c0 f i TaskbarWindow.obj
 0001:000273f0       ?push_back@?$vector@_NV?$allocator@_N@std@@@std@@QEAAXAEB_N@Z 00000001400283f0 f i TaskbarWindow.obj
 0001:00027480       ?resize@?$vector@IV?$allocator@I@std@@@std@@QEAAX_KAEBI@Z 0000000140028480 f i TaskbarWindow.obj
 0001:000274b0       ?size@?$vector@PEAUHMONITOR__@@V?$allocator@PEAUHMONITOR__@@@std@@@std@@QEBA_KXZ 00000001400284b0 f i TaskbarWindow.obj
 0001:000274b0       ?size@?$vector@PEAU_PSP@@V?$allocator@PEAU_PSP@@@std@@@std@@QEBA_KXZ 00000001400284b0 f i TaskbarProperties.obj
 0001:000274e0       ?size@?$vector@UMonitorInfo@@V?$allocator@UMonitorInfo@@@std@@@std@@QEBA_KXZ 00000001400284e0 f i TaskbarProperties.obj
 0001:000274e0       ?size@?$vector@UScrapedTrayIcon@@V?$allocator@UScrapedTrayIcon@@@std@@@std@@QEBA_KXZ 00000001400284e0 f i TaskbarWindow.obj
 0001:00027510       PropVariantInit            0000000140028510 f i TaskbarWindow.obj
 0001:00027540       ?GlobalInitialize@StartButton@@SA_NAEA_K@Z 0000000140028540 f   StartButton.obj
 0001:000275d0       ?GlobalCleanup@StartButton@@SAX_K@Z 00000001400285d0 f   StartButton.obj
 0001:000275f0       ??0StartButton@@QEAA@XZ    00000001400285f0 f   StartButton.obj
 0001:00027650       ??1StartButton@@QEAA@XZ    0000000140028650 f   StartButton.obj
 0001:000276d0       ?Initialize@StartButton@@QEAA_NPEAUHINSTANCE__@@PEAUHWND__@@H@Z 00000001400286d0 f   StartButton.obj
 0001:00027880       ?SetOrbImageFromResource@StartButton@@QEAAXPEAUHINSTANCE__@@H@Z 0000000140028880 f   StartButton.obj
 0001:00027ac0       ?ReloadOrbImage@StartButton@@QEAAXPEAUHINSTANCE__@@H@Z 0000000140028ac0 f   StartButton.obj
 0001:00027c00       ?Draw@StartButton@@QEAAXXZ 0000000140028c00 f   StartButton.obj
 0001:00027ff0       ?Show@StartButton@@QEAAXHHH@Z 0000000140028ff0 f   StartButton.obj
 0001:00028670       ?OrbWndProc@@YA_JPEAUHWND__@@I_K_J@Z 0000000140029670 f   StartButton.obj
 0001:000290b0       ??$_Allocate_at_least_helper@V?$allocator@V?$basic_string@_WU?$char_traits@_W@std@@V?$allocator@_W@2@@std@@@std@@@std@@YAPEAV?$basic_string@_WU?$char_traits@_W@std@@V?$allocator@_W@2@@0@AEAV?$allocator@V?$basic_string@_WU?$char_traits@_W@std@@V?$allocator@_W@2@@std@@@0@AEA_K@Z 000000014002a0b0 f i StartButton.obj
 0001:000290e0       ??$_Construct_in_place@V?$basic_string@_WU?$char_traits@_W@std@@V?$allocator@_W@2@@std@@V12@@std@@YAXAEAV?$basic_string@_WU?$char_traits@_W@std@@V?$allocator@_W@2@@0@$$QEAV10@@Z 000000014002a0e0 f i StartButton.obj
 0001:00029130       ??$_Destroy_range@V?$allocator@V?$basic_string@_WU?$char_traits@_W@std@@V?$allocator@_W@2@@std@@@std@@@std@@YAXPEAV?$basic_string@_WU?$char_traits@_W@std@@V?$allocator@_W@2@@0@QEAV10@AEAV?$allocator@V?$basic_string@_WU?$char_traits@_W@std@@V?$allocator@_W@2@@std@@@0@@Z 000000014002a130 f i StartButton.obj
 0001:00029180       ??$_Emplace_back@V?$basic_string@_WU?$char_traits@_W@std@@V?$allocator@_W@2@@std@@@?$_Uninitialized_backout_al@V?$allocator@V?$basic_string@_WU?$char_traits@_W@std@@V?$allocator@_W@2@@std@@@std@@@std@@QEAAX$$QEAV?$basic_string@_WU?$char_traits@_W@std@@V?$allocator@_W@2@@1@@Z 000000014002a180 f i StartButton.obj
 0001:000291e0       ??$_Emplace_back_with_unused_capacity@V?$basic_string@_WU?$char_traits@_W@std@@V?$allocator@_W@2@@std@@@?$vector@V?$basic_string@_WU?$char_traits@_W@std@@V?$allocator@_W@2@@std@@V?$allocator@V?$basic_string@_WU?$char_traits@_W@std@@V?$allocator@_W@2@@std@@@2@@std@@AEAAAEAV?$basic_string@_WU?$char_traits@_W@std@@V?$allocator@_W@2@@1@$$QEAV21@@Z 000000014002a1e0 f i StartButton.obj
 0001:00029270       ??$_Emplace_one_at_back@V?$basic_string@_WU?$char_traits@_W@std@@V?$allocator@_W@2@@std@@@?$vector@V?$basic_string@_WU?$char_traits@_W@std@@V?$allocator@_W@2@@std@@V?$allocator@V?$basic_string@_WU?$char_traits@_W@std@@V?$allocator@_W@2@@std@@@2@@std@@AEAAAEAV?$basic_string@_WU?$char_traits@_W@std@@V?$allocator@_W@2@@1@$$QEAV21@@Z 000000014002a270 f i StartButton.obj
 0001:000292f0       ??$_Emplace_reallocate@V?$basic_string@_WU?$char_traits@_W@std@@V?$allocator@_W@2@@std@@@?$vector@V?$basic_string@_WU?$char_traits@_W@std@@V?$allocator@_W@2@@std@@V?$allocator@V?$basic_string@_WU?$char_traits@_W@std@@V?$allocator@_W@2@@std@@@2@@std@@AEAAPEAV?$basic_string@_WU?$char_traits@_W@std@@V?$allocator@_W@2@@1@QEAV21@$$QEAV21@@Z 000000014002a2f0 f i StartButton.obj
 0001:00029580       ??$_Get_size_of_n@$0CI@@std@@YA_K_K@Z 000000014002a580 f i StartButton.obj
 0001:000295c0       ??$_Uninitialized_move@PEAV?$basic_string@_WU?$char_traits@_W@std@@V?$allocator@_W@2@@std@@V?$allocator@V?$basic_string@_WU?$char_traits@_W@std@@V?$allocator@_W@2@@std@@@2@@std@@YAPEAV?$basic_string@_WU?$char_traits@_W@std@@V?$allocator@_W@2@@0@QEAV10@0PEAV10@AEAV?$allocator@V?$basic_string@_WU?$char_traits@_W@std@@V?$allocator@_W@2@@std@@@0@@Z 000000014002a5c0 f i StartButton.obj
 0001:00029670       ??$construct@V?$basic_string@_WU?$char_traits@_W@std@@V?$allocator@_W@2@@std@@V12@@?$_Default_allocator_traits@V?$allocator@V?$basic_string@_WU?$char_traits@_W@std@@V?$allocator@_W@2@@std@@@std@@@std@@SAXAEAV?$allocator@V?$basic_string@_WU?$char_traits@_W@std@@V?$allocator@_W@2@@std@@@1@QEAV?$basic_string@_WU?$char_traits@_W@std@@V?$allocator@_W@2@@1@$$QEAV31@@Z 000000014002a670 f i StartButton.obj
 0001:000296c0       ??$destroy@V?$basic_string@_WU?$char_traits@_W@std@@V?$allocator@_W@2@@std@@@?$_Default_allocator_traits@V?$allocator@V?$basic_string@_WU?$char_traits@_W@std@@V?$allocator@_W@2@@std@@@std@@@std@@SAXAEAV?$allocator@V?$basic_string@_WU?$char_traits@_W@std@@V?$allocator@_W@2@@std@@@1@QEAV?$basic_string@_WU?$char_traits@_W@std@@V?$allocator@_W@2@@1@@Z 000000014002a6c0 f i StartButton.obj
 0001:000296e0       ??$swprintf_s@$0BCE@@@YAHAEAY0BCE@_WPEB_WZZ 000000014002a6e0 f i StartButton.obj
 0001:00029720       ??0GdiplusStartupInput@Gdiplus@@QEAA@P6AXW4DebugEventLevel@1@PEAD@ZHH@Z 000000014002a720 f i StartButton.obj
 0001:00029770       ??0Image@Gdiplus@@IEAA@PEAVGpImage@1@W4Status@1@@Z 000000014002a770 f i StartButton.obj
 0001:000297c0       ??0Image@Gdiplus@@QEAA@PEAUIStream@@H@Z 000000014002a7c0 f i StartButton.obj
 0001:00029840       ??0Rect@Gdiplus@@QEAA@HHHH@Z 000000014002a840 f i StartButton.obj
 0001:00029890       ??1?$_Uninitialized_backout_al@V?$allocator@V?$basic_string@_WU?$char_traits@_W@std@@V?$allocator@_W@2@@std@@@std@@@std@@QEAA@XZ 000000014002a890 f i StartButton.obj
 0001:000298c0       ??1?$vector@V?$basic_string@_WU?$char_traits@_W@std@@V?$allocator@_W@2@@std@@V?$allocator@V?$basic_string@_WU?$char_traits@_W@std@@V?$allocator@_W@2@@std@@@2@@std@@QEAA@XZ 000000014002a8c0 f i StartButton.obj
 0001:00029930       ??1Image@Gdiplus@@UEAA@XZ  000000014002a930 f i StartButton.obj
 0001:00029960       ??1_Reallocation_guard@?$vector@V?$basic_string@_WU?$char_traits@_W@std@@V?$allocator@_W@2@@std@@V?$allocator@V?$basic_string@_WU?$char_traits@_W@std@@V?$allocator@_W@2@@std@@@2@@std@@QEAA@XZ 000000014002a960 f i StartButton.obj
 0001:000299c0       ??_G?$basic_string@_WU?$char_traits@_W@std@@V?$allocator@_W@2@@std@@QEAAPEAXI@Z 000000014002a9c0 f i StartButton.obj
 0001:00029a00       ??_EImage@Gdiplus@@UEAAPEAXI@Z 000000014002aa00 f i StartButton.obj
 0001:00029a00       ??_GImage@Gdiplus@@UEAAPEAXI@Z 000000014002aa00 f i StartButton.obj
 0001:00029a60       ?Clear@Graphics@Gdiplus@@QEAA?AW4Status@2@AEBVColor@2@@Z 000000014002aa60 f i StartButton.obj
 0001:00029aa0       ?Clone@Image@Gdiplus@@UEAAPEAV12@XZ 000000014002aaa0 f i StartButton.obj
 0001:00029b30       ?DrawImage@Graphics@Gdiplus@@QEAA?AW4Status@2@PEAVImage@2@AEBVRect@2@HHHHW4Unit@2@PEBVImageAttributes@2@P6AHPEAX@Z4@Z 000000014002ab30 f i StartButton.obj
 0001:00029c60       ?FromStream@Image@Gdiplus@@SAPEAV12@PEAUIStream@@H@Z 000000014002ac60 f i StartButton.obj
 0001:00029cc0       ?GetHeight@Image@Gdiplus@@QEAAIXZ 000000014002acc0 f i StartButton.obj
 0001:00029d00       ?GetLastStatus@Image@Gdiplus@@QEBA?AW4Status@2@XZ 000000014002ad00 f i StartButton.obj
 0001:00029d30       ?GetParentTaskbar@StartButton@@QEBAPEAUHWND__@@XZ 000000014002ad30 f i StartButton.obj
 0001:00029d30       ?data@?$__crt_win32_buffer@DU__crt_win32_buffer_internal_dynamic_resizing@@@@QEAAPEADXZ 000000014002ad30 f i libucrtd:argv_wildcards.obj
 0001:00029d30       ?data@?$__crt_win32_buffer@DU__crt_win32_buffer_no_resizing@@@@QEAAPEADXZ 000000014002ad30 f i libucrtd:strftime.obj
 0001:00029d30       ?data@?$__crt_win32_buffer@_WU__crt_win32_buffer_internal_dynamic_resizing@@@@QEAAPEA_WXZ 000000014002ad30 f i libucrtd:strftime.obj
 0001:00029d40       ?GetState@StartButton@@QEBA?AW4OrbState@@XZ 000000014002ad40 f i StartButton.obj
 0001:00029d50       ?GetWidth@Image@Gdiplus@@QEAAIXZ 000000014002ad50 f i StartButton.obj
 0001:00029d90       ?IsTracking@StartButton@@QEBA_NXZ 000000014002ad90 f i StartButton.obj
 0001:00029da0       ?SetInterpolationMode@Graphics@Gdiplus@@QEAA?AW4Status@2@W4InterpolationMode@2@@Z 000000014002ada0 f i StartButton.obj
 0001:00029dd0       ?SetState@StartButton@@QEAAXW4OrbState@@@Z 000000014002add0 f i StartButton.obj
 0001:00029df0       ?SetTracking@StartButton@@QEAAX_N@Z 000000014002adf0 f i StartButton.obj
 0001:00029e10       ?_Calculate_growth@?$vector@V?$basic_string@_WU?$char_traits@_W@std@@V?$allocator@_W@2@@std@@V?$allocator@V?$basic_string@_WU?$char_traits@_W@std@@V?$allocator@_W@2@@std@@@2@@std@@AEBA_K_K@Z 000000014002ae10 f i StartButton.obj
 0001:00029ea0       ?_Change_array@?$vector@V?$basic_string@_WU?$char_traits@_W@std@@V?$allocator@_W@2@@std@@V?$allocator@V?$basic_string@_WU?$char_traits@_W@std@@V?$allocator@_W@2@@std@@@2@@std@@AEAAXQEAV?$basic_string@_WU?$char_traits@_W@std@@V?$allocator@_W@2@@2@_K1@Z 000000014002aea0 f i StartButton.obj
 0001:00029fb0       ?_Tidy@?$vector@V?$basic_string@_WU?$char_traits@_W@std@@V?$allocator@_W@2@@std@@V?$allocator@V?$basic_string@_WU?$char_traits@_W@std@@V?$allocator@_W@2@@std@@@2@@std@@AEAAXXZ 000000014002afb0 f i StartButton.obj
 0001:0002a090       ?allocate@?$allocator@V?$basic_string@_WU?$char_traits@_W@std@@V?$allocator@_W@2@@std@@@std@@QEAAPEAV?$basic_string@_WU?$char_traits@_W@std@@V?$allocator@_W@2@@2@_K@Z 000000014002b090 f i StartButton.obj
 0001:0002a0c0       ?capacity@?$vector@V?$basic_string@_WU?$char_traits@_W@std@@V?$allocator@_W@2@@std@@V?$allocator@V?$basic_string@_WU?$char_traits@_W@std@@V?$allocator@_W@2@@std@@@2@@std@@QEBA_KXZ 000000014002b0c0 f i StartButton.obj
 0001:0002a100       ?deallocate@?$allocator@V?$basic_string@_WU?$char_traits@_W@std@@V?$allocator@_W@2@@std@@@std@@QEAAXQEAV?$basic_string@_WU?$char_traits@_W@std@@V?$allocator@_W@2@@2@_K@Z 000000014002b100 f i StartButton.obj
 0001:0002a190       ?max_size@?$_Default_allocator_traits@V?$allocator@V?$basic_string@_WU?$char_traits@_W@std@@V?$allocator@_W@2@@std@@@std@@@std@@SA_KAEBV?$allocator@V?$basic_string@_WU?$char_traits@_W@std@@V?$allocator@_W@2@@std@@@2@@Z 000000014002b190 f i StartButton.obj
 0001:0002a1a0       ?max_size@?$vector@V?$basic_string@_WU?$char_traits@_W@std@@V?$allocator@_W@2@@std@@V?$allocator@V?$basic_string@_WU?$char_traits@_W@std@@V?$allocator@_W@2@@std@@@2@@std@@QEBA_KXZ 000000014002b1a0 f i StartButton.obj
 0001:0002a1f0       ?push_back@?$vector@V?$basic_string@_WU?$char_traits@_W@std@@V?$allocator@_W@2@@std@@V?$allocator@V?$basic_string@_WU?$char_traits@_W@std@@V?$allocator@_W@2@@std@@@2@@std@@QEAAX$$QEAV?$basic_string@_WU?$char_traits@_W@std@@V?$allocator@_W@2@@2@@Z 000000014002b1f0 f i StartButton.obj
 0001:0002a220       ?Draw@ClockWidget@@YAXPEAUHDC__@@UtagRECT@@@Z 000000014002b220 f   ClockWidget.obj
 0001:0002a690       ??0Font@Gdiplus@@QEAA@PEBVFontFamily@1@MHW4Unit@1@@Z 000000014002b690 f i ClockWidget.obj
 0001:0002a720       ??0FontFamily@Gdiplus@@QEAA@PEB_WPEBVFontCollection@1@@Z 000000014002b720 f i ClockWidget.obj
 0001:0002a790       ??0RectF@Gdiplus@@QEAA@MMMM@Z 000000014002b790 f i ClockWidget.obj
 0001:0002a7f0       ??0StringFormat@Gdiplus@@QEAA@HG@Z 000000014002b7f0 f i ClockWidget.obj
 0001:0002a840       ??1Font@Gdiplus@@QEAA@XZ   000000014002b840 f i ClockWidget.obj
 0001:0002a860       ??1FontFamily@Gdiplus@@QEAA@XZ 000000014002b860 f i ClockWidget.obj
 0001:0002a880       ??1StringFormat@Gdiplus@@QEAA@XZ 000000014002b880 f i ClockWidget.obj
 0001:0002a8a0       ?DrawString@Graphics@Gdiplus@@QEAA?AW4Status@2@PEB_WHPEBVFont@2@AEBVRectF@2@PEBVStringFormat@2@PEBVBrush@2@@Z 000000014002b8a0 f i ClockWidget.obj
 0001:0002a980       ?SetAlignment@StringFormat@Gdiplus@@QEAA?AW4Status@2@W4StringAlignment@2@@Z 000000014002b980 f i ClockWidget.obj
 0001:0002a9b0       ?SetLineAlignment@StringFormat@Gdiplus@@QEAA?AW4Status@2@W4StringAlignment@2@@Z 000000014002b9b0 f i ClockWidget.obj
 0001:0002a9e0       ?SetSmoothingMode@Graphics@Gdiplus@@QEAA?AW4Status@2@W4SmoothingMode@2@@Z 000000014002b9e0 f i ClockWidget.obj
 0001:0002aa10       ?SetStatus@StringFormat@Gdiplus@@IEBA?AW4Status@2@W432@@Z 000000014002ba10 f i ClockWidget.obj
 0001:0002aa40       ?SetTextRenderingHint@Graphics@Gdiplus@@QEAA?AW4Status@2@W4TextRenderingHint@2@@Z 000000014002ba40 f i ClockWidget.obj
 0001:0002aa70       ?ScrapeTrayIcons@@YA?AV?$vector@UScrapedTrayIcon@@V?$allocator@UScrapedTrayIcon@@@std@@@std@@XZ 000000014002ba70 f   TrayIconScraper.obj
 0001:0002abb0       ?UpdateTrayToolbar@@YAXPEAUHWND__@@PEAU_IMAGELIST@@AEBV?$vector@UScrapedTrayIcon@@V?$allocator@UScrapedTrayIcon@@@std@@@std@@@Z 000000014002bbb0 f   TrayIconScraper.obj
 0001:0002af60       ?GetScrapedTrayTooltip@@YA?AV?$basic_string@_WU?$char_traits@_W@std@@V?$allocator@_W@2@@std@@PEAUHWND__@@I@Z 000000014002bf60 f   TrayIconScraper.obj
 0001:0002b360       ?ScrapeTrayIconsFromToolbar@@YAXPEAUHWND__@@AEAV?$vector@UScrapedTrayIcon@@V?$allocator@UScrapedTrayIcon@@@std@@@std@@@Z 000000014002c360 f   TrayIconScraper.obj
 0001:0002b940       ??$?0$$QEAU?$pair@PEAUHWND__@@I@std@@$$Z$$V@?$pair@$$CBU?$pair@PEAUHWND__@@I@std@@V?$basic_string@_WU?$char_traits@_W@std@@V?$allocator@_W@2@@2@@std@@QEAA@Upiecewise_construct_t@1@V?$tuple@$$QEAU?$pair@PEAUHWND__@@I@std@@@1@V?$tuple@$$V@1@@Z 000000014002c940 f i TrayIconScraper.obj
 0001:0002b9b0       ??$?0AEAPEAUHWND__@@AEAI$0A@@?$pair@PEAUHWND__@@I@std@@QEAA@AEAPEAUHWND__@@AEAI@Z 000000014002c9b0 f i TrayIconScraper.obj
 0001:0002ba00       ??$?0AEBQEAU?$_Tree_node@U?$pair@$$CBU?$pair@PEAUHWND__@@I@std@@V?$basic_string@_WU?$char_traits@_W@std@@V?$allocator@_W@2@@2@@std@@PEAX@std@@_N$0A@@?$pair@PEAU?$_Tree_node@U?$pair@$$CBU?$pair@PEAUHWND__@@I@std@@V?$basic_string@_WU?$char_traits@_W@std@@V?$allocator@_W@2@@2@@std@@PEAX@std@@_N@std@@QEAA@AEBQEAU?$_Tree_node@U?$pair@$$CBU?$pair@PEAUHWND__@@I@std@@V?$basic_string@_WU?$char_traits@_W@std@@V?$allocator@_W@2@@2@@std@@PEAX@1@$$QEA_N@Z 000000014002ca00 f i TrayIconScraper.obj
 0001:0002ba00       ??$?0PEAU?$_Tree_node@U?$pair@$$CBU?$pair@PEAUHWND__@@I@std@@V?$basic_string@_WU?$char_traits@_W@std@@V?$allocator@_W@2@@2@@std@@PEAX@std@@_N$0A@@?$pair@PEAU?$_Tree_node@U?$pair@$$CBU?$pair@PEAUHWND__@@I@std@@V?$basic_string@_WU?$char_traits@_W@std@@V?$allocator@_W@2@@2@@std@@PEAX@std@@_N@std@@QEAA@$$QEAPEAU?$_Tree_node@U?$pair@$$CBU?$pair@PEAUHWND__@@I@std@@V?$basic_string@_WU?$char_traits@_W@std@@V?$allocator@_W@2@@2@@std@@PEAX@1@$$QEA_N@Z 000000014002ca00 f i TrayIconScraper.obj
 0001:0002ba50       ??$?0AEBU?$less@U?$pair@PEAUHWND__@@I@std@@@std@@U_Zero_then_variadic_args_t@1@@?$_Compressed_pair@U?$less@U?$pair@PEAUHWND__@@I@std@@@std@@V?$_Compressed_pair@V?$allocator@U?$_Tree_node@U?$pair@$$CBU?$pair@PEAUHWND__@@I@std@@V?$basic_string@_WU?$char_traits@_W@std@@V?$allocator@_W@2@@2@@std@@PEAX@std@@@std@@V?$_Tree_val@U?$_Tree_simple_types@U?$pair@$$CBU?$pair@PEAUHWND__@@I@std@@V?$basic_string@_WU?$char_traits@_W@std@@V?$allocator@_W@2@@2@@std@@@std@@@2@$00@2@$00@std@@QEAA@U_One_then_variadic_args_t@1@AEBU?$less@U?$pair@PEAUHWND__@@I@std@@@1@$$QEAU_Zero_then_variadic_args_t@1@@Z 000000014002ca50 f i TrayIconScraper.obj
 0001:0002baa0       ??$?0AEBUpiecewise_construct_t@std@@V?$tuple@$$QEAU?$pair@PEAUHWND__@@I@std@@@1@V?$tuple@$$V@1@@?$_Tree_temp_node@V?$allocator@U?$_Tree_node@U?$pair@$$CBU?$pair@PEAUHWND__@@I@std@@V?$basic_string@_WU?$char_traits@_W@std@@V?$allocator@_W@2@@2@@std@@PEAX@std@@@std@@@std@@QEAA@AEAV?$allocator@U?$_Tree_node@U?$pair@$$CBU?$pair@PEAUHWND__@@I@std@@V?$basic_string@_WU?$char_traits@_W@std@@V?$allocator@_W@2@@2@@std@@PEAX@std@@@1@PEAU?$_Tree_node@U?$pair@$$CBU?$pair@PEAUHWND__@@I@std@@V?$basic_string@_WU?$char_traits@_W@std@@V?$allocator@_W@2@@2@@std@@PEAX@1@AEBUpiecewise_construct_t@1@$$QEAV?$tuple@$$QEAU?$pair@PEAUHWND__@@I@std@@@1@$$QEAV?$tuple@$$V@1@@Z 000000014002caa0 f i TrayIconScraper.obj
 0001:0002bbb0       ??$?0U?$pair@PEAUHWND__@@I@std@@$$V$0A@@?$tuple@$$QEAU?$pair@PEAUHWND__@@I@std@@@std@@QEAA@$$QEAU?$pair@PEAUHWND__@@I@1@@Z 000000014002cbb0 f i TrayIconScraper.obj
 0001:0002bbf0       ??$?0U?$pair@PEAUHWND__@@I@std@@@?$_Tuple_val@$$QEAU?$pair@PEAUHWND__@@I@std@@@std@@QEAA@$$QEAU?$pair@PEAUHWND__@@I@1@@Z 000000014002cbf0 f i TrayIconScraper.obj
 0001:0002bc20       ??$?0U_Exact_args_t@std@@$0A@@?$tuple@$$V@std@@QEAA@U_Exact_args_t@1@@Z 000000014002cc20 f i TrayIconScraper.obj
 0001:0002bc30       ??$?0U_Exact_args_t@std@@U?$pair@PEAUHWND__@@I@1@$$V$0A@@?$tuple@$$QEAU?$pair@PEAUHWND__@@I@std@@@std@@QEAA@U_Exact_args_t@1@$$QEAU?$pair@PEAUHWND__@@I@1@@Z 000000014002cc30 f i TrayIconScraper.obj
 0001:0002bc80       ??$?0V?$allocator@UScrapedTrayIcon@@@std@@PEAUScrapedTrayIcon@@PEAU2@PEAU2@@?$_Compressed_pair@V?$allocator@UScrapedTrayIcon@@@std@@V?$_Vector_val@U?$_Simple_types@UScrapedTrayIcon@@@std@@@2@$00@std@@QEAA@U_One_then_variadic_args_t@1@$$QEAV?$allocator@UScrapedTrayIcon@@@1@$$QEAPEAUScrapedTrayIcon@@22@Z 000000014002cc80 f i TrayIconScraper.obj
 0001:0002bd00       ??$?0V?$tuple@$$QEAU?$pair@PEAUHWND__@@I@std@@@std@@V?$tuple@$$V@1@$0A@$$Z$S@?$pair@$$CBU?$pair@PEAUHWND__@@I@std@@V?$basic_string@_WU?$char_traits@_W@std@@V?$allocator@_W@2@@2@@std@@AEAA@AEAV?$tuple@$$QEAU?$pair@PEAUHWND__@@I@std@@@1@AEAV?$tuple@$$V@1@U?$integer_sequence@_K$0A@@1@U?$integer_sequence@_K$S@1@@Z 000000014002cd00 f i TrayIconScraper.obj
 0001:0002bd60       ??$?MPEAUHWND__@@IPEAU0@I@std@@YA_NAEBU?$pair@PEAUHWND__@@I@0@0@Z 000000014002cd60 f i TrayIconScraper.obj
 0001:0002bdc0       ??$_Assign_counted_range@PEAUScrapedTrayIcon@@@?$vector@UScrapedTrayIcon@@V?$allocator@UScrapedTrayIcon@@@std@@@std@@AEAAXPEAUScrapedTrayIcon@@_K@Z 000000014002cdc0 f i TrayIconScraper.obj
 0001:0002c030       ??$_Buyheadnode@V?$allocator@U?$_Tree_node@U?$pair@$$CBU?$pair@PEAUHWND__@@I@std@@V?$basic_string@_WU?$char_traits@_W@std@@V?$allocator@_W@2@@2@@std@@PEAX@std@@@std@@@?$_Tree_node@U?$pair@$$CBU?$pair@PEAUHWND__@@I@std@@V?$basic_string@_WU?$char_traits@_W@std@@V?$allocator@_W@2@@2@@std@@PEAX@std@@SAPEAU01@AEAV?$allocator@U?$_Tree_node@U?$pair@$$CBU?$pair@PEAUHWND__@@I@std@@V?$basic_string@_WU?$char_traits@_W@std@@V?$allocator@_W@2@@2@@std@@PEAX@std@@@1@@Z 000000014002d030 f i TrayIconScraper.obj
 0001:0002c0b0       ??$_Construct_n@AEB_W@?$vector@_WV?$allocator@_W@std@@@std@@AEAAX_KAEB_W@Z 000000014002d0b0 f i TrayIconScraper.obj
 0001:0002c190       ??$_Copy_memmove_n@PEAUScrapedTrayIcon@@PEAU1@@std@@YAPEAUScrapedTrayIcon@@PEAU1@_K0@Z 000000014002d190 f i TrayIconScraper.obj
 0001:0002c1f0       ??$_Copy_n_unchecked4@PEAUScrapedTrayIcon@@_KPEAU1@@std@@YAPEAUScrapedTrayIcon@@PEAU1@_K0@Z 000000014002d1f0 f i TrayIconScraper.obj
 0001:0002c270       ??$_Debug_lt_pred@AEBU?$less@U?$pair@PEAUHWND__@@I@std@@@std@@AEBU?$pair@PEAUHWND__@@I@2@AEBU32@@std@@YA_NAEBU?$less@U?$pair@PEAUHWND__@@I@std@@@0@AEBU?$pair@PEAUHWND__@@I@0@1@Z 000000014002d270 f i TrayIconScraper.obj
 0001:0002c320       ??$_Emplace_back@AEB_W@?$_Uninitialized_backout_al@V?$allocator@_W@std@@@std@@QEAAXAEB_W@Z 000000014002d320 f i TrayIconScraper.obj
 0001:0002c380       ??$_Erase_head@V?$allocator@U?$_Tree_node@U?$pair@$$CBU?$pair@PEAUHWND__@@I@std@@V?$basic_string@_WU?$char_traits@_W@std@@V?$allocator@_W@2@@2@@std@@PEAX@std@@@std@@@?$_Tree_val@U?$_Tree_simple_types@U?$pair@$$CBU?$pair@PEAUHWND__@@I@std@@V?$basic_string@_WU?$char_traits@_W@std@@V?$allocator@_W@2@@2@@std@@@std@@@std@@QEAAXAEAV?$allocator@U?$_Tree_node@U?$pair@$$CBU?$pair@PEAUHWND__@@I@std@@V?$basic_string@_WU?$char_traits@_W@std@@V?$allocator@_W@2@@2@@std@@PEAX@std@@@1@@Z 000000014002d380 f i TrayIconScraper.obj
 0001:0002c3d0       ??$_Erase_tree@V?$allocator@U?$_Tree_node@U?$pair@$$CBU?$pair@PEAUHWND__@@I@std@@V?$basic_string@_WU?$char_traits@_W@std@@V?$allocator@_W@2@@2@@std@@PEAX@std@@@std@@@?$_Tree_val@U?$_Tree_simple_types@U?$pair@$$CBU?$pair@PEAUHWND__@@I@std@@V?$basic_string@_WU?$char_traits@_W@std@@V?$allocator@_W@2@@2@@std@@@std@@@std@@QEAAXAEAV?$allocator@U?$_Tree_node@U?$pair@$$CBU?$pair@PEAUHWND__@@I@std@@V?$basic_string@_WU?$char_traits@_W@std@@V?$allocator@_W@2@@2@@std@@PEAX@std@@@1@PEAU?$_Tree_node@U?$pair@$$CBU?$pair@PEAUHWND__@@I@std@@V?$basic_string@_WU?$char_traits@_W@std@@V?$allocator@_W@2@@2@@std@@PEAX@1@@Z 000000014002d3d0 f i TrayIconScraper.obj
 0001:0002c430       ??$_Fill_zero_memset@PEA_W@std@@YAXPEA_W_K@Z 000000014002d430 f i TrayIconScraper.obj
 0001:0002c470       ??$_Find@U?$pair@PEAUHWND__@@I@std@@@?$_Tree@V?$_Tmap_traits@U?$pair@PEAUHWND__@@I@std@@V?$basic_string@_WU?$char_traits@_W@std@@V?$allocator@_W@2@@2@U?$less@U?$pair@PEAUHWND__@@I@std@@@2@V?$allocator@U?$pair@$$CBU?$pair@PEAUHWND__@@I@std@@V?$basic_string@_WU?$char_traits@_W@std@@V?$allocator@_W@2@@2@@std@@@2@$0A@@std@@@std@@AEBAPEAU?$_Tree_node@U?$pair@$$CBU?$pair@PEAUHWND__@@I@std@@V?$basic_string@_WU?$char_traits@_W@std@@V?$allocator@_W@2@@2@@std@@PEAX@1@AEBU?$pair@PEAUHWND__@@I@1@@Z 000000014002d470 f i TrayIconScraper.obj
 0001:0002c4d0       ??$_Find_lower_bound@U?$pair@PEAUHWND__@@I@std@@@?$_Tree@V?$_Tmap_traits@U?$pair@PEAUHWND__@@I@std@@V?$basic_string@_WU?$char_traits@_W@std@@V?$allocator@_W@2@@2@U?$less@U?$pair@PEAUHWND__@@I@std@@@2@V?$allocator@U?$pair@$$CBU?$pair@PEAUHWND__@@I@std@@V?$basic_string@_WU?$char_traits@_W@std@@V?$allocator@_W@2@@2@@std@@@2@$0A@@std@@@std@@IEBA?AU?$_Tree_find_result@PEAU?$_Tree_node@U?$pair@$$CBU?$pair@PEAUHWND__@@I@std@@V?$basic_string@_WU?$char_traits@_W@std@@V?$allocator@_W@2@@2@@std@@PEAX@std@@@1@AEBU?$pair@PEAUHWND__@@I@1@@Z 000000014002d4d0 f i TrayIconScraper.obj
 0001:0002c5e0       ??$_Freenode0@V?$allocator@U?$_Tree_node@U?$pair@$$CBU?$pair@PEAUHWND__@@I@std@@V?$basic_string@_WU?$char_traits@_W@std@@V?$allocator@_W@2@@2@@std@@PEAX@std@@@std@@@?$_Tree_node@U?$pair@$$CBU?$pair@PEAUHWND__@@I@std@@V?$basic_string@_WU?$char_traits@_W@std@@V?$allocator@_W@2@@2@@std@@PEAX@std@@SAXAEAV?$allocator@U?$_Tree_node@U?$pair@$$CBU?$pair@PEAUHWND__@@I@std@@V?$basic_string@_WU?$char_traits@_W@std@@V?$allocator@_W@2@@2@@std@@PEAX@std@@@1@PEAU01@@Z 000000014002d5e0 f i TrayIconScraper.obj
 0001:0002c640       ??$_Freenode@V?$allocator@U?$_Tree_node@U?$pair@$$CBU?$pair@PEAUHWND__@@I@std@@V?$basic_string@_WU?$char_traits@_W@std@@V?$allocator@_W@2@@2@@std@@PEAX@std@@@std@@@?$_Tree_node@U?$pair@$$CBU?$pair@PEAUHWND__@@I@std@@V?$basic_string@_WU?$char_traits@_W@std@@V?$allocator@_W@2@@2@@std@@PEAX@std@@SAXAEAV?$allocator@U?$_Tree_node@U?$pair@$$CBU?$pair@PEAUHWND__@@I@std@@V?$basic_string@_WU?$char_traits@_W@std@@V?$allocator@_W@2@@2@@std@@PEAX@std@@@1@PEAU01@@Z 000000014002d640 f i TrayIconScraper.obj
 0001:0002c690       ??$_Get_size_of_n@$0FI@@std@@YA_K_K@Z 000000014002d690 f i TrayIconScraper.obj
 0001:0002c6d0       ??$_Is_all_bits_zero@_W@std@@YA_NAEB_W@Z 000000014002d6d0 f i TrayIconScraper.obj
 0001:0002c720       ??$_Lower_bound_duplicate@U?$pair@PEAUHWND__@@I@std@@@?$_Tree@V?$_Tmap_traits@U?$pair@PEAUHWND__@@I@std@@V?$basic_string@_WU?$char_traits@_W@std@@V?$allocator@_W@2@@2@U?$less@U?$pair@PEAUHWND__@@I@std@@@2@V?$allocator@U?$pair@$$CBU?$pair@PEAUHWND__@@I@std@@V?$basic_string@_WU?$char_traits@_W@std@@V?$allocator@_W@2@@2@@std@@@2@$0A@@std@@@std@@IEBA_NQEAU?$_Tree_node@U?$pair@$$CBU?$pair@PEAUHWND__@@I@std@@V?$basic_string@_WU?$char_traits@_W@std@@V?$allocator@_W@2@@2@@std@@PEAX@1@AEBU?$pair@PEAUHWND__@@I@1@@Z 000000014002d720 f i TrayIconScraper.obj
 0001:0002c7a0       ??$_Try_emplace@U?$pair@PEAUHWND__@@I@std@@$$V@?$map@U?$pair@PEAUHWND__@@I@std@@V?$basic_string@_WU?$char_traits@_W@std@@V?$allocator@_W@2@@2@U?$less@U?$pair@PEAUHWND__@@I@std@@@2@V?$allocator@U?$pair@$$CBU?$pair@PEAUHWND__@@I@std@@V?$basic_string@_WU?$char_traits@_W@std@@V?$allocator@_W@2@@2@@std@@@2@@std@@AEAA?AU?$pair@PEAU?$_Tree_node@U?$pair@$$CBU?$pair@PEAUHWND__@@I@std@@V?$basic_string@_WU?$char_traits@_W@std@@V?$allocator@_W@2@@2@@std@@PEAX@std@@_N@1@$$QEAU?$pair@PEAUHWND__@@I@1@@Z 000000014002d7a0 f i TrayIconScraper.obj
 0001:0002c940       ??$_Uninitialized_copy_n@PEAUScrapedTrayIcon@@V?$allocator@UScrapedTrayIcon@@@std@@@std@@YAPEAUScrapedTrayIcon@@PEAU1@_K0AEAV?$allocator@UScrapedTrayIcon@@@0@@Z 000000014002d940 f i TrayIconScraper.obj
 0001:0002ca20       ??$_Uninitialized_fill_n@V?$allocator@_W@std@@@std@@YAPEA_WPEA_W_KAEB_WAEAV?$allocator@_W@0@@Z 000000014002da20 f i TrayIconScraper.obj
 0001:0002cae0       ??$construct@U?$pair@$$CBU?$pair@PEAUHWND__@@I@std@@V?$basic_string@_WU?$char_traits@_W@std@@V?$allocator@_W@2@@2@@std@@AEBUpiecewise_construct_t@2@V?$tuple@$$QEAU?$pair@PEAUHWND__@@I@std@@@2@V?$tuple@$$V@2@@?$_Default_allocator_traits@V?$allocator@U?$_Tree_node@U?$pair@$$CBU?$pair@PEAUHWND__@@I@std@@V?$basic_string@_WU?$char_traits@_W@std@@V?$allocator@_W@2@@2@@std@@PEAX@std@@@std@@@std@@SAXAEAV?$allocator@U?$_Tree_node@U?$pair@$$CBU?$pair@PEAUHWND__@@I@std@@V?$basic_string@_WU?$char_traits@_W@std@@V?$allocator@_W@2@@2@@std@@PEAX@std@@@1@QEAU?$pair@$$CBU?$pair@PEAUHWND__@@I@std@@V?$basic_string@_WU?$char_traits@_W@std@@V?$allocator@_W@2@@2@@1@AEBUpiecewise_construct_t@1@$$QEAV?$tuple@$$QEAU?$pair@PEAUHWND__@@I@std@@@1@$$QEAV?$tuple@$$V@1@@Z 000000014002dae0 f i TrayIconScraper.obj
 0001:0002cb90       ??$construct@_WAEB_W@?$_Default_allocator_traits@V?$allocator@_W@std@@@std@@SAXAEAV?$allocator@_W@1@QEA_WAEB_W@Z 000000014002db90 f i TrayIconScraper.obj
 0001:0002cbe0       ??$destroy@U?$pair@$$CBU?$pair@PEAUHWND__@@I@std@@V?$basic_string@_WU?$char_traits@_W@std@@V?$allocator@_W@2@@2@@std@@@?$_Default_allocator_traits@V?$allocator@U?$_Tree_node@U?$pair@$$CBU?$pair@PEAUHWND__@@I@std@@V?$basic_string@_WU?$char_traits@_W@std@@V?$allocator@_W@2@@2@@std@@PEAX@std@@@std@@@std@@SAXAEAV?$allocator@U?$_Tree_node@U?$pair@$$CBU?$pair@PEAUHWND__@@I@std@@V?$basic_string@_WU?$char_traits@_W@std@@V?$allocator@_W@2@@2@@std@@PEAX@std@@@1@QEAU?$pair@$$CBU?$pair@PEAUHWND__@@I@std@@V?$basic_string@_WU?$char_traits@_W@std@@V?$allocator@_W@2@@2@@1@@Z 000000014002dbe0 f i TrayIconScraper.obj
 0001:0002cc00       ??$forward_as_tuple@U?$pair@PEAUHWND__@@I@std@@@std@@YA?AV?$tuple@$$QEAU?$pair@PEAUHWND__@@I@std@@@0@$$QEAU?$pair@PEAUHWND__@@I@0@@Z 000000014002dc00 f i TrayIconScraper.obj
 0001:0002cc30       ??0?$_Tree@V?$_Tmap_traits@U?$pair@PEAUHWND__@@I@std@@V?$basic_string@_WU?$char_traits@_W@std@@V?$allocator@_W@2@@2@U?$less@U?$pair@PEAUHWND__@@I@std@@@2@V?$allocator@U?$pair@$$CBU?$pair@PEAUHWND__@@I@std@@V?$basic_string@_WU?$char_traits@_W@std@@V?$allocator@_W@2@@2@@std@@@2@$0A@@std@@@std@@QEAA@AEBU?$less@U?$pair@PEAUHWND__@@I@std@@@1@@Z 000000014002dc30 f i TrayIconScraper.obj
 0001:0002cc70       ??0?$_Tree_temp_node_alloc@V?$allocator@U?$_Tree_node@U?$pair@$$CBU?$pair@PEAUHWND__@@I@std@@V?$basic_string@_WU?$char_traits@_W@std@@V?$allocator@_W@2@@2@@std@@PEAX@std@@@std@@@std@@QEAA@AEAV?$allocator@U?$_Tree_node@U?$pair@$$CBU?$pair@PEAUHWND__@@I@std@@V?$basic_string@_WU?$char_traits@_W@std@@V?$allocator@_W@2@@2@@std@@PEAX@std@@@1@@Z 000000014002dc70 f i TrayIconScraper.obj
 0001:0002ccb0       ??0?$_Vector_val@U?$_Simple_types@UScrapedTrayIcon@@@std@@@std@@QEAA@PEAUScrapedTrayIcon@@00@Z 000000014002dcb0 f i TrayIconScraper.obj
 0001:0002cd10       ??0?$map@U?$pair@PEAUHWND__@@I@std@@V?$basic_string@_WU?$char_traits@_W@std@@V?$allocator@_W@2@@2@U?$less@U?$pair@PEAUHWND__@@I@std@@@2@V?$allocator@U?$pair@$$CBU?$pair@PEAUHWND__@@I@std@@V?$basic_string@_WU?$char_traits@_W@std@@V?$allocator@_W@2@@2@@std@@@2@@std@@QEAA@XZ 000000014002dd10 f i TrayIconScraper.obj
 0001:0002cd40       ??0?$tuple@$$QEAU?$pair@PEAUHWND__@@I@std@@@std@@QEAA@$$QEAV01@@Z 000000014002dd40 f i TrayIconScraper.obj
 0001:0002cd80       ??0?$vector@UScrapedTrayIcon@@V?$allocator@UScrapedTrayIcon@@@std@@@std@@QEAA@$$QEAV01@@Z 000000014002dd80 f i TrayIconScraper.obj
 0001:0002cea0       ??0?$vector@_WV?$allocator@_W@std@@@std@@QEAA@_KAEB_WAEBV?$allocator@_W@1@@Z 000000014002dea0 f i TrayIconScraper.obj
 0001:0002cef0       ??1?$_Alloc_construct_ptr@V?$allocator@U?$_Tree_node@U?$pair@$$CBU?$pair@PEAUHWND__@@I@std@@V?$basic_string@_WU?$char_traits@_W@std@@V?$allocator@_W@2@@2@@std@@PEAX@std@@@std@@@std@@QEAA@XZ 000000014002def0 f i TrayIconScraper.obj
 0001:0002cf30       ??1?$_Tidy_guard@V?$vector@_WV?$allocator@_W@std@@@std@@@std@@QEAA@XZ 000000014002df30 f i TrayIconScraper.obj
 0001:0002cf60       ??1?$_Tree@V?$_Tmap_traits@U?$pair@PEAUHWND__@@I@std@@V?$basic_string@_WU?$char_traits@_W@std@@V?$allocator@_W@2@@2@U?$less@U?$pair@PEAUHWND__@@I@std@@@2@V?$allocator@U?$pair@$$CBU?$pair@PEAUHWND__@@I@std@@V?$basic_string@_WU?$char_traits@_W@std@@V?$allocator@_W@2@@2@@std@@@2@$0A@@std@@@std@@QEAA@XZ 000000014002df60 f i TrayIconScraper.obj
 0001:0002cfd0       ??1?$_Tree_temp_node@V?$allocator@U?$_Tree_node@U?$pair@$$CBU?$pair@PEAUHWND__@@I@std@@V?$basic_string@_WU?$char_traits@_W@std@@V?$allocator@_W@2@@2@@std@@PEAX@std@@@std@@@std@@QEAA@XZ 000000014002dfd0 f i TrayIconScraper.obj
 0001:0002d060       ??1?$_Tree_temp_node_alloc@V?$allocator@U?$_Tree_node@U?$pair@$$CBU?$pair@PEAUHWND__@@I@std@@V?$basic_string@_WU?$char_traits@_W@std@@V?$allocator@_W@2@@2@@std@@PEAX@std@@@std@@@std@@QEAA@XZ 000000014002e060 f i TrayIconScraper.obj
 0001:0002d080       ??1?$map@U?$pair@PEAUHWND__@@I@std@@V?$basic_string@_WU?$char_traits@_W@std@@V?$allocator@_W@2@@2@U?$less@U?$pair@PEAUHWND__@@I@std@@@2@V?$allocator@U?$pair@$$CBU?$pair@PEAUHWND__@@I@std@@V?$basic_string@_WU?$char_traits@_W@std@@V?$allocator@_W@2@@2@@std@@@2@@std@@QEAA@XZ 000000014002e080 f i TrayIconScraper.obj
 0001:0002d0a0       ??1?$vector@_WV?$allocator@_W@std@@@std@@QEAA@XZ 000000014002e0a0 f i TrayIconScraper.obj
 0001:0002d110       ??4?$basic_string@_WU?$char_traits@_W@std@@V?$allocator@_W@2@@std@@QEAAAEAV01@AEBV01@@Z 000000014002e110 f i TrayIconScraper.obj
 0001:0002d190       ??4?$vector@UScrapedTrayIcon@@V?$allocator@UScrapedTrayIcon@@@std@@@std@@QEAAAEAV01@AEBV01@@Z 000000014002e190 f i TrayIconScraper.obj
 0001:0002d230       ??8?$_Tree_const_iterator@V?$_Tree_val@U?$_Tree_simple_types@U?$pair@$$CBU?$pair@PEAUHWND__@@I@std@@V?$basic_string@_WU?$char_traits@_W@std@@V?$allocator@_W@2@@2@@std@@@std@@@std@@@std@@QEBA_NAEBV01@@Z 000000014002e230 f i TrayIconScraper.obj
 0001:0002d2f0       ??9?$_Tree_const_iterator@V?$_Tree_val@U?$_Tree_simple_types@U?$pair@$$CBU?$pair@PEAUHWND__@@I@std@@V?$basic_string@_WU?$char_traits@_W@std@@V?$allocator@_W@2@@2@@std@@@std@@@std@@@std@@QEBA_NAEBV01@@Z 000000014002e2f0 f i TrayIconScraper.obj
 0001:0002d330       ??A?$map@U?$pair@PEAUHWND__@@I@std@@V?$basic_string@_WU?$char_traits@_W@std@@V?$allocator@_W@2@@2@U?$less@U?$pair@PEAUHWND__@@I@std@@@2@V?$allocator@U?$pair@$$CBU?$pair@PEAUHWND__@@I@std@@V?$basic_string@_WU?$char_traits@_W@std@@V?$allocator@_W@2@@2@@std@@@2@@std@@QEAAAEAV?$basic_string@_WU?$char_traits@_W@std@@V?$allocator@_W@2@@1@$$QEAU?$pair@PEAUHWND__@@I@1@@Z 000000014002e330 f i TrayIconScraper.obj
 0001:0002d370       ??A?$vector@UScrapedTrayIcon@@V?$allocator@UScrapedTrayIcon@@@std@@@std@@QEBAAEBUScrapedTrayIcon@@_K@Z 000000014002e370 f i TrayIconScraper.obj
 0001:0002d410       ??A?$vector@_WV?$allocator@_W@std@@@std@@QEAAAEA_W_K@Z 000000014002e410 f i TrayIconScraper.obj
 0001:0002d4c0       ??C?$_Tree_iterator@V?$_Tree_val@U?$_Tree_simple_types@U?$pair@$$CBU?$pair@PEAUHWND__@@I@std@@V?$basic_string@_WU?$char_traits@_W@std@@V?$allocator@_W@2@@2@@std@@@std@@@std@@@std@@QEBAPEAU?$pair@$$CBU?$pair@PEAUHWND__@@I@std@@V?$basic_string@_WU?$char_traits@_W@std@@V?$allocator@_W@2@@2@@1@XZ 000000014002e4c0 f i TrayIconScraper.obj
 0001:0002d4e0       ??D?$_Tree_const_iterator@V?$_Tree_val@U?$_Tree_simple_types@U?$pair@$$CBU?$pair@PEAUHWND__@@I@std@@V?$basic_string@_WU?$char_traits@_W@std@@V?$allocator@_W@2@@2@@std@@@std@@@std@@@std@@QEBAAEBU?$pair@$$CBU?$pair@PEAUHWND__@@I@std@@V?$basic_string@_WU?$char_traits@_W@std@@V?$allocator@_W@2@@2@@1@XZ 000000014002e4e0 f i TrayIconScraper.obj
 0001:0002d5d0       ??D?$_Tree_iterator@V?$_Tree_val@U?$_Tree_simple_types@U?$pair@$$CBU?$pair@PEAUHWND__@@I@std@@V?$basic_string@_WU?$char_traits@_W@std@@V?$allocator@_W@2@@2@@std@@@std@@@std@@@std@@QEBAAEAU?$pair@$$CBU?$pair@PEAUHWND__@@I@std@@V?$basic_string@_WU?$char_traits@_W@std@@V?$allocator@_W@2@@2@@1@XZ 000000014002e5d0 f i TrayIconScraper.obj
 0001:0002d5f0       ??R?$less@U?$pair@PEAUHWND__@@I@std@@@std@@QEBA_NAEBU?$pair@PEAUHWND__@@I@1@0@Z 000000014002e5f0 f i TrayIconScraper.obj
 0001:0002d620       ??_G?$pair@$$CBU?$pair@PEAUHWND__@@I@std@@V?$basic_string@_WU?$char_traits@_W@std@@V?$allocator@_W@2@@2@@std@@QEAAPEAXI@Z 000000014002e620 f i TrayIconScraper.obj
 0001:0002d660       ?_Alloc_sentinel_and_proxy@?$_Tree@V?$_Tmap_traits@U?$pair@PEAUHWND__@@I@std@@V?$basic_string@_WU?$char_traits@_W@std@@V?$allocator@_W@2@@2@U?$less@U?$pair@PEAUHWND__@@I@std@@@2@V?$allocator@U?$pair@$$CBU?$pair@PEAUHWND__@@I@std@@V?$basic_string@_WU?$char_traits@_W@std@@V?$allocator@_W@2@@2@@std@@@2@$0A@@std@@@std@@IEAAXXZ 000000014002e660 f i TrayIconScraper.obj
 0001:0002d6f0       ?_Allocate@?$_Alloc_construct_ptr@V?$allocator@U?$_Tree_node@U?$pair@$$CBU?$pair@PEAUHWND__@@I@std@@V?$basic_string@_WU?$char_traits@_W@std@@V?$allocator@_W@2@@2@@std@@PEAX@std@@@std@@@std@@QEAAXXZ 000000014002e6f0 f i TrayIconScraper.obj
 0001:0002d730       ?_Buy_nonzero@?$vector@_WV?$allocator@_W@std@@@std@@AEAAX_K@Z 000000014002e730 f i TrayIconScraper.obj
 0001:0002d770       ?_Buy_raw@?$vector@UScrapedTrayIcon@@V?$allocator@UScrapedTrayIcon@@@std@@@std@@AEAAX_K@Z 000000014002e770 f i TrayIconScraper.obj
 0001:0002d810       ?_Buy_raw@?$vector@_WV?$allocator@_W@std@@@std@@AEAAX_K@Z 000000014002e810 f i TrayIconScraper.obj
 0001:0002d8b0       ?_Check_grow_by_1@?$_Tree@V?$_Tmap_traits@U?$pair@PEAUHWND__@@I@std@@V?$basic_string@_WU?$char_traits@_W@std@@V?$allocator@_W@2@@2@U?$less@U?$pair@PEAUHWND__@@I@std@@@2@V?$allocator@U?$pair@$$CBU?$pair@PEAUHWND__@@I@std@@V?$basic_string@_WU?$char_traits@_W@std@@V?$allocator@_W@2@@2@@std@@@2@$0A@@std@@@std@@IEAAXXZ 000000014002e8b0 f i TrayIconScraper.obj
 0001:0002d8f0       ?_Clear_and_reserve_geometric@?$vector@UScrapedTrayIcon@@V?$allocator@UScrapedTrayIcon@@@std@@@std@@AEAAX_K@Z 000000014002e8f0 f i TrayIconScraper.obj
 0001:0002da00       ?_Insert_node@?$_Tree_val@U?$_Tree_simple_types@U?$pair@$$CBU?$pair@PEAUHWND__@@I@std@@V?$basic_string@_WU?$char_traits@_W@std@@V?$allocator@_W@2@@2@@std@@@std@@@std@@QEAAPEAU?$_Tree_node@U?$pair@$$CBU?$pair@PEAUHWND__@@I@std@@V?$basic_string@_WU?$char_traits@_W@std@@V?$allocator@_W@2@@2@@std@@PEAX@2@U?$_Tree_id@PEAU?$_Tree_node@U?$pair@$$CBU?$pair@PEAUHWND__@@I@std@@V?$basic_string@_WU?$char_traits@_W@std@@V?$allocator@_W@2@@2@@std@@PEAX@std@@@2@QEAU32@@Z 000000014002ea00 f i TrayIconScraper.obj
 0001:0002dcf0       ?_Lrotate@?$_Tree_val@U?$_Tree_simple_types@U?$pair@$$CBU?$pair@PEAUHWND__@@I@std@@V?$basic_string@_WU?$char_traits@_W@std@@V?$allocator@_W@2@@2@@std@@@std@@@std@@QEAAXPEAU?$_Tree_node@U?$pair@$$CBU?$pair@PEAUHWND__@@I@std@@V?$basic_string@_WU?$char_traits@_W@std@@V?$allocator@_W@2@@2@@std@@PEAX@2@@Z 000000014002ecf0 f i TrayIconScraper.obj
 0001:0002ddd0       ?_Orphan_ptr@?$_Tree_val@U?$_Tree_simple_types@U?$pair@$$CBU?$pair@PEAUHWND__@@I@std@@V?$basic_string@_WU?$char_traits@_W@std@@V?$allocator@_W@2@@2@@std@@@std@@@std@@QEAAXQEAU?$_Tree_node@U?$pair@$$CBU?$pair@PEAUHWND__@@I@std@@V?$basic_string@_WU?$char_traits@_W@std@@V?$allocator@_W@2@@2@@std@@PEAX@2@@Z 000000014002edd0 f i TrayIconScraper.obj
 0001:0002de90       ?_Release@?$_Alloc_construct_ptr@V?$allocator@U?$_Tree_node@U?$pair@$$CBU?$pair@PEAUHWND__@@I@std@@V?$basic_string@_WU?$char_traits@_W@std@@V?$allocator@_W@2@@2@@std@@PEAX@std@@@std@@@std@@QEAAPEAU?$_Tree_node@U?$pair@$$CBU?$pair@PEAUHWND__@@I@std@@V?$basic_string@_WU?$char_traits@_W@std@@V?$allocator@_W@2@@2@@std@@PEAX@2@XZ 000000014002ee90 f i TrayIconScraper.obj
 0001:0002dec0       ?_Rrotate@?$_Tree_val@U?$_Tree_simple_types@U?$pair@$$CBU?$pair@PEAUHWND__@@I@std@@V?$basic_string@_WU?$char_traits@_W@std@@V?$allocator@_W@2@@2@@std@@@std@@@std@@QEAAXPEAU?$_Tree_node@U?$pair@$$CBU?$pair@PEAUHWND__@@I@std@@V?$basic_string@_WU?$char_traits@_W@std@@V?$allocator@_W@2@@2@@std@@PEAX@2@@Z 000000014002eec0 f i TrayIconScraper.obj
 0001:0002dfa0       ?_Throw_tree_length_error@std@@YAXXZ 000000014002efa0 f i TrayIconScraper.obj
 0001:0002dfc0       ?_Tidy@?$vector@_WV?$allocator@_W@std@@@std@@AEAAXXZ 000000014002efc0 f i TrayIconScraper.obj
 0001:0002e090       ?allocate@?$allocator@U?$_Tree_node@U?$pair@$$CBU?$pair@PEAUHWND__@@I@std@@V?$basic_string@_WU?$char_traits@_W@std@@V?$allocator@_W@2@@2@@std@@PEAX@std@@@std@@QEAAPEAU?$_Tree_node@U?$pair@$$CBU?$pair@PEAUHWND__@@I@std@@V?$basic_string@_WU?$char_traits@_W@std@@V?$allocator@_W@2@@2@@std@@PEAX@2@_K@Z 000000014002f090 f i TrayIconScraper.obj
 0001:0002e0c0       ?clear@?$_Tree@V?$_Tmap_traits@U?$pair@PEAUHWND__@@I@std@@V?$basic_string@_WU?$char_traits@_W@std@@V?$allocator@_W@2@@2@U?$less@U?$pair@PEAUHWND__@@I@std@@@2@V?$allocator@U?$pair@$$CBU?$pair@PEAUHWND__@@I@std@@V?$basic_string@_WU?$char_traits@_W@std@@V?$allocator@_W@2@@2@@std@@@2@$0A@@std@@@std@@QEAAXXZ 000000014002f0c0 f i TrayIconScraper.obj
 0001:0002e150       ?deallocate@?$_Default_allocator_traits@V?$allocator@U?$_Tree_node@U?$pair@$$CBU?$pair@PEAUHWND__@@I@std@@V?$basic_string@_WU?$char_traits@_W@std@@V?$allocator@_W@2@@2@@std@@PEAX@std@@@std@@@std@@SAXAEAV?$allocator@U?$_Tree_node@U?$pair@$$CBU?$pair@PEAUHWND__@@I@std@@V?$basic_string@_WU?$char_traits@_W@std@@V?$allocator@_W@2@@2@@std@@PEAX@std@@@2@QEAU?$_Tree_node@U?$pair@$$CBU?$pair@PEAUHWND__@@I@std@@V?$basic_string@_WU?$char_traits@_W@std@@V?$allocator@_W@2@@2@@std@@PEAX@2@_K@Z 000000014002f150 f i TrayIconScraper.obj
 0001:0002e180       ?deallocate@?$allocator@U?$_Tree_node@U?$pair@$$CBU?$pair@PEAUHWND__@@I@std@@V?$basic_string@_WU?$char_traits@_W@std@@V?$allocator@_W@2@@2@@std@@PEAX@std@@@std@@QEAAXQEAU?$_Tree_node@U?$pair@$$CBU?$pair@PEAUHWND__@@I@std@@V?$basic_string@_WU?$char_traits@_W@std@@V?$allocator@_W@2@@2@@std@@PEAX@2@_K@Z 000000014002f180 f i TrayIconScraper.obj
 0001:0002e210       ?end@?$_Tree@V?$_Tmap_traits@U?$pair@PEAUHWND__@@I@std@@V?$basic_string@_WU?$char_traits@_W@std@@V?$allocator@_W@2@@2@U?$less@U?$pair@PEAUHWND__@@I@std@@@2@V?$allocator@U?$pair@$$CBU?$pair@PEAUHWND__@@I@std@@V?$basic_string@_WU?$char_traits@_W@std@@V?$allocator@_W@2@@2@@std@@@2@$0A@@std@@@std@@QEAA?AV?$_Tree_iterator@V?$_Tree_val@U?$_Tree_simple_types@U?$pair@$$CBU?$pair@PEAUHWND__@@I@std@@V?$basic_string@_WU?$char_traits@_W@std@@V?$allocator@_W@2@@2@@std@@@std@@@std@@@2@XZ 000000014002f210 f i TrayIconScraper.obj
 0001:0002e250       ?find@?$_Tree@V?$_Tmap_traits@U?$pair@PEAUHWND__@@I@std@@V?$basic_string@_WU?$char_traits@_W@std@@V?$allocator@_W@2@@2@U?$less@U?$pair@PEAUHWND__@@I@std@@@2@V?$allocator@U?$pair@$$CBU?$pair@PEAUHWND__@@I@std@@V?$basic_string@_WU?$char_traits@_W@std@@V?$allocator@_W@2@@2@@std@@@2@$0A@@std@@@std@@QEAA?AV?$_Tree_iterator@V?$_Tree_val@U?$_Tree_simple_types@U?$pair@$$CBU?$pair@PEAUHWND__@@I@std@@V?$basic_string@_WU?$char_traits@_W@std@@V?$allocator@_W@2@@2@@std@@@std@@@std@@@2@AEBU?$pair@PEAUHWND__@@I@2@@Z 000000014002f250 f i TrayIconScraper.obj
 0001:0002e2c0       ?max_size@?$_Default_allocator_traits@V?$allocator@U?$_Tree_node@U?$pair@$$CBU?$pair@PEAUHWND__@@I@std@@V?$basic_string@_WU?$char_traits@_W@std@@V?$allocator@_W@2@@2@@std@@PEAX@std@@@std@@@std@@SA_KAEBV?$allocator@U?$_Tree_node@U?$pair@$$CBU?$pair@PEAUHWND__@@I@std@@V?$basic_string@_WU?$char_traits@_W@std@@V?$allocator@_W@2@@2@@std@@PEAX@std@@@2@@Z 000000014002f2c0 f i TrayIconScraper.obj
 0001:0002e2d0       ?max_size@?$_Tree@V?$_Tmap_traits@U?$pair@PEAUHWND__@@I@std@@V?$basic_string@_WU?$char_traits@_W@std@@V?$allocator@_W@2@@2@U?$less@U?$pair@PEAUHWND__@@I@std@@@2@V?$allocator@U?$pair@$$CBU?$pair@PEAUHWND__@@I@std@@V?$basic_string@_WU?$char_traits@_W@std@@V?$allocator@_W@2@@2@@std@@@2@$0A@@std@@@std@@QEBA_KXZ 000000014002f2d0 f i TrayIconScraper.obj
 0001:0002e320       ?max_size@?$vector@_WV?$allocator@_W@std@@@std@@QEBA_KXZ 000000014002f320 f i TrayIconScraper.obj
 0001:0002e4f0       ?HelpDlgProc@@YA_JPEAUHWND__@@I_K_J@Z 000000014002f4f0 f   TaskbarProperties.obj
 0001:0002eab0       ?ShowHelpDialog@@YAXPEAUHWND__@@@Z 000000014002fab0 f   TaskbarProperties.obj
 0001:0002eaf0       ?AboutDlgProc@@YA_JPEAUHWND__@@I_K_J@Z 000000014002faf0 f   TaskbarProperties.obj
 0001:0002f6b0       ?ShowAboutDialog@@YAXPEAUHWND__@@@Z 00000001400306b0 f   TaskbarProperties.obj
 0001:0002f6f0       ?PropSheetSubclassProc@@YA_JPEAUHWND__@@I_K_J11@Z 00000001400306f0 f   TaskbarProperties.obj
 0001:0002f850       ?PropSheetProc@@YAHPEAUHWND__@@I_J@Z 0000000140030850 f   TaskbarProperties.obj
 0001:0002fb70       ?LoadPngResourceAsHBITMAP@@YAPEAUHBITMAP__@@K@Z 0000000140030b70 f   TaskbarProperties.obj
 0001:0002ff60       ?UpdateOrbPreview@@YAXPEAUHWND__@@K@Z 0000000140030f60 f   TaskbarProperties.obj
 0001:0002fff0       ?SaveToNativeRegistry@@YAXPEB_WK@Z 0000000140030ff0 f   TaskbarProperties.obj
 0001:00030090       ?SetDefaultFileManagerCPP@@YAXK@Z 0000000140031090 f   TaskbarProperties.obj
 0001:000304f0       ?BroadcastSettingsChangeThread@@YAKPEAX@Z 00000001400314f0 f   TaskbarProperties.obj
 0001:000306a0       ?SyncAdvancedToMasterAndNative@@YAXXZ 00000001400316a0 f   TaskbarProperties.obj
 0001:00030dc0       ?NotifySettingsChange@@YAXXZ 0000000140031dc0 f   TaskbarProperties.obj
 0001:00030e50       ?TaskbarSettingsDlgProc@@YA_JPEAUHWND__@@I_K_J@Z 0000000140031e50 f   TaskbarProperties.obj
 0001:00031be0       ?NativeSettingsDlgProc@@YA_JPEAUHWND__@@I_K_J@Z 0000000140032be0 f   TaskbarProperties.obj
 0001:000332e0       ?DynScrollAreaProc@@YA_JPEAUHWND__@@I_K_J@Z 00000001400342e0 f   TaskbarProperties.obj
 0001:00033660       ?InitDynScrollClass@@YAXXZ 0000000140034660 f   TaskbarProperties.obj
 0001:000336f0       ?NoMouseWheelSubclassProc@@YA_JPEAUHWND__@@I_K_J11@Z 00000001400346f0 f   TaskbarProperties.obj
 0001:00033770       ?CreateDynScrollArea@@YAPEAUHWND__@@PEAU1@H@Z 0000000140034770 f   TaskbarProperties.obj
 0001:000338d0       ?TaskbarPropsMonitorEnumProc@@YAHPEAUHMONITOR__@@PEAUHDC__@@PEAUtagRECT@@_J@Z 00000001400348d0 f   TaskbarProperties.obj
 0001:00033960       ?PopulateOrbComboBox@@YAXPEAUHWND__@@@Z 0000000140034960 f   TaskbarProperties.obj
 0001:00033ad0       ?SelectOrbComboBox@@YAXPEAUHWND__@@K@Z 0000000140034ad0 f   TaskbarProperties.obj
 0001:00033b70       ?GetSelectedOrbID@@YAKPEAUHWND__@@@Z 0000000140034b70 f   TaskbarProperties.obj
 0001:00033bd0       ?MultiMonSettingsDlgProc@@YA_JPEAUHWND__@@I_K_J@Z 0000000140034bd0 f   TaskbarProperties.obj
 0001:000354e0       ?PopulateTriggerComboBox@@YAXPEAUHWND__@@@Z 00000001400364e0 f   TaskbarProperties.obj
 0001:00035550       ?ToolbarsSettingsDlgProc@@YA_JPEAUHWND__@@I_K_J@Z 0000000140036550 f   TaskbarProperties.obj
 0001:000356e0       ?StartMenuSettingsDlgProc@@YA_JPEAUHWND__@@I_K_J@Z 00000001400366e0 f   TaskbarProperties.obj
 0001:00038270       ?DesktopSettingsDlgProc@@YA_JPEAUHWND__@@I_K_J@Z 0000000140039270 f   TaskbarProperties.obj
 0001:00039d90       ?ExportSettingsToXML@@YAXPEAUHWND__@@@Z 000000014003ad90 f   TaskbarProperties.obj
 0001:0003a070       ?ImportSettingsFromXML@@YAXPEAUHWND__@@@Z 000000014003b070 f   TaskbarProperties.obj
 0001:0003a550       ?ExplorerSettingsDlgProc@@YA_JPEAUHWND__@@I_K_J@Z 000000014003b550 f   TaskbarProperties.obj
 0001:0003b1b0       ?DWMSettingsDlgProc@@YA_JPEAUHWND__@@I_K_J@Z 000000014003c1b0 f   TaskbarProperties.obj
 0001:0003b840       ?ColorsSettingsDlgProc@@YA_JPEAUHWND__@@I_K_J@Z 000000014003c840 f   TaskbarProperties.obj
 0001:0003bf20       ?GenericPageDlgProc@@YA_JPEAUHWND__@@I_K_J@Z 000000014003cf20 f   TaskbarProperties.obj
 0001:0003bf40       ?ShowTaskbarProperties@@YAXPEAUHWND__@@@Z 000000014003cf40 f   TaskbarProperties.obj
 0001:0003c890       ?SecretDlgProc@@YA_JPEAUHWND__@@I_K_J@Z 000000014003d890 f   TaskbarProperties.obj
 0001:0003c930       ?ShowSecretEverything@@YAXPEAUHWND__@@@Z 000000014003d930 f   TaskbarProperties.obj
 0001:0003c970       ?ShowSecretDLLScanner@@YAXPEAUHWND__@@@Z 000000014003d970 f   TaskbarProperties.obj
 0001:0003c9b0       ??$?8_WU?$char_traits@_W@std@@V?$allocator@_W@1@@std@@YA_NAEBV?$basic_string@_WU?$char_traits@_W@std@@V?$allocator@_W@2@@0@QEB_W@Z 000000014003d9b0 f i TaskbarProperties.obj
 0001:0003c9e0       ??$?H_WU?$char_traits@_W@std@@V?$allocator@_W@1@@std@@YA?AV?$basic_string@_WU?$char_traits@_W@std@@V?$allocator@_W@2@@0@$$QEAV10@AEBV10@@Z 000000014003d9e0 f i TaskbarProperties.obj
 0001:0003ca40       ??$_Emplace_back_with_unused_capacity@AEBV?$basic_string@_WU?$char_traits@_W@std@@V?$allocator@_W@2@@std@@@?$vector@V?$basic_string@_WU?$char_traits@_W@std@@V?$allocator@_W@2@@std@@V?$allocator@V?$basic_string@_WU?$char_traits@_W@std@@V?$allocator@_W@2@@std@@@2@@std@@AEAAAEAV?$basic_string@_WU?$char_traits@_W@std@@V?$allocator@_W@2@@1@AEBV21@@Z 000000014003da40 f i TaskbarProperties.obj
 0001:0003caf0       ??$_Emplace_one_at_back@AEBV?$basic_string@_WU?$char_traits@_W@std@@V?$allocator@_W@2@@std@@@?$vector@V?$basic_string@_WU?$char_traits@_W@std@@V?$allocator@_W@2@@std@@V?$allocator@V?$basic_string@_WU?$char_traits@_W@std@@V?$allocator@_W@2@@std@@@2@@std@@AEAAAEAV?$basic_string@_WU?$char_traits@_W@std@@V?$allocator@_W@2@@1@AEBV21@@Z 000000014003daf0 f i TaskbarProperties.obj
 0001:0003cb70       ??$_Emplace_reallocate@AEBV?$basic_string@_WU?$char_traits@_W@std@@V?$allocator@_W@2@@std@@@?$vector@V?$basic_string@_WU?$char_traits@_W@std@@V?$allocator@_W@2@@std@@V?$allocator@V?$basic_string@_WU?$char_traits@_W@std@@V?$allocator@_W@2@@std@@@2@@std@@AEAAPEAV?$basic_string@_WU?$char_traits@_W@std@@V?$allocator@_W@2@@1@QEAV21@AEBV21@@Z 000000014003db70 f i TaskbarProperties.obj
 0001:0003ce00       ??$_Find_last_vectorized@$$CB_W_W@std@@YAPEB_WQEB_W0_W@Z 000000014003de00 f i TaskbarProperties.obj
 0001:0003ce30       ??$_Search_vectorized@$$CB_W$$CB_W@std@@YAPEB_WQEB_W00_K@Z 000000014003de30 f i TaskbarProperties.obj
 0001:0003ce70       ??$_Traits_equal@U?$char_traits@_W@std@@@std@@YA_NQEB_W_K01@Z 000000014003de70 f i TaskbarProperties.obj
 0001:0003cee0       ??$_Traits_find@U?$char_traits@_W@std@@@std@@YA_KQEB_W_K101@Z 000000014003dee0 f i TaskbarProperties.obj
 0001:0003d070       ??$_Traits_rfind_ch@U?$char_traits@_W@std@@@std@@YA_KQEB_W_K1_W@Z 000000014003e070 f i TaskbarProperties.obj
 0001:0003d1a0       ??$construct@V?$basic_string@_WU?$char_traits@_W@std@@V?$allocator@_W@2@@std@@AEBV12@@?$_Default_allocator_traits@V?$allocator@V?$basic_string@_WU?$char_traits@_W@std@@V?$allocator@_W@2@@std@@@std@@@std@@SAXAEAV?$allocator@V?$basic_string@_WU?$char_traits@_W@std@@V?$allocator@_W@2@@std@@@1@QEAV?$basic_string@_WU?$char_traits@_W@std@@V?$allocator@_W@2@@1@AEBV31@@Z 000000014003e1a0 f i TaskbarProperties.obj
 0001:0003d1f0       ??0?$basic_string@_WU?$char_traits@_W@std@@V?$allocator@_W@2@@std@@QEAA@AEBV01@_K1AEBV?$allocator@_W@1@@Z 000000014003e1f0 f i TaskbarProperties.obj
 0001:0003d290       ??0Bitmap@Gdiplus@@QEAA@HHH@Z 000000014003e290 f i TaskbarProperties.obj
 0001:0003d320       ??0Bitmap@Gdiplus@@QEAA@PEAUIStream@@H@Z 000000014003e320 f i TaskbarProperties.obj
 0001:0003d3b0       ??0Bitmap@Gdiplus@@QEAA@PEB_WH@Z 000000014003e3b0 f i TaskbarProperties.obj
 0001:0003d440       ??0Graphics@Gdiplus@@QEAA@PEAVImage@1@@Z 000000014003e440 f i TaskbarProperties.obj
 0001:0003d4a0       ??0Image@Gdiplus@@IEAA@XZ  000000014003e4a0 f i TaskbarProperties.obj
 0001:0003d4c0       ??1Bitmap@Gdiplus@@UEAA@XZ 000000014003e4c0 f i TaskbarProperties.obj
 0001:0003d4e0       ??_EBitmap@Gdiplus@@UEAAPEAXI@Z 000000014003e4e0 f i TaskbarProperties.obj
 0001:0003d4e0       ??_GBitmap@Gdiplus@@UEAAPEAXI@Z 000000014003e4e0 f i TaskbarProperties.obj
 0001:0003d540       ?DrawImage@Graphics@Gdiplus@@QEAA?AW4Status@2@PEAVImage@2@HHHH@Z 000000014003e540 f i TaskbarProperties.obj
 0001:0003d5c0       ?FromStream@Bitmap@Gdiplus@@SAPEAV12@PEAUIStream@@H@Z 000000014003e5c0 f i TaskbarProperties.obj
 0001:0003d620       ?GetHBITMAP@Bitmap@Gdiplus@@QEAA?AW4Status@2@AEBVColor@2@PEAPEAUHBITMAP__@@@Z 000000014003e620 f i TaskbarProperties.obj
 0001:0003d670       ?_Equal@?$basic_string@_WU?$char_traits@_W@std@@V?$allocator@_W@2@@std@@QEBA_NQEB_W@Z 000000014003e670 f i TaskbarProperties.obj
 0001:0003d6c0       ?_Is_constant_evaluated@std@@YA_NXZ 000000014003e6c0 f i TaskbarProperties.obj
 0001:0003d6d0       ?append@?$basic_string@_WU?$char_traits@_W@std@@V?$allocator@_W@2@@std@@QEAAAEAV12@AEBV12@@Z 000000014003e6d0 f i TaskbarProperties.obj
 0001:0003d710       ?compare@?$_WChar_traits@_W@std@@SAHQEB_W0_K@Z 000000014003e710 f i TaskbarProperties.obj
 0001:0003d740       ?find@?$_WChar_traits@_W@std@@SAPEB_WPEB_W_KAEB_W@Z 000000014003e740 f i TaskbarProperties.obj
 0001:0003d770       ?find@?$basic_string@_WU?$char_traits@_W@std@@V?$allocator@_W@2@@std@@QEBA_KQEB_W_K@Z 000000014003e770 f i TaskbarProperties.obj
 0001:0003d7d0       ?find_last_of@?$basic_string@_WU?$char_traits@_W@std@@V?$allocator@_W@2@@std@@QEBA_K_W_K@Z 000000014003e7d0 f i TaskbarProperties.obj
 0001:0003d820       ?push_back@?$vector@V?$basic_string@_WU?$char_traits@_W@std@@V?$allocator@_W@2@@std@@V?$allocator@V?$basic_string@_WU?$char_traits@_W@std@@V?$allocator@_W@2@@std@@@2@@std@@QEAAXAEBV?$basic_string@_WU?$char_traits@_W@std@@V?$allocator@_W@2@@2@@Z 000000014003e820 f i TaskbarProperties.obj
 0001:0003d850       ?substr@?$basic_string@_WU?$char_traits@_W@std@@V?$allocator@_W@2@@std@@QEBA?AV12@_K0@Z 000000014003e850 f i TaskbarProperties.obj
 0001:0003d8b0       ?wcsrchr@@YAPEA_WPEA_W_W@Z 000000014003e8b0 f i TaskbarProperties.obj
 0001:0003d8e0       ?wcsstr@@YAPEA_WPEA_WPEB_W@Z 000000014003e8e0 f i TaskbarProperties.obj
 0001:0003d910       _vfwprintf_l               000000014003e910 f i TaskbarProperties.obj
 0001:0003d960       fwprintf                   000000014003e960 f i TaskbarProperties.obj
 0001:0003d9b0       wmemchr                    000000014003e9b0 f i TaskbarProperties.obj
 0001:0003da10       wmemcmp                    000000014003ea10 f i TaskbarProperties.obj
 0001:0003daa0       ?Initialize@DesktopWindow@@YA_NXZ 000000014003eaa0 f   DesktopWindow.obj
 0001:0003e4c0       ?Cleanup@DesktopWindow@@YAXXZ 000000014003f4c0 f   DesktopWindow.obj
 0001:0003e730       ?GetHWND@DesktopWindow@@YAPEAUHWND__@@XZ 000000014003f730 f   DesktopWindow.obj
 0001:0003f100       ?ProgmanWndProc@@YA_JPEAUHWND__@@I_K_J@Z 0000000140040100 f   DesktopWindow.obj
 0001:0003fe10       ?DefViewWndProc@@YA_JPEAUHWND__@@I_K_J@Z 0000000140040e10 f   DesktopWindow.obj
 0001:00040710       ?SecondaryProgmanWndProc@@YA_JPEAUHWND__@@I_K_J@Z 0000000140041710 f   DesktopWindow.obj
 0001:000408e0       ?PopulateDesktopGrid@@YAXPEAUHWND__@@@Z 00000001400418e0 f   DesktopWindow.obj
 0001:00041600       ?SaveIconPositions@@YAXPEAUHWND__@@@Z 0000000140042600 f   DesktopWindow.obj
 0001:000418c0       ?RegisterDesktopChangeWatcher@@YAKPEAUHWND__@@@Z 00000001400428c0 f   DesktopWindow.obj
 0001:00041960       ?DrawWallpaper@@YAXPEAUHWND__@@PEAUHDC__@@HH@Z 0000000140042960 f   DesktopWindow.obj
 0001:00043490       ==                         0000000140044490 f i DesktopWindow.obj
 0001:000434d0       ??$?0AEAPEAV?$basic_string@_WU?$char_traits@_W@std@@V?$allocator@_W@2@@std@@AEAPEAV01@$0A@@?$pair@PEAV?$basic_string@_WU?$char_traits@_W@std@@V?$allocator@_W@2@@std@@PEAV12@@std@@QEAA@AEAPEAV?$basic_string@_WU?$char_traits@_W@std@@V?$allocator@_W@2@@1@0@Z 00000001400444d0 f i DesktopWindow.obj
 0001:00043520       ??$?8_WU?$char_traits@_W@std@@V?$allocator@_W@1@@std@@YA_NAEBV?$basic_string@_WU?$char_traits@_W@std@@V?$allocator@_W@2@@0@0@Z 0000000140044520 f i DesktopWindow.obj
 0001:00043550       ??$?8_W_W@std@@YA_NAEBV?$allocator@_W@0@0@Z 0000000140044550 f i DesktopWindow.obj
 0001:00043560       ??$?9_WU?$char_traits@_W@std@@V?$allocator@_W@1@@std@@YA_NAEBV?$basic_string@_WU?$char_traits@_W@std@@V?$allocator@_W@2@@0@0@Z 0000000140044560 f i DesktopWindow.obj
 0001:000435a0       ??$?M_WU?$char_traits@_W@std@@V?$allocator@_W@1@@std@@YA_NAEBV?$basic_string@_WU?$char_traits@_W@std@@V?$allocator@_W@2@@0@0@Z 00000001400445a0 f i DesktopWindow.obj
 0001:000435e0       ??$?RAEAV?$basic_string@_WU?$char_traits@_W@std@@V?$allocator@_W@2@@std@@AEAV01@@?$less@X@std@@QEBA_NAEAV?$basic_string@_WU?$char_traits@_W@std@@V?$allocator@_W@2@@1@0@Z 00000001400445e0 f i DesktopWindow.obj
 0001:00043610       ??$_Adl_verify_range@V?$_Vector_iterator@V?$_Vector_val@U?$_Simple_types@V?$basic_string@_WU?$char_traits@_W@std@@V?$allocator@_W@2@@std@@@std@@@std@@@std@@V12@@std@@YAXAEBV?$_Vector_iterator@V?$_Vector_val@U?$_Simple_types@V?$basic_string@_WU?$char_traits@_W@std@@V?$allocator@_W@2@@std@@@std@@@std@@@0@0@Z 0000000140044610 f i DesktopWindow.obj
 0001:00043640       ??$_Allocate_at_least_helper@V?$allocator@USavedPos@@@std@@@std@@YAPEAUSavedPos@@AEAV?$allocator@USavedPos@@@0@AEA_K@Z 0000000140044640 f i DesktopWindow.obj
 0001:00043670       ??$_Debug_lt_pred@AEAU?$less@X@std@@AEAV?$basic_string@_WU?$char_traits@_W@std@@V?$allocator@_W@2@@2@AEAV32@@std@@YA_NAEAU?$less@X@0@AEAV?$basic_string@_WU?$char_traits@_W@std@@V?$allocator@_W@2@@0@1@Z 0000000140044670 f i DesktopWindow.obj
 0001:00043720       ??$_Destroy_range@V?$allocator@USavedPos@@@std@@@std@@YAXPEAUSavedPos@@QEAU1@AEAV?$allocator@USavedPos@@@0@@Z 0000000140044720 f i DesktopWindow.obj
 0001:00043770       ??$_Emplace_back@USavedPos@@@?$_Uninitialized_backout_al@V?$allocator@USavedPos@@@std@@@std@@QEAAX$$QEAUSavedPos@@@Z 0000000140044770 f i DesktopWindow.obj
 0001:000437d0       ??$_Emplace_back_with_unused_capacity@AEBUSavedPos@@@?$vector@USavedPos@@V?$allocator@USavedPos@@@std@@@std@@AEAAAEAUSavedPos@@AEBU2@@Z 00000001400447d0 f i DesktopWindow.obj
 0001:00043880       ??$_Emplace_one_at_back@AEBUSavedPos@@@?$vector@USavedPos@@V?$allocator@USavedPos@@@std@@@std@@AEAAAEAUSavedPos@@AEBU2@@Z 0000000140044880 f i DesktopWindow.obj
 0001:00043900       ??$_Emplace_reallocate@AEBUSavedPos@@@?$vector@USavedPos@@V?$allocator@USavedPos@@@std@@@std@@AEAAPEAUSavedPos@@QEAU2@AEBU2@@Z 0000000140044900 f i DesktopWindow.obj
 0001:00043b90       ??$_Get_size_of_n@$0DA@@std@@YA_K_K@Z 0000000140044b90 f i DesktopWindow.obj
 0001:00043bd0       ??$_Get_unwrapped@AEBV?$_Vector_iterator@V?$_Vector_val@U?$_Simple_types@V?$basic_string@_WU?$char_traits@_W@std@@V?$allocator@_W@2@@std@@@std@@@std@@@std@@@std@@YA?A_TAEBV?$_Vector_iterator@V?$_Vector_val@U?$_Simple_types@V?$basic_string@_WU?$char_traits@_W@std@@V?$allocator@_W@2@@std@@@std@@@std@@@0@@Z 0000000140044bd0 f i DesktopWindow.obj
 0001:00043bf0       ??$_Guess_median_unchecked@PEAV?$basic_string@_WU?$char_traits@_W@std@@V?$allocator@_W@2@@std@@U?$less@X@2@@std@@YAXPEAV?$basic_string@_WU?$char_traits@_W@std@@V?$allocator@_W@2@@0@00U?$less@X@0@@Z 0000000140044bf0 f i DesktopWindow.obj
 0001:00043d50       ??$_Insertion_sort_unchecked@PEAV?$basic_string@_WU?$char_traits@_W@std@@V?$allocator@_W@2@@std@@U?$less@X@2@@std@@YAPEAV?$basic_string@_WU?$char_traits@_W@std@@V?$allocator@_W@2@@0@QEAV10@0U?$less@X@0@@Z 0000000140044d50 f i DesktopWindow.obj
 0001:00043ee0       ??$_Make_heap_unchecked@PEAV?$basic_string@_WU?$char_traits@_W@std@@V?$allocator@_W@2@@std@@U?$less@X@2@@std@@YAXPEAV?$basic_string@_WU?$char_traits@_W@std@@V?$allocator@_W@2@@0@0U?$less@X@0@@Z 0000000140044ee0 f i DesktopWindow.obj
 0001:00043fd0       ??$_Med3_unchecked@PEAV?$basic_string@_WU?$char_traits@_W@std@@V?$allocator@_W@2@@std@@U?$less@X@2@@std@@YAXPEAV?$basic_string@_WU?$char_traits@_W@std@@V?$allocator@_W@2@@0@00U?$less@X@0@@Z 0000000140044fd0 f i DesktopWindow.obj
 0001:00044070       ??$_Move_backward_unchecked@PEAV?$basic_string@_WU?$char_traits@_W@std@@V?$allocator@_W@2@@std@@PEAV12@@std@@YAPEAV?$basic_string@_WU?$char_traits@_W@std@@V?$allocator@_W@2@@0@PEAV10@00@Z 0000000140045070 f i DesktopWindow.obj
 0001:000440d0       ??$_Next_iter@PEAV?$basic_string@_WU?$char_traits@_W@std@@V?$allocator@_W@2@@std@@@std@@YAPEAV?$basic_string@_WU?$char_traits@_W@std@@V?$allocator@_W@2@@0@PEAV10@@Z 00000001400450d0 f i DesktopWindow.obj
 0001:000440f0       ??$_Partition_by_median_guess_unchecked@PEAV?$basic_string@_WU?$char_traits@_W@std@@V?$allocator@_W@2@@std@@U?$less@X@2@@std@@YA?AU?$pair@PEAV?$basic_string@_WU?$char_traits@_W@std@@V?$allocator@_W@2@@std@@PEAV12@@0@PEAV?$basic_string@_WU?$char_traits@_W@std@@V?$allocator@_W@2@@0@0U?$less@X@0@@Z 00000001400450f0 f i DesktopWindow.obj
 0001:000444b0       ??$_Pass_fn@U?$less@X@std@@@std@@YA?A_PAEAU?$less@X@0@@Z 00000001400454b0 f i DesktopWindow.obj
 0001:000444d0       ??$_Pocs@V?$allocator@_W@std@@@std@@YAXAEAV?$allocator@_W@0@0@Z 00000001400454d0 f i DesktopWindow.obj
 0001:00044550       ??$_Pop_heap_hole_by_index@PEAV?$basic_string@_WU?$char_traits@_W@std@@V?$allocator@_W@2@@std@@V12@U?$less@X@2@@std@@YAXPEAV?$basic_string@_WU?$char_traits@_W@std@@V?$allocator@_W@2@@0@_J1$$QEAV10@U?$less@X@0@@Z 0000000140045550 f i DesktopWindow.obj
 0001:000446e0       ??$_Pop_heap_hole_unchecked@PEAV?$basic_string@_WU?$char_traits@_W@std@@V?$allocator@_W@2@@std@@V12@U?$less@X@2@@std@@YAXPEAV?$basic_string@_WU?$char_traits@_W@std@@V?$allocator@_W@2@@0@00$$QEAV10@U?$less@X@0@@Z 00000001400456e0 f i DesktopWindow.obj
 0001:00044770       ??$_Pop_heap_unchecked@PEAV?$basic_string@_WU?$char_traits@_W@std@@V?$allocator@_W@2@@std@@U?$less@X@2@@std@@YAXPEAV?$basic_string@_WU?$char_traits@_W@std@@V?$allocator@_W@2@@0@0U?$less@X@0@@Z 0000000140045770 f i DesktopWindow.obj
 0001:00044830       ??$_Prev_iter@PEAV?$basic_string@_WU?$char_traits@_W@std@@V?$allocator@_W@2@@std@@@std@@YAPEAV?$basic_string@_WU?$char_traits@_W@std@@V?$allocator@_W@2@@0@PEAV10@@Z 0000000140045830 f i DesktopWindow.obj
 0001:00044850       ??$_Push_heap_by_index@PEAV?$basic_string@_WU?$char_traits@_W@std@@V?$allocator@_W@2@@std@@V12@U?$less@X@2@@std@@YAXPEAV?$basic_string@_WU?$char_traits@_W@std@@V?$allocator@_W@2@@0@_J1$$QEAV10@U?$less@X@0@@Z 0000000140045850 f i DesktopWindow.obj
 0001:00044930       ??$_Sort_heap_unchecked@PEAV?$basic_string@_WU?$char_traits@_W@std@@V?$allocator@_W@2@@std@@U?$less@X@2@@std@@YAXPEAV?$basic_string@_WU?$char_traits@_W@std@@V?$allocator@_W@2@@0@0U?$less@X@0@@Z 0000000140045930 f i DesktopWindow.obj
 0001:00044990       ??$_Sort_unchecked@PEAV?$basic_string@_WU?$char_traits@_W@std@@V?$allocator@_W@2@@std@@U?$less@X@2@@std@@YAXPEAV?$basic_string@_WU?$char_traits@_W@std@@V?$allocator@_W@2@@0@0_JU?$less@X@0@@Z 0000000140045990 f i DesktopWindow.obj
 0001:00044af0       ??$_Traits_compare@U?$char_traits@_W@std@@@std@@YAHQEB_W_K01@Z 0000000140045af0 f i DesktopWindow.obj
 0001:00044b70       ??$_Uninitialized_move@PEAUSavedPos@@V?$allocator@USavedPos@@@std@@@std@@YAPEAUSavedPos@@QEAU1@0PEAU1@AEAV?$allocator@USavedPos@@@0@@Z 0000000140045b70 f i DesktopWindow.obj
 0001:00044c20       ??$construct@USavedPos@@AEBU1@@?$_Default_allocator_traits@V?$allocator@USavedPos@@@std@@@std@@SAXAEAV?$allocator@USavedPos@@@1@QEAUSavedPos@@AEBU3@@Z 0000000140045c20 f i DesktopWindow.obj
 0001:00044c70       ??$construct@USavedPos@@U1@@?$_Default_allocator_traits@V?$allocator@USavedPos@@@std@@@std@@SAXAEAV?$allocator@USavedPos@@@1@QEAUSavedPos@@$$QEAU3@@Z 0000000140045c70 f i DesktopWindow.obj
 0001:00044cc0       ??$destroy@USavedPos@@@?$_Default_allocator_traits@V?$allocator@USavedPos@@@std@@@std@@SAXAEAV?$allocator@USavedPos@@@1@QEAUSavedPos@@@Z 0000000140045cc0 f i DesktopWindow.obj
 0001:00044ce0       ??$sort@V?$_Vector_iterator@V?$_Vector_val@U?$_Simple_types@V?$basic_string@_WU?$char_traits@_W@std@@V?$allocator@_W@2@@std@@@std@@@std@@@std@@@std@@YAXV?$_Vector_iterator@V?$_Vector_val@U?$_Simple_types@V?$basic_string@_WU?$char_traits@_W@std@@V?$allocator@_W@2@@std@@@std@@@std@@@0@0@Z 0000000140045ce0 f i DesktopWindow.obj
 0001:00044d80       ??$sort@V?$_Vector_iterator@V?$_Vector_val@U?$_Simple_types@V?$basic_string@_WU?$char_traits@_W@std@@V?$allocator@_W@2@@std@@@std@@@std@@@std@@U?$less@X@2@@std@@YAXV?$_Vector_iterator@V?$_Vector_val@U?$_Simple_types@V?$basic_string@_WU?$char_traits@_W@std@@V?$allocator@_W@2@@std@@@std@@@std@@@0@0U?$less@X@0@@Z 0000000140045d80 f i DesktopWindow.obj
 0001:00044e20       ??$swap@PEA_W$0A@@std@@YAXAEAPEA_W0@Z 0000000140045e20 f i DesktopWindow.obj
 0001:00044e20       ??$swap@_K$0A@@std@@YAXAEA_K0@Z 0000000140045e20 f i DesktopWindow.obj
 0001:00044e70       ??$swap@_WU?$char_traits@_W@std@@V?$allocator@_W@2@@std@@YAXAEAV?$basic_string@_WU?$char_traits@_W@std@@V?$allocator@_W@2@@0@0@Z 0000000140045e70 f i DesktopWindow.obj
 0001:00044ea0       ??0CDesktopShellBrowser@@QEAA@PEAUHWND__@@@Z 0000000140045ea0 f i DesktopWindow.obj
 0001:00044ef0       ??0Color@Gdiplus@@QEAA@EEE@Z 0000000140045ef0 f i DesktopWindow.obj
 0001:00044f30       ??0IOleWindow@@QEAA@XZ     0000000140045f30 f i DesktopWindow.obj
 0001:00044f50       ??0IShellBrowser@@QEAA@XZ  0000000140045f50 f i DesktopWindow.obj
 0001:00044f70       ??0SavedPos@@QEAA@$$QEAU0@@Z 0000000140045f70 f i DesktopWindow.obj
 0001:00044fb0       ??0SavedPos@@QEAA@AEBU0@@Z 0000000140045fb0 f i DesktopWindow.obj
 0001:00044ff0       ??0SavedPos@@QEAA@XZ       0000000140045ff0 f i DesktopWindow.obj
 0001:00045020       ??0TextureBrush@Gdiplus@@QEAA@PEAVImage@1@W4WrapMode@1@@Z 0000000140046020 f i DesktopWindow.obj
 0001:00045090       ??1?$_Uninitialized_backout_al@V?$allocator@USavedPos@@@std@@@std@@QEAA@XZ 0000000140046090 f i DesktopWindow.obj
 0001:000450c0       ??1?$vector@USavedPos@@V?$allocator@USavedPos@@@std@@@std@@QEAA@XZ 00000001400460c0 f i DesktopWindow.obj
 0001:00045130       ??1CDesktopShellBrowser@@UEAA@XZ 0000000140046130 f i DesktopWindow.obj
 0001:00045150       ??1SavedPos@@QEAA@XZ       0000000140046150 f i DesktopWindow.obj
 0001:00045170       ??1_Reallocation_guard@?$vector@USavedPos@@V?$allocator@USavedPos@@@std@@@std@@QEAA@XZ 0000000140046170 f i DesktopWindow.obj
 0001:000451d0       ??A?$vector@V?$basic_string@_WU?$char_traits@_W@std@@V?$allocator@_W@2@@std@@V?$allocator@V?$basic_string@_WU?$char_traits@_W@std@@V?$allocator@_W@2@@std@@@2@@std@@QEAAAEAV?$basic_string@_WU?$char_traits@_W@std@@V?$allocator@_W@2@@1@_K@Z 00000001400461d0 f i DesktopWindow.obj
 0001:00045280       ??U@YA?AW4FOLDERFLAGS@@W40@0@Z 0000000140046280 f i DesktopWindow.obj
 0001:00045280       ??U@YA?AW4__acrt_fenv_abstract_control@@W40@0@Z 0000000140046280 f i libucrtd:_fenvutils.obj
 0001:00045280       ??U@YA?AW4__acrt_fenv_abstract_status@@W40@0@Z 0000000140046280 f i libucrtd:_fenvutils.obj
 0001:000452a0       ??_ECDesktopShellBrowser@@UEAAPEAXI@Z 00000001400462a0 f i DesktopWindow.obj
 0001:000452a0       ??_GCDesktopShellBrowser@@UEAAPEAXI@Z 00000001400462a0 f i DesktopWindow.obj
 0001:000452e0       ??_GSavedPos@@QEAAPEAXI@Z  00000001400462e0 f i DesktopWindow.obj
 0001:00045320       ?AddRef@CDesktopShellBrowser@@UEAAKXZ 0000000140046320 f i DesktopWindow.obj
 0001:00045340       ?BrowseObject@CDesktopShellBrowser@@UEAAJPEFBU_ITEMIDLIST@@I@Z 0000000140046340 f i DesktopWindow.obj
 0001:00045360       ?ContextSensitiveHelp@CDesktopShellBrowser@@UEAAJH@Z 0000000140046360 f i DesktopWindow.obj
 0001:00045360       ?EnableModelessSB@CDesktopShellBrowser@@UEAAJH@Z 0000000140046360 f i DesktopWindow.obj
 0001:00045370       ?GetControlWindow@CDesktopShellBrowser@@UEAAJIPEAPEAUHWND__@@@Z 0000000140046370 f i DesktopWindow.obj
 0001:000453a0       ?GetViewStateStream@CDesktopShellBrowser@@UEAAJKPEAPEAUIStream@@@Z 00000001400463a0 f i DesktopWindow.obj
 0001:000453c0       ?GetWindow@CDesktopShellBrowser@@UEAAJPEAPEAUHWND__@@@Z 00000001400463c0 f i DesktopWindow.obj
 0001:000453f0       ?InsertMenusSB@CDesktopShellBrowser@@UEAAJPEAUHMENU__@@PEAUtagOleMenuGroupWidths@@@Z 00000001400463f0 f i DesktopWindow.obj
 0001:00045410       ?OnViewWindowActive@CDesktopShellBrowser@@UEAAJPEAUIShellView@@@Z 0000000140046410 f i DesktopWindow.obj
 0001:00045420       ?QueryActiveShellView@CDesktopShellBrowser@@UEAAJPEAPEAUIShellView@@@Z 0000000140046420 f i DesktopWindow.obj
 0001:00045450       ?QueryInterface@CDesktopShellBrowser@@UEAAJAEBU_GUID@@PEAPEAX@Z 0000000140046450 f i DesktopWindow.obj
 0001:00045500       ?Release@CDesktopShellBrowser@@UEAAKXZ 0000000140046500 f i DesktopWindow.obj
 0001:00045570       ?RemoveMenusSB@CDesktopShellBrowser@@UEAAJPEAUHMENU__@@@Z 0000000140046570 f i DesktopWindow.obj
 0001:00045570       ?SetStatusTextSB@CDesktopShellBrowser@@UEAAJPEB_W@Z 0000000140046570 f i DesktopWindow.obj
 0001:00045580       ?SendControlMsg@CDesktopShellBrowser@@UEAAJII_K_JPEA_J@Z 0000000140046580 f i DesktopWindow.obj
 0001:000455a0       ?SetMenuSB@CDesktopShellBrowser@@UEAAJPEAUHMENU__@@PEAXPEAUHWND__@@@Z 00000001400465a0 f i DesktopWindow.obj
 0001:000455c0       ?SetPixelOffsetMode@Graphics@Gdiplus@@QEAA?AW4Status@2@W4PixelOffsetMode@2@@Z 00000001400465c0 f i DesktopWindow.obj
 0001:000455f0       ?SetToolbarItems@CDesktopShellBrowser@@UEAAJPEAU_TBBUTTON@@II@Z 00000001400465f0 f i DesktopWindow.obj
 0001:00045610       ?SetWrapMode@TextureBrush@Gdiplus@@QEAA?AW4Status@2@W4WrapMode@2@@Z 0000000140046610 f i DesktopWindow.obj
 0001:00045640       ?TranslateAcceleratorSB@CDesktopShellBrowser@@UEAAJPEAUtagMSG@@G@Z 0000000140046640 f i DesktopWindow.obj
 0001:00045660       ?TranslateTransform@TextureBrush@Gdiplus@@QEAA?AW4Status@2@MMW4MatrixOrder@2@@Z 0000000140046660 f i DesktopWindow.obj
 0001:000456b0       ?_Calculate_growth@?$vector@USavedPos@@V?$allocator@USavedPos@@@std@@@std@@AEBA_K_K@Z 00000001400466b0 f i DesktopWindow.obj
 0001:00045740       ?_Change_array@?$vector@USavedPos@@V?$allocator@USavedPos@@@std@@@std@@AEAAXQEAUSavedPos@@_K1@Z 0000000140046740 f i DesktopWindow.obj
 0001:00045850       ?_Eos@?$basic_string@_WU?$char_traits@_W@std@@V?$allocator@_W@2@@std@@AEAAX_K@Z 0000000140046850 f i DesktopWindow.obj
 0001:000458a0       ?_Equal@?$basic_string@_WU?$char_traits@_W@std@@V?$allocator@_W@2@@std@@QEBA_NAEBV12@@Z 00000001400468a0 f i DesktopWindow.obj
 0001:00045900       ?_InterlockedDecrement@@YAKPECK@Z 0000000140046900 f i DesktopWindow.obj
 0001:00045920       ?_InterlockedIncrement@@YAKPECK@Z 0000000140046920 f i DesktopWindow.obj
 0001:00045940       ?_Swap_bx_large_with_small@?$basic_string@_WU?$char_traits@_W@std@@V?$allocator@_W@2@@std@@SAXAEAV?$_String_val@U?$_Simple_types@_W@std@@@2@0@Z 0000000140046940 f i DesktopWindow.obj
 0001:000459b0       ?_Swap_data@?$basic_string@_WU?$char_traits@_W@std@@V?$allocator@_W@2@@std@@QEAAXAEAV12@@Z 00000001400469b0 f i DesktopWindow.obj
 0001:00045bb0       ?_Tidy@?$vector@USavedPos@@V?$allocator@USavedPos@@@std@@@std@@AEAAXXZ 0000000140046bb0 f i DesktopWindow.obj
 0001:00045c90       ?_Verify_range@std@@YAXAEBV?$_Vector_const_iterator@V?$_Vector_val@U?$_Simple_types@V?$basic_string@_WU?$char_traits@_W@std@@V?$allocator@_W@2@@std@@@std@@@std@@@1@0@Z 0000000140046c90 f i DesktopWindow.obj
 0001:00045d80       ?allocate@?$allocator@USavedPos@@@std@@QEAAPEAUSavedPos@@_K@Z 0000000140046d80 f i DesktopWindow.obj
 0001:00045db0       ?capacity@?$vector@USavedPos@@V?$allocator@USavedPos@@@std@@@std@@QEBA_KXZ 0000000140046db0 f i DesktopWindow.obj
 0001:00045df0       ?clear@?$basic_string@_WU?$char_traits@_W@std@@V?$allocator@_W@2@@std@@QEAAXXZ 0000000140046df0 f i DesktopWindow.obj
 0001:00045e10       ?compare@?$basic_string@_WU?$char_traits@_W@std@@V?$allocator@_W@2@@std@@QEBAHAEBV12@@Z 0000000140046e10 f i DesktopWindow.obj
 0001:00045e70       ?deallocate@?$allocator@USavedPos@@@std@@QEAAXQEAUSavedPos@@_K@Z 0000000140046e70 f i DesktopWindow.obj
 0001:00045f00       ?max_size@?$_Default_allocator_traits@V?$allocator@USavedPos@@@std@@@std@@SA_KAEBV?$allocator@USavedPos@@@2@@Z 0000000140046f00 f i DesktopWindow.obj
 0001:00045f10       ?max_size@?$vector@USavedPos@@V?$allocator@USavedPos@@@std@@@std@@QEBA_KXZ 0000000140046f10 f i DesktopWindow.obj
 0001:00045f60       ?push_back@?$vector@USavedPos@@V?$allocator@USavedPos@@@std@@@std@@QEAAXAEBUSavedPos@@@Z 0000000140046f60 f i DesktopWindow.obj
 0001:00045f90       ?size@?$vector@V?$basic_string@_WU?$char_traits@_W@std@@V?$allocator@_W@2@@std@@V?$allocator@V?$basic_string@_WU?$char_traits@_W@std@@V?$allocator@_W@2@@std@@@2@@std@@QEBA_KXZ 0000000140046f90 f i DesktopWindow.obj
 0001:00045fd0       ?swap@?$basic_string@_WU?$char_traits@_W@std@@V?$allocator@_W@2@@std@@QEAAXAEAV12@@Z 0000000140046fd0 f i DesktopWindow.obj
 0001:00046090       IsEqualGUID                0000000140047090 f i DesktopWindow.obj
 0001:000460d2       SHGetSpecialFolderLocation 00000001400470d2 f   shell32:SHELL32.dll
 0001:000460d8       SetWindowSubclass          00000001400470d8 f   comctl32:COMCTL32.dll
 0001:000460de       RemoveWindowSubclass       00000001400470de f   comctl32:COMCTL32.dll
 0001:000460e4       DefSubclassProc            00000001400470e4 f   comctl32:COMCTL32.dll
 0001:000460ea       GdipAlloc                  00000001400470ea f   gdiplus:gdiplus.dll
 0001:000460f0       GdipFree                   00000001400470f0 f   gdiplus:gdiplus.dll
 0001:000460f6       GdipCloneBrush             00000001400470f6 f   gdiplus:gdiplus.dll
 0001:000460fc       GdipDeleteBrush            00000001400470fc f   gdiplus:gdiplus.dll
 0001:00046102       GdipCreateSolidFill        0000000140047102 f   gdiplus:gdiplus.dll
 0001:00046108       GdipCreatePen1             0000000140047108 f   gdiplus:gdiplus.dll
 0001:0004610e       GdipDeletePen              000000014004710e f   gdiplus:gdiplus.dll
 0001:00046114       GdipCreateFromHDC          0000000140047114 f   gdiplus:gdiplus.dll
 0001:0004611a       GdipDeleteGraphics         000000014004711a f   gdiplus:gdiplus.dll
 0001:00046120       GdipDrawLineI              0000000140047120 f   gdiplus:gdiplus.dll
 0001:00046126       GdipFillRectangleI         0000000140047126 f   gdiplus:gdiplus.dll
 0001:0004612c       GdiplusStartup             000000014004712c f   gdiplus:gdiplus.dll
 0001:00046132       GdiplusShutdown            0000000140047132 f   gdiplus:gdiplus.dll
 0001:00046138       GdipLoadImageFromStream    0000000140047138 f   gdiplus:gdiplus.dll
 0001:0004613e       GdipLoadImageFromStreamICM 000000014004713e f   gdiplus:gdiplus.dll
 0001:00046144       GdipCloneImage             0000000140047144 f   gdiplus:gdiplus.dll
 0001:0004614a       GdipDisposeImage           000000014004714a f   gdiplus:gdiplus.dll
 0001:00046150       GdipGetImageWidth          0000000140047150 f   gdiplus:gdiplus.dll
 0001:00046156       GdipGetImageHeight         0000000140047156 f   gdiplus:gdiplus.dll
 0001:0004615c       GdipSetInterpolationMode   000000014004715c f   gdiplus:gdiplus.dll
 0001:00046162       GdipGraphicsClear          0000000140047162 f   gdiplus:gdiplus.dll
 0001:00046168       GdipDrawImageRectRectI     0000000140047168 f   gdiplus:gdiplus.dll
 0001:0004616e       GdipSetSmoothingMode       000000014004716e f   gdiplus:gdiplus.dll
 0001:00046174       GdipSetTextRenderingHint   0000000140047174 f   gdiplus:gdiplus.dll
 0001:0004617a       GdipCreateFontFamilyFromName 000000014004717a f   gdiplus:gdiplus.dll
 0001:00046180       GdipDeleteFontFamily       0000000140047180 f   gdiplus:gdiplus.dll
 0001:00046186       GdipCreateFont             0000000140047186 f   gdiplus:gdiplus.dll
 0001:0004618c       GdipDeleteFont             000000014004718c f   gdiplus:gdiplus.dll
 0001:00046192       GdipDrawString             0000000140047192 f   gdiplus:gdiplus.dll
 0001:00046198       GdipCreateStringFormat     0000000140047198 f   gdiplus:gdiplus.dll
 0001:0004619e       GdipDeleteStringFormat     000000014004719e f   gdiplus:gdiplus.dll
 0001:000461a4       GdipSetStringFormatAlign   00000001400471a4 f   gdiplus:gdiplus.dll
 0001:000461aa       GdipSetStringFormatLineAlign 00000001400471aa f   gdiplus:gdiplus.dll
 0001:000461b0       GdipGetImageGraphicsContext 00000001400471b0 f   gdiplus:gdiplus.dll
 0001:000461b6       GdipCreateBitmapFromStream 00000001400471b6 f   gdiplus:gdiplus.dll
 0001:000461bc       GdipCreateBitmapFromFile   00000001400471bc f   gdiplus:gdiplus.dll
 0001:000461c2       GdipCreateBitmapFromStreamICM 00000001400471c2 f   gdiplus:gdiplus.dll
 0001:000461c8       GdipCreateBitmapFromFileICM 00000001400471c8 f   gdiplus:gdiplus.dll
 0001:000461ce       GdipCreateBitmapFromScan0  00000001400471ce f   gdiplus:gdiplus.dll
 0001:000461d4       GdipCreateHBITMAPFromBitmap 00000001400471d4 f   gdiplus:gdiplus.dll
 0001:000461da       GdipDrawImageRectI         00000001400471da f   gdiplus:gdiplus.dll
 0001:000461e0       GdipCreateTexture          00000001400471e0 f   gdiplus:gdiplus.dll
 0001:000461e6       GdipTranslateTextureTransform 00000001400471e6 f   gdiplus:gdiplus.dll
 0001:000461ec       GdipSetTextureWrapMode     00000001400471ec f   gdiplus:gdiplus.dll
 0001:000461f2       GdipSetPixelOffsetMode     00000001400471f2 f   gdiplus:gdiplus.dll
 0001:00046200       ??0_Init_locks@std@@QEAA@XZ 0000000140047200 f   libcpmtd:xlock.obj
 0001:00046290       ??0_Lockit@std@@QEAA@H@Z   0000000140047290 f   libcpmtd:xlock.obj
 0001:000462f0       ??1_Init_locks@std@@QEAA@XZ 00000001400472f0 f   libcpmtd:xlock.obj
 0001:00046370       ??1_Lockit@std@@QEAA@XZ    0000000140047370 f   libcpmtd:xlock.obj
 0001:000463c0       ??0bad_alloc@std@@QEAA@XZ  00000001400473c0 f i libcpmtd:xthrow.obj
 0001:00046400       ??0length_error@std@@QEAA@AEBV01@@Z 0000000140047400 f i libcpmtd:xthrow.obj
 0001:00046440       ??0length_error@std@@QEAA@PEBD@Z 0000000140047440 f i libcpmtd:xthrow.obj
 0001:00046480       ??0logic_error@std@@QEAA@AEBV01@@Z 0000000140047480 f i libcpmtd:xthrow.obj
 0001:000464c0       ??0logic_error@std@@QEAA@PEBD@Z 00000001400474c0 f i libcpmtd:xthrow.obj
 0001:00046500       ??0out_of_range@std@@QEAA@AEBV01@@Z 0000000140047500 f i libcpmtd:xthrow.obj
 0001:00046540       ??0out_of_range@std@@QEAA@PEBD@Z 0000000140047540 f i libcpmtd:xthrow.obj
 0001:00046580       ??0runtime_error@std@@QEAA@PEBD@Z 0000000140047580 f i libcpmtd:xthrow.obj
 0001:000465c0       ?_Xbad_alloc@std@@YAXXZ    00000001400475c0 f   libcpmtd:xthrow.obj
 0001:000465c0       ?__scrt_throw_std_bad_alloc@@YAXXZ 00000001400475c0 f   LIBCMTD:throw_bad_alloc.obj
 0001:000465f0       ?_Xlength_error@std@@YAXPEBD@Z 00000001400475f0 f   libcpmtd:xthrow.obj
 0001:00046620       ?_Xout_of_range@std@@YAXPEBD@Z 0000000140047620 f   libcpmtd:xthrow.obj
 0001:00046650       ?_Xruntime_error@std@@YAXPEBD@Z 0000000140047650 f   libcpmtd:xthrow.obj
 0001:00046680       ?uncaught_exception@std@@YA_NXZ 0000000140047680 f   libcpmtd:uncaught_exception.obj
 0001:00046690       ?_Syserror_map@std@@YAPEBDH@Z 0000000140047690 f   libcpmtd:syserror.obj
 0001:00046710       ??0?$_Yarn@D@std@@QEAA@PEBD@Z 0000000140047710 f i libcpmtd:locale0.obj
 0001:00046750       ??0?$_Smanip@_J@std@@QEAA@P6AXAEAVios_base@1@_J@Z1@Z 0000000140047750 f i libcpmtd:iomanip.obj
 0001:00046750       ??0TryBlockMap@__FrameHandler3@@QEAA@PEBU_s_FuncInfo@@_K@Z 0000000140047750 f i libvcruntimed:frame.obj
 0001:00046750       ??0_Fac_node@std@@QEAA@PEAU01@PEAV_Facet_base@1@@Z 0000000140047750 f i libcpmtd:locale0.obj
 0001:00046750       ??0iterator@UWMap4@FH4@@QEAA@AEAV12@PEAE@Z 0000000140047750 f i libvcruntimed:frame.obj
 0001:00046780       ??0_Locimp@locale@std@@AEAA@_N@Z 0000000140047780 f i libcpmtd:locale0.obj
 0001:00046810       ??0?$__crt_scoped_stack_ptr@_W@@QEAA@U?$__crt_scoped_stack_ptr_tag@_W@@@Z 0000000140047810 f i libcpmtd:StlLCMapStringA.obj
 0001:00046810       ??0?$__crt_scoped_stack_ptr_tag@_W@@QEAA@QEA_W@Z 0000000140047810 f i libcpmtd:StlLCMapStringA.obj
 0001:00046810       ??0?$__crt_unique_handle_t@U__crt_findfile_traits@@@@QEAA@QEAX@Z 0000000140047810 f i libucrtd:argv_wildcards.obj
 0001:00046810       ??0?$__crt_unique_handle_t@U__crt_handle_traits@@@@QEAA@QEAX@Z 0000000140047810 f i libucrtd:spawnv.obj
 0001:00046810       ??0?$__crt_unique_handle_t@U__crt_hmodule_traits@@@@QEAA@QEAUHINSTANCE__@@@Z 0000000140047810 f i libucrtd:exit.obj
 0001:00046810       ??0?$__crt_unique_heap_ptr@$$CB_WU__crt_internal_free_policy@@@@QEAA@QEB_W@Z 0000000140047810 f i libucrtd:spawnv.obj
 0001:00046810       ??0?$__crt_unique_heap_ptr@DU__crt_internal_free_policy@@@@QEAA@QEAD@Z 0000000140047810 f i libvcruntimed:std_type_info.obj
 0001:00046810       ??0?$__crt_unique_heap_ptr@DU__crt_public_free_policy@@@@QEAA@QEAD@Z 0000000140047810 f i libvcruntimed:std_exception.obj
 0001:00046810       ??0?$__crt_unique_heap_ptr@EU__crt_internal_free_policy@@@@QEAA@QEAE@Z 0000000140047810 f i libcpmtd:xwcsxfrm.obj
 0001:00046810       ??0?$__crt_unique_heap_ptr@GU__crt_internal_free_policy@@@@QEAA@QEAG@Z 0000000140047810 f i libucrtd:initctype.obj
 0001:00046810       ??0?$__crt_unique_heap_ptr@JU__crt_internal_free_policy@@@@QEAA@QEAJ@Z 0000000140047810 f i libucrtd:initctype.obj
 0001:00046810       ??0?$__crt_unique_heap_ptr@P6AXXZU__crt_internal_free_policy@@@@QEAA@QEAP6AXXZ@Z 0000000140047810 f i libucrtd:onexit.obj
 0001:00046810       ??0?$__crt_unique_heap_ptr@PEADU__crt_internal_free_policy@@@@QEAA@QEAPEAD@Z 0000000140047810 f i libucrtd:argv_parsing.obj
 0001:00046810       ??0?$__crt_unique_heap_ptr@PEAU__crt_stdio_stream_data@@U__crt_internal_free_policy@@@@QEAA@QEAPEAU__crt_stdio_stream_data@@@Z 0000000140047810 f i libucrtd:_file.obj
 0001:00046810       ??0?$__crt_unique_heap_ptr@PEA_WU__crt_internal_free_policy@@@@QEAA@QEAPEA_W@Z 0000000140047810 f i libucrtd:argv_parsing.obj
 0001:00046810       ??0?$__crt_unique_heap_ptr@U__acrt_ptd@@U__crt_internal_free_policy@@@@QEAA@QEAU__acrt_ptd@@@Z 0000000140047810 f i libucrtd:per_thread_data.obj
 0001:00046810       ??0?$__crt_unique_heap_ptr@U__crt_lc_time_data@@U__crt_internal_free_policy@@@@QEAA@QEAU__crt_lc_time_data@@@Z 0000000140047810 f i libucrtd:inittime.obj
 0001:00046810       ??0?$__crt_unique_heap_ptr@U__crt_locale_data@@U__crt_internal_free_policy@@@@QEAA@QEAU__crt_locale_data@@@Z 0000000140047810 f i libucrtd:wsetlocale.obj
 0001:00046810       ??0?$__crt_unique_heap_ptr@U__crt_lowio_handle_data@@U__crt_internal_free_policy@@@@QEAA@QEAU__crt_lowio_handle_data@@@Z 0000000140047810 f i libucrtd:osfinfo.obj
 0001:00046810       ??0?$__crt_unique_heap_ptr@U__crt_multibyte_data@@U__crt_internal_free_policy@@@@QEAA@QEAU__crt_multibyte_data@@@Z 0000000140047810 f i libucrtd:wsetlocale.obj
 0001:00046810       ??0?$__crt_unique_heap_ptr@U__crt_stdio_stream_data@@U__crt_internal_free_policy@@@@QEAA@QEAU__crt_stdio_stream_data@@@Z 0000000140047810 f i libucrtd:stream.obj
 0001:00046810       ??0?$__crt_unique_heap_ptr@U__vcrt_ptd@@U__crt_internal_free_policy@@@@QEAA@QEAU__vcrt_ptd@@@Z 0000000140047810 f i libvcruntimed:per_thread_data.obj
 0001:00046810       ??0?$__crt_unique_heap_ptr@Ulconv@@U__crt_internal_free_policy@@@@QEAA@QEAUlconv@@@Z 0000000140047810 f i libucrtd:initmon.obj
 0001:00046810       ??0?$__crt_unique_heap_ptr@_WU__crt_internal_free_policy@@@@QEAA@QEA_W@Z 0000000140047810 f i libucrtd:system.obj
 0001:00046810       ??0?$string_output_adapter@D@__crt_stdio_output@@QEAA@QEAU?$string_output_adapter_context@D@1@@Z 0000000140047810 f i libucrtd:output.obj
 0001:00046810       ??0?$string_output_adapter@_W@__crt_stdio_output@@QEAA@QEAU?$string_output_adapter_context@_W@1@@Z 0000000140047810 f i libucrtd:output.obj
 0001:00046810       ??0__crt_stdio_stream@@QEAA@QEAU__crt_stdio_stream_data@@@Z 0000000140047810 f i libucrtd:fflush.obj
 0001:00046810       ??0__crt_stdio_stream@@QEAA@QEAU_iobuf@@@Z 0000000140047810 f i libucrtd:output.obj
 0001:00046810       ??0id@locale@std@@QEAA@_K@Z 0000000140047810 f i libcpmtd:locale0.obj
 0001:00046830       ??0locale@std@@AEAA@U_Secret_locale_construct_tag@01@PEAV_Locimp@01@@Z 0000000140047830 f i libcpmtd:locale0.obj
 0001:00046860       ??0locale@std@@QEAA@W4_Uninitialized@1@@Z 0000000140047860 f i libcpmtd:locale0.obj
 0001:00046870       ??1_Fac_node@std@@QEAA@XZ  0000000140047870 f i libcpmtd:locale0.obj
 0001:00046900       ??1_Fac_tidy_reg_t@std@@QEAA@XZ 0000000140047900 f i libcpmtd:locale0.obj
 0001:00046970       ??1_Locimp@locale@std@@MEAA@XZ 0000000140047970 f i libcpmtd:locale0.obj
 0001:000469c0       ??2_Fac_node@std@@SAPEAX_K@Z 00000001400479c0 f i libcpmtd:locale0.obj
 0001:00046a20       ??3_Fac_node@std@@SAXPEAX@Z 0000000140047a20 f i libcpmtd:locale0.obj
 0001:00046a40       ??4?$_Yarn@D@std@@QEAAAEAV01@PEBD@Z 0000000140047a40 f i libcpmtd:locale0.obj
 0001:00046b10       ??_G_Fac_node@std@@QEAAPEAXI@Z 0000000140047b10 f i libcpmtd:locale0.obj
 0001:00046b70       ??_E_Locimp@locale@std@@MEAAPEAXI@Z 0000000140047b70 f i libcpmtd:locale0.obj
 0001:00046b70       ??_G_Locimp@locale@std@@MEAAPEAXI@Z 0000000140047b70 f i libcpmtd:locale0.obj
 0001:00046bd0       ?_Empty@?$_Yarn@D@std@@QEBA_NXZ 0000000140047bd0 f i libcpmtd:locale0.obj
 0001:00046c00       ?_Facet_Register@std@@YAXPEAV_Facet_base@1@@Z 0000000140047c00 f   libcpmtd:locale0.obj
 0001:00046c70       ?_Getgloballocale@locale@std@@CAPEAV_Locimp@12@XZ 0000000140047c70 f   libcpmtd:locale0.obj
 0001:00046c80       ?_Init@locale@std@@CAPEAV_Locimp@12@_N@Z 0000000140047c80 f   libcpmtd:locale0.obj
 0001:00046da0       ?_Locimp_dtor@_Locimp@locale@std@@CAXPEAV123@@Z 0000000140047da0 f   libcpmtd:locale0.obj
 0001:00046ea0       ?_Locinfo_ctor@_Locinfo@std@@SAXPEAV12@PEBD@Z 0000000140047ea0 f   libcpmtd:locale0.obj
 0001:00046f50       ?_Locinfo_dtor@_Locinfo@std@@SAXPEAV12@@Z 0000000140047f50 f   libcpmtd:locale0.obj
 0001:00046fa0       ?_New_Locimp@_Locimp@locale@std@@CAPEAV123@_N@Z 0000000140047fa0 f   libcpmtd:locale0.obj
 0001:00047000       ?_Setgloballocale@locale@std@@CAXPEAX@Z 0000000140048000 f   libcpmtd:locale0.obj
 0001:00047040       _Deletegloballocale        0000000140048040 f   libcpmtd:locale0.obj
 0001:00047110       _Getctype                  0000000140048110 f   libcpmtd:_tolower.obj
 0001:00047200       _Getcvt                    0000000140048200 f   libcpmtd:xwctomb.obj
 0001:00047310       _Wcrtomb                   0000000140048310 f   libcpmtd:xwctomb.obj
 0001:000474d0       _Mbrtowc                   00000001400484d0 f   libcpmtd:xmbtowc.obj
 0001:00047890       _Getwctype                 0000000140048890 f   libcpmtd:xgetwctype.obj
 0001:000478e0       _Getwctypes                00000001400488e0 f   libcpmtd:xgetwctype.obj
 0001:00047930       _Towlower                  0000000140048930 f   libcpmtd:xtowlower.obj
 0001:000479e0       _Towupper                  00000001400489e0 f   libcpmtd:xtowupper.obj
 0001:00047a90       ?_Addstd@ios_base@std@@SAXPEAV12@@Z 0000000140048a90 f   libcpmtd:ios.obj
 0001:00047b70       ?_Callfns@ios_base@std@@AEAAXW4event@12@@Z 0000000140048b70 f i libcpmtd:ios.obj
 0001:00047be0       ?_Ios_base_dtor@ios_base@std@@CAXPEAV12@@Z 0000000140048be0 f   libcpmtd:ios.obj
 0001:00047c80       ?_Tidy@ios_base@std@@AEAAXXZ 0000000140048c80 f i libcpmtd:ios.obj
 0001:00047e60       ?_Fiopen@std@@YAPEAU_iobuf@@PEB_WHH@Z 0000000140048e60 f   libcpmtd:fiopen.obj
 0001:00047ed0       ?setw@std@@YA?AU?$_Smanip@_J@1@_J@Z 0000000140048ed0 f   libcpmtd:iomanip.obj
 0001:00048e30       ??1?$__crt_simd_cleanup_guard@$00@@QEAA@XZ 0000000140049e30 f   libucrtd:strnlen.obj
 0001:00049010       __std_find_last_trivial_2  000000014004a010 f   libcpmtd:vector_algorithms.obj
 0001:00049040       __std_search_2             000000014004a040 f   libcpmtd:vector_algorithms.obj
 0001:00049080       _Mtxdst                    000000014004a080 f   libcpmtd:xmtx.obj
 0001:000490a0       _Mtxinit                   000000014004a0a0 f   libcpmtd:xmtx.obj
 0001:000490d0       _Mtxlock                   000000014004a0d0 f   libcpmtd:xmtx.obj
 0001:000490f0       _Mtxunlock                 000000014004a0f0 f   libcpmtd:xmtx.obj
 0001:00049110       ??1_Init_atexit@@QEAA@XZ   000000014004a110 f i libcpmtd:iosptrs.obj
 0001:00049180       ?_Atexit@@YAXP6AXXZ@Z      000000014004a180 f   libcpmtd:iosptrs.obj
 0001:000491e0       ??1?$__crt_scoped_stack_ptr@_W@@QEAA@XZ 000000014004a1e0 f i libcpmtd:StlLCMapStringA.obj
 0001:00049200       ??B?$__crt_scoped_stack_ptr@_W@@QEBA_NXZ 000000014004a200 f i libcpmtd:StlLCMapStringA.obj
 0001:00049200       ?is_valid@?$__crt_unique_heap_ptr@DU__crt_internal_free_policy@@@@QEBA_NXZ 000000014004a200 f i libvcruntimed:std_type_info.obj
 0001:00049200       ?is_valid@?$__crt_unique_heap_ptr@DU__crt_public_free_policy@@@@QEBA_NXZ 000000014004a200 f i libvcruntimed:std_exception.obj
 0001:00049200       ?is_valid@?$__crt_unique_heap_ptr@EU__crt_internal_free_policy@@@@QEBA_NXZ 000000014004a200 f i libcpmtd:xwcsxfrm.obj
 0001:00049200       ?is_valid@?$__crt_unique_heap_ptr@PEADU__crt_internal_free_policy@@@@QEBA_NXZ 000000014004a200 f i libucrtd:environment_initialization.obj
 0001:00049200       ?is_valid@?$__crt_unique_heap_ptr@PEA_WU__crt_internal_free_policy@@@@QEBA_NXZ 000000014004a200 f i libucrtd:environment_initialization.obj
 0001:00049200       ?is_valid@?$__crt_unique_heap_ptr@U__acrt_ptd@@U__crt_internal_free_policy@@@@QEBA_NXZ 000000014004a200 f i libucrtd:per_thread_data.obj
 0001:00049200       ?is_valid@?$__crt_unique_heap_ptr@U__crt_lc_time_data@@U__crt_internal_free_policy@@@@QEBA_NXZ 000000014004a200 f i libucrtd:inittime.obj
 0001:00049200       ?is_valid@?$__crt_unique_heap_ptr@U__crt_lowio_handle_data@@U__crt_internal_free_policy@@@@QEBA_NXZ 000000014004a200 f i libucrtd:osfinfo.obj
 0001:00049200       ?is_valid@?$__crt_unique_heap_ptr@U__crt_multibyte_data@@U__crt_internal_free_policy@@@@QEBA_NXZ 000000014004a200 f i libucrtd:wsetlocale.obj
 0001:00049200       ?is_valid@?$__crt_unique_heap_ptr@U__vcrt_ptd@@U__crt_internal_free_policy@@@@QEBA_NXZ 000000014004a200 f i libvcruntimed:per_thread_data.obj
 0001:00049200       ?is_valid@?$__crt_unique_heap_ptr@_WU__crt_internal_free_policy@@@@QEBA_NXZ 000000014004a200 f i libucrtd:system.obj
 0001:00049200       ?valid@__crt_stdio_stream@@QEBA_NXZ 000000014004a200 f i libucrtd:output.obj
 0001:00049230       _MallocaComputeSize        000000014004a230 f i libcpmtd:StlLCMapStringA.obj
 0001:00049270       _MarkAllocaS               000000014004a270 f i libcpmtd:StlLCMapStringA.obj
 0001:000492a0       _freea_crt                 000000014004a2a0 f i libcpmtd:StlLCMapStringA.obj
 0001:00049340       __crtLCMapStringW          000000014004a340 f   libcpmtd:StlLCMapStringW.obj
 0001:00049400       ??$?RD@__crt_internal_free_policy@@QEBAXQEBD@Z 000000014004a400 f i libvcruntimed:std_type_info.obj
 0001:00049400       ??$?RE@__crt_internal_free_policy@@QEBAXQEBE@Z 000000014004a400 f i libcpmtd:xwcsxfrm.obj
 0001:00049400       ??$?RU__vcrt_ptd@@@__crt_internal_free_policy@@QEBAXQEBU__vcrt_ptd@@@Z 000000014004a400 f i libvcruntimed:per_thread_data.obj
 0001:00049430       ??1?$__crt_unique_heap_ptr@DU__crt_internal_free_policy@@@@QEAA@XZ 000000014004a430 f i libvcruntimed:std_type_info.obj
 0001:00049430       ??1?$__crt_unique_heap_ptr@EU__crt_internal_free_policy@@@@QEAA@XZ 000000014004a430 f i libcpmtd:xwcsxfrm.obj
 0001:00049430       ??1?$__crt_unique_heap_ptr@U__vcrt_ptd@@U__crt_internal_free_policy@@@@QEAA@XZ 000000014004a430 f i libvcruntimed:per_thread_data.obj
 0001:00049450       ??B?$__crt_unique_heap_ptr@DU__crt_internal_free_policy@@@@QEBA_NXZ 000000014004a450 f i libvcruntimed:std_type_info.obj
 0001:00049450       ??B?$__crt_unique_heap_ptr@DU__crt_public_free_policy@@@@QEBA_NXZ 000000014004a450 f i libvcruntimed:std_exception.obj
 0001:00049450       ??B?$__crt_unique_heap_ptr@EU__crt_internal_free_policy@@@@QEBA_NXZ 000000014004a450 f i libcpmtd:xwcsxfrm.obj
 0001:00049450       ??B?$__crt_unique_heap_ptr@PEADU__crt_internal_free_policy@@@@QEBA_NXZ 000000014004a450 f i libucrtd:environment_initialization.obj
 0001:00049450       ??B?$__crt_unique_heap_ptr@PEA_WU__crt_internal_free_policy@@@@QEBA_NXZ 000000014004a450 f i libucrtd:environment_initialization.obj
 0001:00049450       ??B?$__crt_unique_heap_ptr@U__acrt_ptd@@U__crt_internal_free_policy@@@@QEBA_NXZ 000000014004a450 f i libucrtd:per_thread_data.obj
 0001:00049450       ??B?$__crt_unique_heap_ptr@U__crt_lc_time_data@@U__crt_internal_free_policy@@@@QEBA_NXZ 000000014004a450 f i libucrtd:inittime.obj
 0001:00049450       ??B?$__crt_unique_heap_ptr@U__crt_lowio_handle_data@@U__crt_internal_free_policy@@@@QEBA_NXZ 000000014004a450 f i libucrtd:osfinfo.obj
 0001:00049450       ??B?$__crt_unique_heap_ptr@U__crt_multibyte_data@@U__crt_internal_free_policy@@@@QEBA_NXZ 000000014004a450 f i libucrtd:wsetlocale.obj
 0001:00049450       ??B?$__crt_unique_heap_ptr@U__vcrt_ptd@@U__crt_internal_free_policy@@@@QEBA_NXZ 000000014004a450 f i libvcruntimed:per_thread_data.obj
 0001:00049450       ??B?$__crt_unique_heap_ptr@_WU__crt_internal_free_policy@@@@QEBA_NXZ 000000014004a450 f i libucrtd:system.obj
 0001:00049470       ?release@?$__crt_unique_heap_ptr@DU__crt_internal_free_policy@@@@QEAAXXZ 000000014004a470 f i libvcruntimed:std_type_info.obj
 0001:00049470       ?release@?$__crt_unique_heap_ptr@EU__crt_internal_free_policy@@@@QEAAXXZ 000000014004a470 f i libcpmtd:xwcsxfrm.obj
 0001:00049470       ?release@?$__crt_unique_heap_ptr@U__vcrt_ptd@@U__crt_internal_free_policy@@@@QEAAXXZ 000000014004a470 f i libvcruntimed:per_thread_data.obj
 0001:000494a0       ??2@YAPEAX_K@Z             000000014004a4a0 f   LIBCMTD:new_scalar.obj
 0001:00049500       ??3@YAXPEAX_K@Z            000000014004a500 f   LIBCMTD:delete_scalar_size.obj
 0001:00049520       ?configure_argv@__scrt_narrow_argv_policy@@SAHXZ 000000014004a520 f i LIBCMTD:utility.obj
 0001:00049610       ?initialize_environment@__scrt_narrow_environment_policy@@SAHXZ 000000014004a610 f i LIBCMTD:utility.obj
 0001:000496b0       NtCurrentTeb               000000014004a6b0 f i LIBCMTD:utility.obj
 0001:000496c0       __scrt_acquire_startup_lock 000000014004a6c0 f   LIBCMTD:utility.obj
 0001:00049730       __scrt_initialize_crt      000000014004a730 f   LIBCMTD:utility.obj
 0001:00049780       __scrt_initialize_onexit_tables 000000014004a780 f   LIBCMTD:utility.obj
 0001:00049890       __scrt_is_nonwritable_in_current_image 000000014004a890 f   LIBCMTD:utility.obj
 0001:00049920       __scrt_release_startup_lock 000000014004a920 f   LIBCMTD:utility.obj
 0001:00049950       __scrt_uninitialize_crt    000000014004a950 f   LIBCMTD:utility.obj
 0001:00049990       _onexit                    000000014004a990 f   LIBCMTD:utility.obj
 0001:00049a10       atexit                     000000014004aa10 f   LIBCMTD:utility.obj
 0001:00049a50       __GSHandlerCheck           000000014004aa50 f   LIBCMTD:gshandler.obj
 0001:00049a90       __GSHandlerCheckCommon     000000014004aa90 f   LIBCMTD:gshandler.obj
 0001:00049b90       __GSHandlerCheck_EH4       000000014004ab90 f   LIBCMTD:gshandlereh4.obj
 0001:00049c50       __chkstk                   000000014004ac50 f   LIBCMTD:chkstk.obj
 0001:00049c50       _alloca_probe              000000014004ac50 f   LIBCMTD:chkstk.obj
 0001:00049cb0       __security_check_cookie    000000014004acb0 f   LIBCMTD:amdsecgs.obj
 0001:00049cd0       ??1type_info@@UEAA@XZ      000000014004acd0 f   LIBCMTD:std_type_info_static.obj
 0001:00049cf0       ??_Etype_info@@UEAAPEAXI@Z 000000014004acf0 f i LIBCMTD:std_type_info_static.obj
 0001:00049cf0       ??_Gtype_info@@UEAAPEAXI@Z 000000014004acf0 f i LIBCMTD:std_type_info_static.obj
 0001:00049d30       _Init_thread_abort         000000014004ad30 f   LIBCMTD:thread_safe_statics.obj
 0001:00049d60       _Init_thread_footer        000000014004ad60 f   LIBCMTD:thread_safe_statics.obj
 0001:00049dc0       _Init_thread_header        000000014004adc0 f   LIBCMTD:thread_safe_statics.obj
 0001:00049e50       _Init_thread_lock          000000014004ae50 f   LIBCMTD:thread_safe_statics.obj
 0001:00049e70       _Init_thread_notify        000000014004ae70 f   LIBCMTD:thread_safe_statics.obj
 0001:00049e90       _Init_thread_unlock        000000014004ae90 f   LIBCMTD:thread_safe_statics.obj
 0001:00049eb0       _Init_thread_wait_v2       000000014004aeb0 f   LIBCMTD:thread_safe_statics.obj
 0001:0004a1e0       ?set_app_type@__scrt_winmain_policy@@SAXXZ 000000014004b1e0 f i LIBCMTD:exe_winmain.obj
 0001:0004a200       ?set_commode@__scrt_file_policy@@SAXXZ 000000014004b200 f i LIBCMTD:exe_winmain.obj
 0001:0004a220       ?set_fmode@__scrt_file_policy@@SAXXZ 000000014004b220 f i LIBCMTD:exe_winmain.obj
 0001:0004a240       WinMainCRTStartup          000000014004b240 f   LIBCMTD:exe_winmain.obj
 0001:0004a260       ReadPointerNoFence         000000014004b260 f i LIBCMTD:guard_support.obj
 0001:0004a280       _guard_icall_checks_enforced 000000014004b280 f i LIBCMTD:guard_support.obj
 0001:0004a2c0       __raise_securityfailure    000000014004b2c0 f   LIBCMTD:gs_report.obj
 0001:0004a300       __report_gsfailure         000000014004b300 f   LIBCMTD:gs_report.obj
 0001:0004a3e0       __report_rangecheckfailure 000000014004b3e0 f   LIBCMTD:gs_report.obj
 0001:0004a400       __report_securityfailure   000000014004b400 f   LIBCMTD:gs_report.obj
 0001:0004a600       __isa_available_init       000000014004b600 f   LIBCMTD:cpu_disp.obj
 0001:0004aaf0       ??3@YAXPEAX@Z              000000014004baf0 f   LIBCMTD:delete_scalar.obj
 0001:0004ab10       _get_startup_argv_mode     000000014004bb10 f   LIBCMTD:argv_mode.obj
 0001:0004ab20       __scrt_is_ucrt_dll_in_use  000000014004bb20 f   LIBCMTD:ucrt_detection.obj
 0001:0004ab50       __crt_debugger_hook        000000014004bb50 f   LIBCMTD:utility_desktop.obj
 0001:0004ab60       __scrt_fastfail            000000014004bb60 f   LIBCMTD:utility_desktop.obj
 0001:0004ad00       __scrt_get_show_window_mode 000000014004bd00 f   LIBCMTD:utility_desktop.obj
 0001:0004ad60       __scrt_initialize_mta      000000014004bd60 f   LIBCMTD:utility_desktop.obj
 0001:0004ad70       ?get_current_state_index@__crt_state_management@@YA_KXZ 000000014004bd70 f   libucrtd:invalid_parameter.obj
 0001:0004ad70       ?get_invalid_value@__crt_hmodule_traits@@SAPEAUHINSTANCE__@@XZ 000000014004bd70 f   libucrtd:exit.obj
 0001:0004ad70       __scrt_exe_initialize_mta  000000014004bd70 f   LIBCMTD:utility_desktop.obj
 0001:0004ad70       __scrt_initialize_winrt    000000014004bd70 f   LIBCMTD:utility_desktop.obj
 0001:0004ad70       __scrt_stub_for_initialize_mta 000000014004bd70 f   LIBCMTD:utility_desktop.obj
 0001:0004ad70       _get_startup_commit_mode   000000014004bd70 f   LIBCMTD:commit_mode.obj
 0001:0004ad70       _get_startup_new_mode      000000014004bd70 f   LIBCMTD:new_mode.obj
 0001:0004ad70       _get_startup_thread_locale_mode 000000014004bd70 f   LIBCMTD:thread_locale.obj
 0001:0004ad80       __scrt_is_managed_app      000000014004bd80 f   LIBCMTD:utility_desktop.obj
 0001:0004ae30       __scrt_set_unhandled_exception_filter 000000014004be30 f   LIBCMTD:utility_desktop.obj
 0001:0004ae50       __scrt_unhandled_exception_filter 000000014004be50 f   LIBCMTD:utility_desktop.obj
 0001:0004afb0       __security_init_cookie     000000014004bfb0 f   LIBCMTD:gs_support.obj
 0001:0004b030       _get_startup_file_mode     000000014004c030 f   LIBCMTD:file_mode.obj
 0001:0004b040       ?__scrt_initialize_type_info@@YAXXZ 000000014004c040 f   LIBCMTD:tncleanup.obj
 0001:0004b060       _should_initialize_environment 000000014004c060 f   LIBCMTD:env_mode.obj
 0001:0004b070       _initialize_denormal_control 000000014004c070 f   LIBCMTD:denormal_control.obj
 0001:0004b070       _initialize_invalid_parameter_handler 000000014004c070 f   LIBCMTD:invalid_parameter_handler.obj
 0001:0004b080       __local_stdio_scanf_options 000000014004c080 f i LIBCMTD:default_local_stdio_options.obj
 0001:0004b090       __scrt_initialize_default_local_stdio_options 000000014004c090 f   LIBCMTD:default_local_stdio_options.obj
 0001:0004b0e0       __scrt_is_user_matherr_present 000000014004c0e0 f   LIBCMTD:matherr_detection.obj
 0001:0004b110       __scrt_get_dyn_tls_init_callback 000000014004c110 f   LIBCMTD:dyn_tls_init.obj
 0001:0004b120       __scrt_get_dyn_tls_dtor_callback 000000014004c120 f   LIBCMTD:dyn_tls_dtor.obj
 0001:0004b130       _RTC_Initialize            000000014004c130 f   LIBCMTD:initsect.obj
 0001:0004b180       _RTC_Terminate             000000014004c180 f   LIBCMTD:initsect.obj
 0001:0004b1d0       CreateToolhelp32Snapshot   000000014004c1d0 f   kernel32:KERNEL32.dll
 0001:0004b1d6       Process32FirstW            000000014004c1d6 f   kernel32:KERNEL32.dll
 0001:0004b1dc       Process32NextW             000000014004c1dc f   kernel32:KERNEL32.dll
 0001:0004b1f0       ??$?RD@__crt_public_free_policy@@QEBAXQEBD@Z 000000014004c1f0 f i libvcruntimed:std_exception.obj
 0001:0004b210       ??1?$__crt_unique_heap_ptr@DU__crt_public_free_policy@@@@QEAA@XZ 000000014004c210 f i libvcruntimed:std_exception.obj
 0001:0004b230       ?detach@?$__crt_unique_heap_ptr@DU__crt_internal_free_policy@@@@QEAAPEADXZ 000000014004c230 f i libucrtd:setvbuf.obj
 0001:0004b230       ?detach@?$__crt_unique_heap_ptr@DU__crt_public_free_policy@@@@QEAAPEADXZ 000000014004c230 f i libvcruntimed:std_exception.obj
 0001:0004b230       ?detach@?$__crt_unique_heap_ptr@EU__crt_internal_free_policy@@@@QEAAPEAEXZ 000000014004c230 f i libucrtd:initctype.obj
 0001:0004b230       ?detach@?$__crt_unique_heap_ptr@GU__crt_internal_free_policy@@@@QEAAPEAGXZ 000000014004c230 f i libucrtd:initctype.obj
 0001:0004b230       ?detach@?$__crt_unique_heap_ptr@JU__crt_internal_free_policy@@@@QEAAPEAJXZ 000000014004c230 f i libucrtd:initctype.obj
 0001:0004b230       ?detach@?$__crt_unique_heap_ptr@P6AXXZU__crt_internal_free_policy@@@@QEAAPEAP6AXXZXZ 000000014004c230 f i libucrtd:onexit.obj
 0001:0004b230       ?detach@?$__crt_unique_heap_ptr@PEADU__crt_internal_free_policy@@@@QEAAPEAPEADXZ 000000014004c230 f i libucrtd:argv_parsing.obj
 0001:0004b230       ?detach@?$__crt_unique_heap_ptr@PEAU__crt_stdio_stream_data@@U__crt_internal_free_policy@@@@QEAAPEAPEAU__crt_stdio_stream_data@@XZ 000000014004c230 f i libucrtd:_file.obj
 0001:0004b230       ?detach@?$__crt_unique_heap_ptr@PEA_WU__crt_internal_free_policy@@@@QEAAPEAPEA_WXZ 000000014004c230 f i libucrtd:argv_parsing.obj
 0001:0004b230       ?detach@?$__crt_unique_heap_ptr@U__acrt_ptd@@U__crt_internal_free_policy@@@@QEAAPEAU__acrt_ptd@@XZ 000000014004c230 f i libucrtd:per_thread_data.obj
 0001:0004b230       ?detach@?$__crt_unique_heap_ptr@U__crt_lc_time_data@@U__crt_internal_free_policy@@@@QEAAPEAU__crt_lc_time_data@@XZ 000000014004c230 f i libucrtd:inittime.obj
 0001:0004b230       ?detach@?$__crt_unique_heap_ptr@U__crt_locale_data@@U__crt_internal_free_policy@@@@QEAAPEAU__crt_locale_data@@XZ 000000014004c230 f i libucrtd:wsetlocale.obj
 0001:0004b230       ?detach@?$__crt_unique_heap_ptr@U__crt_lowio_handle_data@@U__crt_internal_free_policy@@@@QEAAPEAU__crt_lowio_handle_data@@XZ 000000014004c230 f i libucrtd:osfinfo.obj
 0001:0004b230       ?detach@?$__crt_unique_heap_ptr@U__crt_multibyte_data@@U__crt_internal_free_policy@@@@QEAAPEAU__crt_multibyte_data@@XZ 000000014004c230 f i libucrtd:wsetlocale.obj
 0001:0004b230       ?detach@?$__crt_unique_heap_ptr@U__crt_stdio_stream_data@@U__crt_internal_free_policy@@@@QEAAPEAU__crt_stdio_stream_data@@XZ 000000014004c230 f i libucrtd:stream.obj
 0001:0004b230       ?detach@?$__crt_unique_heap_ptr@U__vcrt_ptd@@U__crt_internal_free_policy@@@@QEAAPEAU__vcrt_ptd@@XZ 000000014004c230 f i libvcruntimed:per_thread_data.obj
 0001:0004b230       ?detach@?$__crt_unique_heap_ptr@Ulconv@@U__crt_internal_free_policy@@@@QEAAPEAUlconv@@XZ 000000014004c230 f i libucrtd:initmon.obj
 0001:0004b230       ?detach@?$__crt_unique_heap_ptr@_WU__crt_internal_free_policy@@@@QEAAPEA_WXZ 000000014004c230 f i libucrtd:wcsftime.obj
 0001:0004b260       ?release@?$__crt_unique_heap_ptr@DU__crt_public_free_policy@@@@QEAAXXZ 000000014004c260 f i libvcruntimed:std_exception.obj
 0001:0004b290       __std_exception_copy       000000014004c290 f   libvcruntimed:std_exception.obj
 0001:0004b3d0       __std_exception_destroy    000000014004c3d0 f   libvcruntimed:std_exception.obj
 0001:0004b410       _CxxThrowException         000000014004c410 f   libvcruntimed:throw.obj
 0001:0004b550       __C_specific_handler       000000014004c550 f   libvcruntimed:riscchandler.obj
 0001:0004b9c0       ??$?0AEAViterator@TryBlockMap4@FH4@@AEAV012@$0A@@?$pair@Viterator@TryBlockMap4@FH4@@V123@@std@@QEAA@AEAViterator@TryBlockMap4@FH4@@0@Z 000000014004c9c0 f i libvcruntimed:risctrnsctrl.obj
 0001:0004b9c0       ??$?0AEAViterator@TryBlockMap@__FrameHandler3@@AEAV012@$0A@@?$pair@Viterator@TryBlockMap@__FrameHandler3@@V123@@std@@QEAA@AEAViterator@TryBlockMap@__FrameHandler3@@0@Z 000000014004c9c0 f i libvcruntimed:risctrnsctrl.obj
 0001:0004bbb0       ??$_CallSETranslator@V__FrameHandler3@@@@YAHPEAUEHExceptionRecord@@PEA_KPEAU_CONTEXT@@PEAU_xDISPATCHER_CONTEXT@@PEBU_s_FuncInfo@@K1H@Z 000000014004cbb0 f i libvcruntimed:risctrnsctrl.obj
 0001:0004bc40       ??$_CallSETranslator@V__FrameHandler4@@@@YAHPEAUEHExceptionRecord@@PEA_KPEAU_CONTEXT@@PEAU_xDISPATCHER_CONTEXT@@PEAUFuncInfo4@FH4@@K1H@Z 000000014004cc40 f i libvcruntimed:risctrnsctrl.obj
 0001:0004bcd0       ??0FuncInfo4@FH4@@QEAA@XZ  000000014004ccd0 f i libvcruntimed:risctrnsctrl.obj
 0001:0004bd40       ??0FuncInfoHeader@FH4@@QEAA@XZ 000000014004cd40 f i libvcruntimed:risctrnsctrl.obj
 0001:0004bd60       ??0iterator@HandlerMap4@FH4@@QEAA@AEAV12@I@Z 000000014004cd60 f i libvcruntimed:frame.obj
 0001:0004bd60       ??0iterator@HandlerMap@__FrameHandler3@@QEAA@AEAV12@I@Z 000000014004cd60 f i libvcruntimed:frame.obj
 0001:0004bd60       ??0iterator@TryBlockMap4@FH4@@QEAA@AEAV12@I@Z 000000014004cd60 f i libvcruntimed:risctrnsctrl.obj
 0001:0004bd60       ??0iterator@TryBlockMap@__FrameHandler3@@QEAA@AEAV12@I@Z 000000014004cd60 f i libvcruntimed:risctrnsctrl.obj
 0001:0004bd90       ??4iterator@TryBlockMap4@FH4@@QEAAAEAV012@AEBV012@@Z 000000014004cd90 f i libvcruntimed:risctrnsctrl.obj
 0001:0004bdb0       ??9iterator@TryBlockMap4@FH4@@QEBA_NAEBV012@@Z 000000014004cdb0 f i libvcruntimed:risctrnsctrl.obj
 0001:0004bdf0       ??Diterator@TryBlockMap4@FH4@@QEAA?AUTryBlockMapEntry4@2@XZ 000000014004cdf0 f i libvcruntimed:risctrnsctrl.obj
 0001:0004be20       ??Eiterator@TryBlockMap4@FH4@@QEAAAEAV012@XZ 000000014004ce20 f i libvcruntimed:risctrnsctrl.obj
 0001:0004be60       ?CatchTryBlock@__FrameHandler3@@SAPEBU_s_TryBlockMapEntry@@PEBU_s_FuncInfo@@H@Z 000000014004ce60 f   libvcruntimed:risctrnsctrl.obj
 0001:0004bef0       ?DecompFuncInfo@FH4@@YA_JPEAEAEAUFuncInfo4@1@_KH@Z 000000014004cef0 f i libvcruntimed:risctrnsctrl.obj
 0001:0004bf30       ?DecompFuncInfo@FH4@@YA_JPEAEAEAUFuncInfo4@1@_KH_N@Z 000000014004cf30 f i libvcruntimed:risctrnsctrl.obj
 0001:0004c110       ?DecompTryBlock@TryBlockMap4@FH4@@AEAAXXZ 000000014004d110 f i libvcruntimed:risctrnsctrl.obj
 0001:0004c190       ?ExecutionInCatch@__FrameHandler3@@SA_NPEAU_xDISPATCHER_CONTEXT@@PEBU_s_FuncInfo@@@Z 000000014004d190 f   libvcruntimed:risctrnsctrl.obj
 0001:0004c1e0       ?ExecutionInCatch@__FrameHandler4@@SA_NPEAU_xDISPATCHER_CONTEXT@@PEAUFuncInfo4@FH4@@@Z 000000014004d1e0 f   libvcruntimed:risctrnsctrl.obj
 0001:0004c200       ?FrameUnwindToEmptyState@__FrameHandler3@@SAXPEA_KPEAU_xDISPATCHER_CONTEXT@@PEBU_s_FuncInfo@@@Z 000000014004d200 f   libvcruntimed:risctrnsctrl.obj
 0001:0004c2a0       ?FrameUnwindToEmptyState@__FrameHandler4@@SAXPEA_KPEAU_xDISPATCHER_CONTEXT@@PEAUFuncInfo4@FH4@@@Z 000000014004d2a0 f   libvcruntimed:risctrnsctrl.obj
 0001:0004c300       ?GetEstablisherFrame@__FrameHandler3@@SAPEA_KPEA_KPEAU_xDISPATCHER_CONTEXT@@PEBU_s_FuncInfo@@0@Z 000000014004d300 f   libvcruntimed:risctrnsctrl.obj
 0001:0004c470       ?GetEstablisherFrame@__FrameHandler4@@SAPEA_KPEA_KPEAU_xDISPATCHER_CONTEXT@@PEAUFuncInfo4@FH4@@0@Z 000000014004d470 f   libvcruntimed:risctrnsctrl.obj
 0001:0004c4e0       ?GetRangeOfTrysToCheck@__FrameHandler3@@SA?AU?$pair@Viterator@TryBlockMap@__FrameHandler3@@V123@@std@@AEAVTryBlockMap@1@HPEAU_xDISPATCHER_CONTEXT@@PEBU_s_FuncInfo@@H@Z 000000014004d4e0 f   libvcruntimed:risctrnsctrl.obj
 0001:0004c720       ?GetRangeOfTrysToCheck@__FrameHandler4@@SA?AU?$pair@Viterator@TryBlockMap4@FH4@@V123@@std@@AEAVTryBlockMap4@FH4@@HPEAU_xDISPATCHER_CONTEXT@@PEAUFuncInfo4@5@H@Z 000000014004d720 f   libvcruntimed:risctrnsctrl.obj
 0001:0004c8e0       ?ReadInt@FH4@@YAHPEAPEAE@Z 000000014004d8e0 f i libvcruntimed:risctrnsctrl.obj
 0001:0004c920       ?ReadUnsigned@FH4@@YAIPEAPEAE@Z 000000014004d920 f i libvcruntimed:risctrnsctrl.obj
 0001:0004c9b0       ?UnwindNestedFrames@__FrameHandler3@@SAXPEA_KPEAUEHExceptionRecord@@PEAU_CONTEXT@@0PEAXPEBU_s_FuncInfo@@HHPEBU_s_HandlerType@@PEAU_xDISPATCHER_CONTEXT@@E@Z 000000014004d9b0 f   libvcruntimed:risctrnsctrl.obj
 0001:0004cb20       ?UnwindNestedFrames@__FrameHandler4@@SAXPEA_KPEAUEHExceptionRecord@@PEAU_CONTEXT@@0PEAXPEAUFuncInfo4@FH4@@HHPEAUHandlerType4@5@PEAU_xDISPATCHER_CONTEXT@@E@Z 000000014004db20 f   libvcruntimed:risctrnsctrl.obj
 0001:0004ccf0       ?begin@HandlerMap4@FH4@@QEAA?AViterator@12@XZ 000000014004dcf0 f i libvcruntimed:frame.obj
 0001:0004ccf0       ?begin@HandlerMap@__FrameHandler3@@QEAA?AViterator@12@XZ 000000014004dcf0 f i libvcruntimed:frame.obj
 0001:0004ccf0       ?begin@TryBlockMap4@FH4@@QEAA?AViterator@12@XZ 000000014004dcf0 f i libvcruntimed:risctrnsctrl.obj
 0001:0004cd20       ?end@HandlerMap4@FH4@@QEAA?AViterator@12@XZ 000000014004dd20 f i libvcruntimed:frame.obj
 0001:0004cd20       ?end@HandlerMap@__FrameHandler3@@QEAA?AViterator@12@XZ 000000014004dd20 f i libvcruntimed:frame.obj
 0001:0004cd20       ?end@TryBlockMap4@FH4@@QEAA?AViterator@12@XZ 000000014004dd20 f i libvcruntimed:risctrnsctrl.obj
 0001:0004cd50       ?imageRelToByteBuffer@FH4@@YAPEAE_KH@Z 000000014004dd50 f i libvcruntimed:risctrnsctrl.obj
 0001:0004cd70       ?incrementToSentinel@iterator@TryBlockMap4@FH4@@QEAAXXZ 000000014004dd70 f i libvcruntimed:risctrnsctrl.obj
 0001:0004cd90       ?setBuffer@TryBlockMap4@FH4@@QEAAXViterator@12@@Z 000000014004dd90 f i libvcruntimed:risctrnsctrl.obj
 0001:0004ce00       _CreateFrameInfo           000000014004de00 f   libvcruntimed:risctrnsctrl.obj
 0001:0004ce70       _FindAndUnlinkFrame        000000014004de70 f   libvcruntimed:risctrnsctrl.obj
 0001:0004cef0       _GetImageBase              000000014004def0 f   libvcruntimed:risctrnsctrl.obj
 0001:0004cf10       _GetThrowImageBase         000000014004df10 f   libvcruntimed:risctrnsctrl.obj
 0001:0004cf30       _SetImageBase              000000014004df30 f   libvcruntimed:risctrnsctrl.obj
 0001:0004cf50       _SetThrowImageBase         000000014004df50 f   libvcruntimed:risctrnsctrl.obj
 0001:0004cf70       __CxxFrameHandler3         000000014004df70 f   libvcruntimed:risctrnsctrl.obj
 0001:0004d050       __CxxFrameHandler4         000000014004e050 f   libvcruntimed:risctrnsctrl.obj
 0001:0004d160       ??$__crt_interlocked_read_pointer@$$A6AXXZ@@YAP6AXXZPEDS6AXXZ@Z 000000014004e160 f i libvcruntimed:purevirt.obj
 0001:0004d160       ??$__crt_interlocked_read_pointer@UHINSTANCE__@@@@YAPEAUHINSTANCE__@@PEDSEAU0@@Z 000000014004e160 f i libvcruntimed:winapi_downlevel.obj
 0001:0004d160       ??$__crt_interlocked_read_pointer@X@@YAPEAXPEDSEAX@Z 000000014004e160 f i libvcruntimed:winapi_downlevel.obj
 0001:0004d180       ?__crt_interlocked_read_64@@YA_JPED_J@Z 000000014004e180 f i libvcruntimed:purevirt.obj
 0001:0004d1a0       _get_purecall_handler      000000014004e1a0 f   libvcruntimed:purevirt.obj
 0001:0004d1c0       _purecall                  000000014004e1c0 f   libvcruntimed:purevirt.obj
 0001:0004d200       wcsrchr                    000000014004e200 f   libvcruntimed:wcsrchr.obj
 0001:0004d410       wcsstr                     000000014004e410 f   libvcruntimed:wcsstr.obj
 0001:0004da60       __uncaught_exception       000000014004ea60 f   libvcruntimed:uncaught_exception.obj
 0001:0004dab0       __vcrt_initialize          000000014004eab0 f   libvcruntimed:initialization.obj
 0001:0004daf0       __vcrt_uninitialize        000000014004eaf0 f   libvcruntimed:initialization.obj
 0001:0004db10       __DestructExceptionObject  000000014004eb10 f   libvcruntimed:ehhelpers.obj
 0001:0004dc10       ?_CallMemberFunction0@@YAXQEAX0@Z 000000014004ec10 f i libvcruntimed:ehhelpers.obj
 0001:0004dcf0       _IsExceptionObjectToBeDestroyed 000000014004ecf0 f   libvcruntimed:ehhelpers.obj
 0001:0004dd40       __AdjustPointer            000000014004ed40 f   libvcruntimed:ehhelpers.obj
 0001:0004ddc0       __FrameUnwindFilter        000000014004edc0 f   libvcruntimed:ehhelpers.obj
 0001:0004de70       __current_exception        000000014004ee70 f   libvcruntimed:ehhelpers.obj
 0001:0004de90       __current_exception_context 000000014004ee90 f   libvcruntimed:ehhelpers.obj
 0001:0004deb0       __std_type_info_compare    000000014004eeb0 f   libvcruntimed:std_type_info.obj
 0001:0004df20       _NLG_Notify                000000014004ef20 f   libvcruntimed:notify.obj
 0001:0004df40       __NLG_Dispatch2            000000014004ef40 f   libvcruntimed:notify.obj
 0001:0004df50       __NLG_Return2              000000014004ef50 f   libvcruntimed:notify.obj
 0001:0004df60       __except_validate_context_record 000000014004ef60 f   libvcruntimed:jbcxrval.obj
 0001:0004e040       __vcrt_freefls             000000014004f040 f   libvcruntimed:per_thread_data.obj
 0001:0004e080       __vcrt_getptd              000000014004f080 f   libvcruntimed:per_thread_data.obj
 0001:0004e0b0       __vcrt_getptd_noexit       000000014004f0b0 f   libvcruntimed:per_thread_data.obj
 0001:0004e250       __vcrt_getptd_noinit       000000014004f250 f   libvcruntimed:per_thread_data.obj
 0001:0004e2b0       __vcrt_initialize_ptd      000000014004f2b0 f   libvcruntimed:per_thread_data.obj
 0001:0004e300       __vcrt_uninitialize_ptd    000000014004f300 f   libvcruntimed:per_thread_data.obj
 0001:0004e330       ?GetCurrentState@__FrameHandler3@@SAHPEA_KPEAU_xDISPATCHER_CONTEXT@@PEBU_s_FuncInfo@@@Z 000000014004f330 f   libvcruntimed:ehstate.obj
 0001:0004e390       ?GetUnwindTryBlock@__FrameHandler3@@SAHPEA_KPEAU_xDISPATCHER_CONTEXT@@PEBU_s_FuncInfo@@@Z 000000014004f390 f   libvcruntimed:ehstate.obj
 0001:0004e3e0       ?SetState@__FrameHandler3@@SAXPEA_KPEBU_s_FuncInfo@@H@Z 000000014004f3e0 f   libvcruntimed:ehstate.obj
 0001:0004e410       ?SetUnwindTryBlock@__FrameHandler3@@SAXPEA_KPEAU_xDISPATCHER_CONTEXT@@PEBU_s_FuncInfo@@H@Z 000000014004f410 f   libvcruntimed:ehstate.obj
 0001:0004e480       ?StateFromControlPc@__FrameHandler3@@SAHPEBU_s_FuncInfo@@PEAU_xDISPATCHER_CONTEXT@@@Z 000000014004f480 f   libvcruntimed:ehstate.obj
 0001:0004e4c0       ?StateFromControlPc@__FrameHandler4@@SAHPEAUFuncInfo4@FH4@@PEAU_xDISPATCHER_CONTEXT@@@Z 000000014004f4c0 f   libvcruntimed:ehstate.obj
 0001:0004e500       ?StateFromIp@__FrameHandler3@@SAHPEBU_s_FuncInfo@@PEAU_xDISPATCHER_CONTEXT@@_K@Z 000000014004f500 f   libvcruntimed:ehstate.obj
 0001:0004e600       ?StateFromIp@__FrameHandler4@@SAHPEAUFuncInfo4@FH4@@PEAU_xDISPATCHER_CONTEXT@@_K@Z 000000014004f600 f   libvcruntimed:ehstate.obj
 0001:0004e6f0       ?__FuncRelToRealOffset@@YA_KPEAU_xDISPATCHER_CONTEXT@@I@Z 000000014004f6f0 f i libvcruntimed:ehstate.obj
 0001:0004e720       ?__RVAtoRealOffset@@YA_KPEAU_xDISPATCHER_CONTEXT@@H@Z 000000014004f720 f i libvcruntimed:ehstate.obj
 0001:000509b0       ??$TypeMatchHelper@V__FrameHandler3@@@@YAHPEBU_s_HandlerType@@PEBU_s_CatchableType@@PEBU_s_ThrowInfo@@@Z 00000001400519b0 f i libvcruntimed:frame.obj
 0001:00050bb0       ??$TypeMatchHelper@V__FrameHandler4@@@@YAHPEAUHandlerType4@FH4@@PEBU_s_CatchableType@@PEBU_s_ThrowInfo@@@Z 0000000140051bb0 f i libvcruntimed:frame.obj
 0001:00050dc0       ??$__InternalCxxFrameHandler@V__FrameHandler3@@@@YA?AW4_EXCEPTION_DISPOSITION@@PEAUEHExceptionRecord@@PEA_KPEAU_CONTEXT@@PEAU_xDISPATCHER_CONTEXT@@PEBU_s_FuncInfo@@H1E@Z 0000000140051dc0 f i libvcruntimed:frame.obj
 0001:00051240       ??$__InternalCxxFrameHandler@V__FrameHandler4@@@@YA?AW4_EXCEPTION_DISPOSITION@@PEAUEHExceptionRecord@@PEA_KPEAU_CONTEXT@@PEAU_xDISPATCHER_CONTEXT@@PEAUFuncInfo4@FH4@@H1E@Z 0000000140052240 f i libvcruntimed:frame.obj
 0001:000516e0       ??$__InternalCxxFrameHandlerWrapper@V__FrameHandler3@@@@YA?AW4_EXCEPTION_DISPOSITION@@PEAUEHExceptionRecord@@PEA_KPEAU_CONTEXT@@PEAU_xDISPATCHER_CONTEXT@@PEBU_s_FuncInfo@@H1E@Z 00000001400526e0 f i libvcruntimed:frame.obj
 0001:00051750       ??$__InternalCxxFrameHandlerWrapper@V__FrameHandler4@@@@YA?AW4_EXCEPTION_DISPOSITION@@PEAUEHExceptionRecord@@PEA_KPEAU_CONTEXT@@PEAU_xDISPATCHER_CONTEXT@@PEAUFuncInfo4@FH4@@H1E@Z 0000000140052750 f i libvcruntimed:frame.obj
 0001:000517e0       ??0HandlerMap4@FH4@@QEAA@PEBUTryBlockMapEntry4@1@_KH@Z 00000001400527e0 f i libvcruntimed:frame.obj
 0001:000518c0       ??0HandlerMap@__FrameHandler3@@QEAA@PEBU_s_TryBlockMapEntry@@_KI@Z 00000001400528c0 f i libvcruntimed:frame.obj
 0001:00051910       ??0HandlerType4@FH4@@QEAA@XZ 0000000140052910 f i libvcruntimed:frame.obj
 0001:00051930       ??0TryBlockMap4@FH4@@QEAA@PEBUFuncInfo4@1@_K@Z 0000000140052930 f i libvcruntimed:frame.obj
 0001:000519f0       ??0UWMap4@FH4@@QEAA@PEBUFuncInfo4@1@_K@Z 00000001400529f0 f i libvcruntimed:frame.obj
 0001:00051a80       ??0bad_exception@std@@QEAA@AEBV01@@Z 0000000140052a80 f i libvcruntimed:frame.obj
 0001:00051ac0       ??0bad_exception@std@@QEAA@XZ 0000000140052ac0 f i libvcruntimed:frame.obj
 0001:00051b00       ??4iterator@UWMap4@FH4@@QEAAAEAV012@AEBV012@@Z 0000000140052b00 f i libvcruntimed:frame.obj
 0001:00051b50       ??8iterator@HandlerMap4@FH4@@QEBA_NAEBV012@@Z 0000000140052b50 f i libvcruntimed:frame.obj
 0001:00051b50       ??8iterator@HandlerMap@__FrameHandler3@@QEBA_NAEBV012@@Z 0000000140052b50 f i libvcruntimed:frame.obj
 0001:00051b90       ??8type_info@@QEBA_NAEBV0@@Z 0000000140052b90 f i libvcruntimed:frame.obj
 0001:00051c10       ??9iterator@HandlerMap4@FH4@@QEBA_NAEBV012@@Z 0000000140052c10 f i libvcruntimed:frame.obj
 0001:00051c10       ??9iterator@HandlerMap@__FrameHandler3@@QEBA_NAEBV012@@Z 0000000140052c10 f i libvcruntimed:frame.obj
 0001:00051c50       ??Diterator@HandlerMap4@FH4@@QEAA?AUHandlerType4@2@XZ 0000000140052c50 f i libvcruntimed:frame.obj
 0001:00051c80       ??Diterator@HandlerMap@__FrameHandler3@@QEAA?BU_s_HandlerType@@XZ 0000000140052c80 f i libvcruntimed:frame.obj
 0001:00051cc0       ??Diterator@TryBlockMap@__FrameHandler3@@QEAA?BU_s_TryBlockMapEntry@@XZ 0000000140052cc0 f i libvcruntimed:frame.obj
 0001:00051d10       ??Diterator@UWMap4@FH4@@QEAA?AUUnwindMapEntry4@2@XZ 0000000140052d10 f i libvcruntimed:frame.obj
 0001:00051d90       ??Eiterator@HandlerMap4@FH4@@QEAAAEAV012@XZ 0000000140052d90 f i libvcruntimed:frame.obj
 0001:00051dd0       ??Eiterator@HandlerMap@__FrameHandler3@@QEAAAEAV012@XZ 0000000140052dd0 f i libvcruntimed:frame.obj
 0001:00051dd0       ??Eiterator@TryBlockMap@__FrameHandler3@@QEAAAEAV012@XZ 0000000140052dd0 f i libvcruntimed:frame.obj
 0001:00051df0       ??Eiterator@UWMap4@FH4@@QEAAAEAV012@XZ 0000000140052df0 f i libvcruntimed:frame.obj
 0001:00051e30       ??Giterator@UWMap4@FH4@@QEBA_JAEBV012@@Z 0000000140052e30 f i libvcruntimed:frame.obj
 0001:00051e50       ??Miterator@TryBlockMap4@FH4@@QEBA_NAEBV012@@Z 0000000140052e50 f i libvcruntimed:frame.obj
 0001:00051e50       ??Miterator@TryBlockMap@__FrameHandler3@@QEBA_NAEBV012@@Z 0000000140052e50 f i libvcruntimed:frame.obj
 0001:00051e90       ??Oiterator@UWMap4@FH4@@QEBA_NAEBV012@@Z 0000000140052e90 f i libvcruntimed:frame.obj
 0001:00051ed0       ??Piterator@UWMap4@FH4@@QEBA_NAEBV012@@Z 0000000140052ed0 f i libvcruntimed:frame.obj
 0001:00051f10       ?BuildCatchObject@__FrameHandler3@@SAXPEAUEHExceptionRecord@@PEAXPEBU_s_HandlerType@@PEBU_s_CatchableType@@@Z 0000000140052f10 f   libvcruntimed:frame.obj
 0001:00051f50       ?BuildCatchObject@__FrameHandler4@@SAXPEAUEHExceptionRecord@@PEAXPEAUHandlerType4@FH4@@PEBU_s_CatchableType@@@Z 0000000140052f50 f   libvcruntimed:frame.obj
 0001:00051f90       ?CxxCallCatchBlock@__FrameHandler3@@SAPEAXPEAU_EXCEPTION_RECORD@@@Z 0000000140052f90 f   libvcruntimed:frame.obj
 0001:000521f0       ?CxxCallCatchBlock@__FrameHandler4@@SAPEAXPEAU_EXCEPTION_RECORD@@@Z 00000001400531f0 f   libvcruntimed:frame.obj
 0001:00052520       ?DecompHandler@HandlerMap4@FH4@@AEAAXXZ 0000000140053520 f i libvcruntimed:frame.obj
 0001:000528f0       ?FrameUnwindToState@__FrameHandler3@@SAXPEA_KPEAU_xDISPATCHER_CONTEXT@@PEBU_s_FuncInfo@@H@Z 00000001400538f0 f   libvcruntimed:frame.obj
 0001:00052b40       ?FrameUnwindToState@__FrameHandler4@@SAXPEA_KPEAU_xDISPATCHER_CONTEXT@@PEAUFuncInfo4@FH4@@H@Z 0000000140053b40 f   libvcruntimed:frame.obj
 0001:00052e60       ?GetHandlerSearchState@__FrameHandler3@@SAHPEA_KPEAU_xDISPATCHER_CONTEXT@@PEBU_s_FuncInfo@@@Z 0000000140053e60 f i libvcruntimed:frame.obj
 0001:00052f10       ?GetHandlerSearchState@__FrameHandler4@@SAHPEA_KPEAU_xDISPATCHER_CONTEXT@@PEAUFuncInfo4@FH4@@@Z 0000000140053f10 f i libvcruntimed:frame.obj
 0001:00052fa0       ?GetMaxState@__FrameHandler3@@SAHPEAU_xDISPATCHER_CONTEXT@@PEBU_s_FuncInfo@@@Z 0000000140053fa0 f i libvcruntimed:frame.obj
 0001:00052fc0       ?GetMaxState@__FrameHandler4@@SAHPEAU_xDISPATCHER_CONTEXT@@PEAUFuncInfo4@FH4@@@Z 0000000140053fc0 f i libvcruntimed:frame.obj
 0001:000531f0       ?ReadEntry@UWMap4@FH4@@AEAAXPEAPEAE@Z 00000001400541f0 f i libvcruntimed:frame.obj
 0001:000532a0       ?TypeMatch@__FrameHandler3@@SAHPEBU_s_HandlerType@@PEBU_s_CatchableType@@PEBU_s_ThrowInfo@@@Z 00000001400542a0 f   libvcruntimed:frame.obj
 0001:000532a0       __TypeMatch                00000001400542a0 f   libvcruntimed:frame.obj
 0001:000532d0       ?TypeMatch@__FrameHandler4@@SAHPEAUHandlerType4@FH4@@PEBU_s_CatchableType@@PEBU_s_ThrowInfo@@@Z 00000001400542d0 f   libvcruntimed:frame.obj
 0001:00053300       ?WalkBack@UWMap4@FH4@@AEAAXPEAPEAE@Z 0000000140054300 f i libvcruntimed:frame.obj
 0001:00053350       ?WalkBack@iterator@UWMap4@FH4@@QEAAXXZ 0000000140054350 f i libvcruntimed:frame.obj
 0001:00053390       ?WalkForward@UWMap4@FH4@@AEAAXPEAPEAE@Z 0000000140054390 f i libvcruntimed:frame.obj
 0001:000533c0       ?_CallMemberFunction1@@YAXQEAX00@Z 00000001400543c0 f i libvcruntimed:frame.obj
 0001:00053400       ?_CallMemberFunction2@@YAXQEAX00H@Z 0000000140054400 f i libvcruntimed:frame.obj
 0001:00053490       ?begin@UWMap4@FH4@@QEAA?AViterator@12@XZ 0000000140054490 f i libvcruntimed:frame.obj
 0001:000534c0       ?getESTypes@__FrameHandler3@@SAPEBU_s_ESTypeList@@PEBU_s_FuncInfo@@@Z 00000001400544c0 f i libvcruntimed:frame.obj
 0001:00053500       ?getLastEntry@HandlerMap4@FH4@@QEAAPEAUHandlerType4@2@XZ 0000000140054500 f i libvcruntimed:frame.obj
 0001:00053540       ?getLastEntry@HandlerMap@__FrameHandler3@@QEAAPEBU_s_HandlerType@@XZ 0000000140054540 f i libvcruntimed:frame.obj
 0001:00053560       ?getMagicNum@__FrameHandler3@@SAIPEBU_s_FuncInfo@@@Z 0000000140054560 f i libvcruntimed:frame.obj
 0001:00053580       ?getMagicNum@__FrameHandler4@@SAIPEAUFuncInfo4@FH4@@@Z 0000000140054580 f i libvcruntimed:frame.obj
 0001:00053590       ?getNumTryBlocks@TryBlockMap@__FrameHandler3@@QEAAIXZ 0000000140054590 f i libvcruntimed:frame.obj
 0001:000535b0       ?getStartStop@UWMap4@FH4@@QEAAXHHAEAViterator@12@0@Z 00000001400545b0 f i libvcruntimed:frame.obj
 0001:000536d0       ?getStateFromIterators@UWMap4@FH4@@SAHAEBViterator@12@H0H0@Z 00000001400546d0 f i libvcruntimed:frame.obj
 0001:00053810       ?isEHs@__FrameHandler3@@SA_NPEBU_s_FuncInfo@@@Z 0000000140054810 f i libvcruntimed:frame.obj
 0001:00053850       ?isEHs@__FrameHandler4@@SA_NPEAUFuncInfo4@FH4@@@Z 0000000140054850 f i libvcruntimed:frame.obj
 0001:00053870       ?isNoExcept@__FrameHandler3@@SA_NPEBU_s_FuncInfo@@@Z 0000000140054870 f i libvcruntimed:frame.obj
 0001:000538b0       ?isNoExcept@__FrameHandler4@@SA_NPEAUFuncInfo4@FH4@@@Z 00000001400548b0 f i libvcruntimed:frame.obj
 0001:000538d0       ?reset@HandlerType4@FH4@@QEAAXXZ 00000001400548d0 f i libvcruntimed:frame.obj
 0001:00053930       ?resetBuffer@HandlerMap4@FH4@@QEAAXXZ 0000000140054930 f i libvcruntimed:frame.obj
 0001:00053950       ?setBuffer@HandlerMap4@FH4@@QEAAXI@Z 0000000140054950 f i libvcruntimed:frame.obj
 0001:000539b0       __vcrt_EncodePointer       00000001400549b0 f i libvcruntimed:frame.obj
 0001:000539d0       __vcrt_initialize_locks    00000001400549d0 f   libvcruntimed:locks.obj
 0001:00053a40       __vcrt_uninitialize_locks  0000000140054a40 f   libvcruntimed:locks.obj
 0001:00053aa0       ??$__crt_interlocked_exchange_pointer@UHINSTANCE__@@PEAU1@@@YAPEAUHINSTANCE__@@PEDSEAU0@QEAU0@@Z 0000000140054aa0 f i libvcruntimed:winapi_downlevel.obj
 0001:00053aa0       ??$__crt_interlocked_exchange_pointer@UHINSTANCE__@@PEAX@@YAPEAUHINSTANCE__@@PEDSEAU0@QEAX@Z 0000000140054aa0 f i libvcruntimed:winapi_downlevel.obj
 0001:00053aa0       ??$__crt_interlocked_exchange_pointer@XPEAX@@YAPEAXPEDSEAXQEAX@Z 0000000140054aa0 f i libvcruntimed:winapi_downlevel.obj
 0001:00053ac0       ?get_invalid_value@__crt_findfile_traits@@SAPEAXXZ 0000000140054ac0 f   libucrtd:argv_wildcards.obj
 0001:00053ac0       ?get_invalid_value@__crt_handle_traits@@SAPEAXXZ 0000000140054ac0 f   libucrtd:spawnv.obj
 0001:00053fb0       __vcrt_FlsAlloc            0000000140054fb0 f   libvcruntimed:winapi_downlevel.obj
 0001:00054000       __vcrt_FlsFree             0000000140055000 f   libvcruntimed:winapi_downlevel.obj
 0001:00054050       __vcrt_FlsGetValue         0000000140055050 f   libvcruntimed:winapi_downlevel.obj
 0001:000540a0       __vcrt_FlsSetValue         00000001400550a0 f   libvcruntimed:winapi_downlevel.obj
 0001:00054100       __vcrt_InitializeCriticalSectionEx 0000000140055100 f   libvcruntimed:winapi_downlevel.obj
 0001:000541b0       _CallSettingFrame          00000001400551b0 f   libvcruntimed:handlers.obj
 0001:000541f0       _CallSettingFrame_LookupContinuationIndex 00000001400551f0 f   libvcruntimed:handlers.obj
 0001:00054220       _CallSettingFrame_NotifyContinuationAddr 0000000140055220 f   libvcruntimed:handlers.obj
 0001:00054250       _CallSettingFrameEncoded   0000000140055250 f   libvcruntimed:handlers.obj
 0001:000542a0       ??$__crt_fast_decode_pointer@P6AHPEAU_exception@@@Z@@YAP6AHPEAU_exception@@@ZQ6AH0@Z@Z 00000001400552a0 f i libucrtd:matherr.obj
 0001:000542a0       ??$__crt_fast_decode_pointer@P6AHPEA_WK_J@Z@@YAP6AHPEA_WK_J@ZQ6AH0K1@Z@Z 00000001400552a0 f i libucrtd:winapi_thunks.obj
 0001:000542a0       ??$__crt_fast_decode_pointer@P6AH_K@Z@@YAP6AH_K@ZQ6AH0@Z@Z 00000001400552a0 f i libucrtd:new_handler.obj
 0001:000542a0       ??$__crt_fast_decode_pointer@P6AXH@Z@@YAP6AXH@ZQ6AXH@Z@Z 00000001400552a0 f i libucrtd:signal.obj
 0001:000542a0       ??$__crt_fast_decode_pointer@P6AXPEAXK0@Z@@YAP6AXPEAXK0@ZQ6AX0K0@Z@Z 00000001400552a0 f i libucrtd:exit.obj
 0001:000542a0       ??$__crt_fast_decode_pointer@P6AXPEB_W00I_K@Z@@YAP6AXPEB_W00I_K@ZQ6AX000I1@Z@Z 00000001400552a0 f i libucrtd:invalid_parameter.obj
 0001:000542a0       ??$__crt_fast_decode_pointer@P6AXXZ@@YAP6AXXZQ6AXXZ@Z 00000001400552a0 f i libucrtd:onexit.obj
 0001:000542a0       ??$__crt_fast_decode_pointer@PEAP6AXXZ@@YAPEAP6AXXZQEAP6AXXZ@Z 00000001400552a0 f i libucrtd:onexit.obj
 0001:000542a0       ??$__crt_fast_decode_pointer@PEAX@@YAPEAXQEAX@Z 00000001400552a0 f i libucrtd:winapi_thunks.obj
 0001:000542e0       ??$initialize_from_array@$$BY00Q6AXPEB_W00I_K@Z@?$dual_state_global@P6AXPEB_W00I_K@Z@__crt_state_management@@QEAAXAEAY00Q6AXPEB_W00I_K@Z@Z 00000001400552e0 f i libucrtd:invalid_parameter.obj
 0001:00054340       ??0?$cached@H@__crt_cached_ptd_host@@QEAA@XZ 0000000140055340 f i libucrtd:invalid_parameter.obj
 0001:00054340       ??0?$cached@K@__crt_cached_ptd_host@@QEAA@XZ 0000000140055340 f i libucrtd:invalid_parameter.obj
 0001:00054360       ??0__crt_cached_ptd_host@@QEAA@QEAU__crt_locale_pointers@@@Z 0000000140055360 f i libucrtd:invalid_parameter.obj
 0001:00054420       ??0__crt_scoped_get_last_error_reset@@QEAA@XZ 0000000140055420 f i libucrtd:invalid_parameter.obj
 0001:00054440       ??1__crt_cached_ptd_host@@QEAA@XZ 0000000140055440 f i libucrtd:invalid_parameter.obj
 0001:000544f0       ??1__crt_scoped_get_last_error_reset@@QEAA@XZ 00000001400554f0 f i libucrtd:invalid_parameter.obj
 0001:00054510       ?__crt_rotate_pointer_value@@YA_K_KH@Z 0000000140055510 f i libucrtd:invalid_parameter.obj
 0001:000545d0       ?check_synchronize_global_state_index@__crt_cached_ptd_host@@AEAA_KAEBV__crt_scoped_get_last_error_reset@@@Z 00000001400555d0 f i libucrtd:invalid_parameter.obj
 0001:00054610       ?check_synchronize_global_state_index@__crt_cached_ptd_host@@AEAA_KXZ 0000000140055610 f i libucrtd:invalid_parameter.obj
 0001:00054670       ?check_synchronize_per_thread_data@__crt_cached_ptd_host@@AEAAPEAU__acrt_ptd@@XZ 0000000140055670 f i libucrtd:invalid_parameter.obj
 0001:000546b0       ?force_synchronize_global_state_index@__crt_cached_ptd_host@@AEAA_KAEBV__crt_scoped_get_last_error_reset@@@Z 00000001400556b0 f i libucrtd:invalid_parameter.obj
 0001:000546f0       ?force_synchronize_per_thread_data@__crt_cached_ptd_host@@AEAAPEAU__acrt_ptd@@XZ 00000001400556f0 f i libucrtd:invalid_parameter.obj
 0001:00054750       ?get_current_global_state_index@__crt_cached_ptd_host@@QEAA_KXZ 0000000140055750 f i libucrtd:invalid_parameter.obj
 0001:00054770       ?get_raw_ptd@__crt_cached_ptd_host@@QEAAPEAU__acrt_ptd@@XZ 0000000140055770 f i libucrtd:invalid_parameter.obj
 0001:00054790       ?get_raw_ptd_noexit@__crt_cached_ptd_host@@QEAAPEAU__acrt_ptd@@XZ 0000000140055790 f i libucrtd:invalid_parameter.obj
 0001:000547b0       ?try_synchronize_per_thread_data@__crt_cached_ptd_host@@AEAAPEAU__acrt_ptd@@XZ 00000001400557b0 f i libucrtd:invalid_parameter.obj
 0001:000547e0       ?valid@?$cached@H@__crt_cached_ptd_host@@QEBA_NXZ 00000001400557e0 f i libucrtd:invalid_parameter.obj
 0001:000547e0       ?valid@?$cached@K@__crt_cached_ptd_host@@QEBA_NXZ 00000001400557e0 f i libucrtd:invalid_parameter.obj
 0001:000547f0       ?value@?$dual_state_global@P6AXPEB_W00I_K@Z@__crt_state_management@@QEAAAEAP6AXPEB_W00I_K@ZAEAV__crt_cached_ptd_host@@@Z 00000001400557f0 f i libucrtd:invalid_parameter.obj
 0001:00054820       __acrt_call_reportfault    0000000140055820 f   libucrtd:invalid_parameter.obj
 0001:00054950       __acrt_enable_global_locale_sync 0000000140055950 f i libucrtd:invalid_parameter.obj
 0001:00054980       __acrt_initialize_invalid_parameter_handler 0000000140055980 f   libucrtd:invalid_parameter.obj
 0001:000549b0       __acrt_locale_changed      00000001400559b0 f i libucrtd:invalid_parameter.obj
 0001:000549e0       _invalid_parameter         00000001400559e0 f   libucrtd:invalid_parameter.obj
 0001:00054a50       _invalid_parameter_internal 0000000140055a50 f   libucrtd:invalid_parameter.obj
 0001:00054ba0       _invalid_parameter_noinfo  0000000140055ba0 f   libucrtd:invalid_parameter.obj
 0001:00054bd0       _invoke_watson             0000000140055bd0 f   libucrtd:invalid_parameter.obj
 0001:00055f30       ?compare_equals@?$__crt_simd_traits@$00E@@SA?AT__m256i@@T2@0@Z 0000000140056f30 f i libucrtd:strnlen.obj
 0001:00055f70       ?compare_equals@?$__crt_simd_traits@$00G@@SA?AT__m256i@@T2@0@Z 0000000140056f70 f i libucrtd:strnlen.obj
 0001:00055fb0       ?compare_equals@?$__crt_simd_traits@$0A@E@@SA?AT__m128i@@T2@0@Z 0000000140056fb0 f i libucrtd:strnlen.obj
 0001:00055fe0       ?compare_equals@?$__crt_simd_traits@$0A@G@@SA?AT__m128i@@T2@0@Z 0000000140056fe0 f i libucrtd:strnlen.obj
 0001:00056010       ?compute_byte_mask@?$__crt_simd_pack_traits@$00@@SAHT__m256i@@@Z 0000000140057010 f i libucrtd:strnlen.obj
 0001:00056030       ?compute_byte_mask@?$__crt_simd_pack_traits@$0A@@@SAHT__m128i@@@Z 0000000140057030 f i libucrtd:strnlen.obj
 0001:00056050       ?get_zero_pack@?$__crt_simd_pack_traits@$00@@SA?AT__m256i@@XZ 0000000140057050 f i libucrtd:strnlen.obj
 0001:00056080       ?get_zero_pack@?$__crt_simd_pack_traits@$0A@@@SA?AT__m128i@@XZ 0000000140057080 f i libucrtd:strnlen.obj
 0001:000560a0       strnlen                    00000001400570a0 f   libucrtd:strnlen.obj
 0001:000560d0       wcslen                     00000001400570d0 f   libucrtd:strnlen.obj
 0001:000560f0       wcsnlen                    00000001400570f0 f   libucrtd:strnlen.obj
 0001:00056120       ??0_LocaleUpdate@@QEAA@QEAU__crt_locale_pointers@@@Z 0000000140057120 f i libucrtd:wcsicmp.obj
 0001:00056240       ??1_LocaleUpdate@@QEAA@XZ  0000000140057240 f i libucrtd:wcsicmp.obj
 0001:00056270       ?GetLocaleT@_LocaleUpdate@@QEAAPEAU__crt_locale_pointers@@XZ 0000000140057270 f i libucrtd:wcsicmp.obj
 0001:00056280       __acrt_disable_global_locale_sync 0000000140057280 f i libucrtd:wcsicmp.obj
 0001:000562b0       __ascii_tolower            00000001400572b0 f i libucrtd:wcsicmp.obj
 0001:000562d0       __ascii_towlower           00000001400572d0 f i libucrtd:wcsicmp.obj
 0001:000562f0       __ascii_wcsicmp            00000001400572f0 f   libucrtd:wcsicmp.obj
 0001:00056390       _tolower_fast_internal     0000000140057390 f i libucrtd:wcsicmp.obj
 0001:000563c0       _towlower_fast_internal    00000001400573c0 f i libucrtd:wcsicmp.obj
 0001:00056410       _towlower_internal         0000000140057410 f i libucrtd:wcsicmp.obj
 0001:00056450       _wcsicmp                   0000000140057450 f   libucrtd:wcsicmp.obj
 0001:000565f0       _wcsicmp_l                 00000001400575f0 f   libucrtd:wcsicmp.obj
 0001:00058c70       _CrtCheckMemory            0000000140059c70 f   libucrtd:debug_heap.obj
 0001:00058e00       _CrtDumpMemoryLeaks        0000000140059e00 f   libucrtd:debug_heap.obj
 0001:00058ec0       _CrtIsValidHeapPointer     0000000140059ec0 f   libucrtd:debug_heap.obj
 0001:00058f10       _CrtIsValidPointer         0000000140059f10 f   libucrtd:debug_heap.obj
 0001:00058f50       _CrtMemCheckpoint          0000000140059f50 f   libucrtd:debug_heap.obj
 0001:000591d0       _CrtMemDumpAllObjectsSince 000000014005a1d0 f   libucrtd:debug_heap.obj
 0001:00059230       _CrtSetDbgFlag             000000014005a230 f   libucrtd:debug_heap.obj
 0001:00059390       _CrtSetDumpClient          000000014005a390 f   libucrtd:debug_heap.obj
 0001:000593c0       __acrt_get_locale_data_prefix 000000014005a3c0 f i libucrtd:debug_heap.obj
 0001:000593e0       _calloc_dbg                000000014005a3e0 f   libucrtd:debug_heap.obj
 0001:00059480       _chvalidchk_l              000000014005a480 f i libucrtd:debug_heap.obj
 0001:000594b0       _free_dbg                  000000014005a4b0 f   libucrtd:debug_heap.obj
 0001:00059520       _invoke_watson_if_oneof    000000014005a520 f i libucrtd:debug_heap.obj
 0001:00059580       _ischartype_l              000000014005a580 f i libucrtd:debug_heap.obj
 0001:00059610       _malloc_dbg                000000014005a610 f   libucrtd:debug_heap.obj
 0001:00059650       _msize_dbg                 000000014005a650 f   libucrtd:debug_heap.obj
 0001:000597f0       _realloc_dbg               000000014005a7f0 f   libucrtd:debug_heap.obj
 0001:00059860       _recalloc_dbg              000000014005a860 f   libucrtd:debug_heap.obj
 0001:0005a730       ??$get_module_file_name@$$TAEAY0BAF@DH@?$__crt_char_traits@D@@SAK$$QEA$$TAEAY0BAF@D$$QEAH@Z 000000014005b730 f i libucrtd:argv_parsing.obj
 0001:0005a730       ??$get_module_file_name@AEAPEAUHINSTANCE__@@AEAY0BAF@DK@?$__crt_char_traits@D@@SAKAEAPEAUHINSTANCE__@@AEAY0BAF@D$$QEAK@Z 000000014005b730 f i libucrtd:dbgrpt.obj
 0001:0005a770       ??$get_module_file_name@AEAPEAUHINSTANCE__@@AEAY0BAF@_WK@?$__crt_char_traits@_W@@SAKAEAPEAUHINSTANCE__@@AEAY0BAF@_W$$QEAK@Z 000000014005b770 f i libucrtd:dbgrpt.obj
 0001:0005a7b0       ??$tcscpy_s@AEAY0BAF@D_KPEBD@?$__crt_char_traits@D@@SAHAEAY0BAF@D$$QEA_K$$QEAPEBD@Z 000000014005b7b0 f i libucrtd:dbgrpt.obj
 0001:0005a7f0       ??$tcscpy_s@AEAY0BAF@_W_KPEB_W@?$__crt_char_traits@_W@@SAHAEAY0BAF@_W$$QEA_K$$QEAPEB_W@Z 000000014005b7f0 f i libucrtd:dbgrpt.obj
 0001:0005a830       ??$tcslen@AEAPEAD@?$__crt_char_traits@D@@SA_KAEAPEAD@Z 000000014005b830 f i libucrtd:environment_initialization.obj
 0001:0005a830       ??$tcslen@AEBQEBD@?$__crt_char_traits@D@@SA_KAEBQEBD@Z 000000014005b830 f i libucrtd:dbgrpt.obj
 0001:0005a850       ??$tcslen@AEAPEA_W@?$__crt_char_traits@_W@@SA_KAEAPEA_W@Z 000000014005b850 f i libucrtd:environment_initialization.obj
 0001:0005a850       ??$tcslen@AEAPEB_W@?$__crt_char_traits@_W@@SA_KAEAPEB_W@Z 000000014005b850 f i libucrtd:spawnv.obj
 0001:0005a850       ??$tcslen@AEBQEA_W@?$__crt_char_traits@_W@@SA_KAEBQEA_W@Z 000000014005b850 f i libucrtd:setenv.obj
 0001:0005a850       ??$tcslen@AEBQEB_W@?$__crt_char_traits@_W@@SA_KAEBQEB_W@Z 000000014005b850 f i libucrtd:dbgrpt.obj
 0001:0005a850       ??$tcslen@PEA_W@?$__crt_char_traits@_W@@SA_K$$QEAPEA_W@Z 000000014005b850 f i libucrtd:cenvarg.obj
 0001:0005a8b0       _CrtDbgReport              000000014005b8b0 f   libucrtd:dbgrpt.obj
 0001:0005a930       _CrtDbgReportW             000000014005b930 f   libucrtd:dbgrpt.obj
 0001:0005a9b0       __acrt_MessageWindowA      000000014005b9b0 f   libucrtd:dbgrpt.obj
 0001:0005aa00       __acrt_MessageWindowW      000000014005ba00 f   libucrtd:dbgrpt.obj
 0001:0005aa50       _invoke_watson_if_error    000000014005ba50 f i libucrtd:dbgrpt.obj
 0001:0005aaa0       _snwprintf_s               000000014005baa0 f i libucrtd:dbgrpt.obj
 0001:0005ab10       _vsnwprintf_s_l            000000014005bb10 f i libucrtd:dbgrpt.obj
 0001:0005ab90       ??$?0AEBV?$stream_output_adapter@_W@__crt_stdio_output@@AEB_KAEBQEB_WAEAV__crt_cached_ptd_host@@AEBQEAD@?$standard_base@_WV?$stream_output_adapter@_W@__crt_stdio_output@@@__crt_stdio_output@@IEAA@AEBV?$stream_output_adapter@_W@1@AEB_KAEBQEB_WAEAV__crt_cached_ptd_host@@AEBQEAD@Z 000000014005bb90 f i libucrtd:output.obj
 0001:0005ab90       ??$?0AEBV?$string_output_adapter@_W@__crt_stdio_output@@AEB_KAEBQEB_WAEAV__crt_cached_ptd_host@@AEBQEAD@?$standard_base@_WV?$string_output_adapter@_W@__crt_stdio_output@@@__crt_stdio_output@@IEAA@AEBV?$string_output_adapter@_W@1@AEB_KAEBQEB_WAEAV__crt_cached_ptd_host@@AEBQEAD@Z 000000014005bb90 f i libucrtd:output.obj
 0001:0005ac00       ??$?0AEBV?$string_output_adapter@D@__crt_stdio_output@@AEB_KAEBQEBDAEAV__crt_cached_ptd_host@@AEBQEAD@?$format_validation_base@DV?$string_output_adapter@D@__crt_stdio_output@@@__crt_stdio_output@@IEAA@AEBV?$string_output_adapter@D@1@AEB_KAEBQEBDAEAV__crt_cached_ptd_host@@AEBQEAD@Z 000000014005bc00 f i libucrtd:output.obj
 0001:0005ac50       ??$?0AEBV?$string_output_adapter@D@__crt_stdio_output@@AEB_KAEBQEBDAEAV__crt_cached_ptd_host@@AEBQEAD@?$standard_base@DV?$string_output_adapter@D@__crt_stdio_output@@@__crt_stdio_output@@IEAA@AEBV?$string_output_adapter@D@1@AEB_KAEBQEBDAEAV__crt_cached_ptd_host@@AEBQEAD@Z 000000014005bc50 f i libucrtd:output.obj
 0001:0005acc0       ??$?0AEBV?$string_output_adapter@_W@__crt_stdio_output@@AEB_KAEBQEB_WAEAV__crt_cached_ptd_host@@AEBQEAD@?$format_validation_base@_WV?$string_output_adapter@_W@__crt_stdio_output@@@__crt_stdio_output@@IEAA@AEBV?$string_output_adapter@_W@1@AEB_KAEBQEB_WAEAV__crt_cached_ptd_host@@AEBQEAD@Z 000000014005bcc0 f i libucrtd:output.obj
 0001:0005adc0       ??$__crt_interlocked_read@H@@YAHPEDH@Z 000000014005bdc0 f i libucrtd:setmode.obj
 0001:0005adc0       ??$__crt_interlocked_read@J@@YAJPEDJ@Z 000000014005bdc0 f i libucrtd:output.obj
 0001:0005ade0       ??$_tcstol_internal@DPEAPEAD$0A@@@YAJAEAV__crt_cached_ptd_host@@QEBDQEAPEADH@Z 000000014005bde0 f i libucrtd:output.obj
 0001:0005ae30       ??$_tcstol_internal@_WPEAPEA_W$0A@@@YAJAEAV__crt_cached_ptd_host@@QEB_WQEAPEA_WH@Z 000000014005be30 f i libucrtd:output.obj
 0001:0005d080       ??$count@D@formatting_buffer@__crt_stdio_output@@QEBA_KXZ 000000014005e080 f i libucrtd:output.obj
 0001:0005d0d0       ??$count@_W@formatting_buffer@__crt_stdio_output@@QEBA_KXZ 000000014005e0d0 f i libucrtd:output.obj
 0001:0005d120       ??$data@D@formatting_buffer@__crt_stdio_output@@QEAAPEADXZ 000000014005e120 f i libucrtd:output.obj
 0001:0005d120       ??$data@_W@formatting_buffer@__crt_stdio_output@@QEAAPEA_WXZ 000000014005e120 f i libucrtd:output.obj
 0001:0005d170       ??$ensure_buffer_is_big_enough@D@formatting_buffer@__crt_stdio_output@@QEAA_N_KAEAV__crt_cached_ptd_host@@@Z 000000014005e170 f i libucrtd:output.obj
 0001:0005d2b0       ??$ensure_buffer_is_big_enough@_W@formatting_buffer@__crt_stdio_output@@QEAA_N_KAEAV__crt_cached_ptd_host@@@Z 000000014005e2b0 f i libucrtd:output.obj
 0001:0005d3f0       ??$extract_argument_from_va_list@C_J@?$standard_base@DV?$string_output_adapter@D@__crt_stdio_output@@@__crt_stdio_output@@IEAA_NAEA_J@Z 000000014005e3f0 f i libucrtd:output.obj
 0001:0005d3f0       ??$extract_argument_from_va_list@C_J@?$standard_base@_WV?$stream_output_adapter@_W@__crt_stdio_output@@@__crt_stdio_output@@IEAA_NAEA_J@Z 000000014005e3f0 f i libucrtd:output.obj
 0001:0005d3f0       ??$extract_argument_from_va_list@C_J@?$standard_base@_WV?$string_output_adapter@_W@__crt_stdio_output@@@__crt_stdio_output@@IEAA_NAEA_J@Z 000000014005e3f0 f i libucrtd:output.obj
 0001:0005d430       ??$extract_argument_from_va_list@E_J@?$standard_base@DV?$string_output_adapter@D@__crt_stdio_output@@@__crt_stdio_output@@IEAA_NAEA_J@Z 000000014005e430 f i libucrtd:output.obj
 0001:0005d430       ??$extract_argument_from_va_list@E_J@?$standard_base@_WV?$stream_output_adapter@_W@__crt_stdio_output@@@__crt_stdio_output@@IEAA_NAEA_J@Z 000000014005e430 f i libucrtd:output.obj
 0001:0005d430       ??$extract_argument_from_va_list@E_J@?$standard_base@_WV?$string_output_adapter@_W@__crt_stdio_output@@@__crt_stdio_output@@IEAA_NAEA_J@Z 000000014005e430 f i libucrtd:output.obj
 0001:0005d470       ??$extract_argument_from_va_list@F_J@?$standard_base@DV?$string_output_adapter@D@__crt_stdio_output@@@__crt_stdio_output@@IEAA_NAEA_J@Z 000000014005e470 f i libucrtd:output.obj
 0001:0005d470       ??$extract_argument_from_va_list@F_J@?$standard_base@_WV?$stream_output_adapter@_W@__crt_stdio_output@@@__crt_stdio_output@@IEAA_NAEA_J@Z 000000014005e470 f i libucrtd:output.obj
 0001:0005d470       ??$extract_argument_from_va_list@F_J@?$standard_base@_WV?$string_output_adapter@_W@__crt_stdio_output@@@__crt_stdio_output@@IEAA_NAEA_J@Z 000000014005e470 f i libucrtd:output.obj
 0001:0005d4b0       ??$extract_argument_from_va_list@GD@?$standard_base@DV?$string_output_adapter@D@__crt_stdio_output@@@__crt_stdio_output@@IEAA_NAEAD@Z 000000014005e4b0 f i libucrtd:output.obj
 0001:0005d4e0       ??$extract_argument_from_va_list@G_J@?$standard_base@DV?$string_output_adapter@D@__crt_stdio_output@@@__crt_stdio_output@@IEAA_NAEA_J@Z 000000014005e4e0 f i libucrtd:output.obj
 0001:0005d4e0       ??$extract_argument_from_va_list@G_J@?$standard_base@_WV?$stream_output_adapter@_W@__crt_stdio_output@@@__crt_stdio_output@@IEAA_NAEA_J@Z 000000014005e4e0 f i libucrtd:output.obj
 0001:0005d4e0       ??$extract_argument_from_va_list@G_J@?$standard_base@_WV?$string_output_adapter@_W@__crt_stdio_output@@@__crt_stdio_output@@IEAA_NAEA_J@Z 000000014005e4e0 f i libucrtd:output.obj
 0001:0005d520       ??$extract_argument_from_va_list@H_J@?$standard_base@DV?$string_output_adapter@D@__crt_stdio_output@@@__crt_stdio_output@@IEAA_NAEA_J@Z 000000014005e520 f i libucrtd:output.obj
 0001:0005d520       ??$extract_argument_from_va_list@H_J@?$standard_base@_WV?$stream_output_adapter@_W@__crt_stdio_output@@@__crt_stdio_output@@IEAA_NAEA_J@Z 000000014005e520 f i libucrtd:output.obj
 0001:0005d520       ??$extract_argument_from_va_list@H_J@?$standard_base@_WV?$string_output_adapter@_W@__crt_stdio_output@@@__crt_stdio_output@@IEAA_NAEA_J@Z 000000014005e520 f i libucrtd:output.obj
 0001:0005d550       ??$extract_argument_from_va_list@I_J@?$standard_base@DV?$string_output_adapter@D@__crt_stdio_output@@@__crt_stdio_output@@IEAA_NAEA_J@Z 000000014005e550 f i libucrtd:output.obj
 0001:0005d550       ??$extract_argument_from_va_list@I_J@?$standard_base@_WV?$stream_output_adapter@_W@__crt_stdio_output@@@__crt_stdio_output@@IEAA_NAEA_J@Z 000000014005e550 f i libucrtd:output.obj
 0001:0005d550       ??$extract_argument_from_va_list@I_J@?$standard_base@_WV?$string_output_adapter@_W@__crt_stdio_output@@@__crt_stdio_output@@IEAA_NAEA_J@Z 000000014005e550 f i libucrtd:output.obj
 0001:0005d580       ??$extract_argument_from_va_list@PEADPEAD@?$standard_base@DV?$string_output_adapter@D@__crt_stdio_output@@@__crt_stdio_output@@IEAA_NAEAPEAD@Z 000000014005e580 f i libucrtd:output.obj
 0001:0005d580       ??$extract_argument_from_va_list@PEADPEAD@?$standard_base@_WV?$stream_output_adapter@_W@__crt_stdio_output@@@__crt_stdio_output@@IEAA_NAEAPEAD@Z 000000014005e580 f i libucrtd:output.obj
 0001:0005d580       ??$extract_argument_from_va_list@PEADPEAD@?$standard_base@_WV?$string_output_adapter@_W@__crt_stdio_output@@@__crt_stdio_output@@IEAA_NAEAPEAD@Z 000000014005e580 f i libucrtd:output.obj
 0001:0005d580       ??$extract_argument_from_va_list@PEAUansi_string@?1??type_case_Z@?$output_processor@DV?$string_output_adapter@D@__crt_stdio_output@@V?$format_validation_base@DV?$string_output_adapter@D@__crt_stdio_output@@@2@@__crt_stdio_output@@AEAA_NXZ@PEAU1?1??234@AEAA_NXZ@@?$standard_base@DV?$string_output_adapter@D@__crt_stdio_output@@@__crt_stdio_output@@IEAA_NAEAPEAUansi_string@?1??type_case_Z@?$output_processor@DV?$string_output_adapter@D@__crt_stdio_output@@V?$format_validation_base@DV?$string_output_adapter@D@__crt_stdio_output@@@2@@1@AEAA_NXZ@@Z 000000014005e580 f i libucrtd:output.obj
 0001:0005d580       ??$extract_argument_from_va_list@PEAUansi_string@?1??type_case_Z@?$output_processor@_WV?$stream_output_adapter@_W@__crt_stdio_output@@V?$standard_base@_WV?$stream_output_adapter@_W@__crt_stdio_output@@@2@@__crt_stdio_output@@AEAA_NXZ@PEAU1?1??234@AEAA_NXZ@@?$standard_base@_WV?$stream_output_adapter@_W@__crt_stdio_output@@@__crt_stdio_output@@IEAA_NAEAPEAUansi_string@?1??type_case_Z@?$output_processor@_WV?$stream_output_adapter@_W@__crt_stdio_output@@V?$standard_base@_WV?$stream_output_adapter@_W@__crt_stdio_output@@@2@@1@AEAA_NXZ@@Z 000000014005e580 f i libucrtd:output.obj
 0001:0005d580       ??$extract_argument_from_va_list@PEAUansi_string@?1??type_case_Z@?$output_processor@_WV?$string_output_adapter@_W@__crt_stdio_output@@V?$format_validation_base@_WV?$string_output_adapter@_W@__crt_stdio_output@@@2@@__crt_stdio_output@@AEAA_NXZ@PEAU1?1??234@AEAA_NXZ@@?$standard_base@_WV?$string_output_adapter@_W@__crt_stdio_output@@@__crt_stdio_output@@IEAA_NAEAPEAUansi_string@?1??type_case_Z@?$output_processor@_WV?$string_output_adapter@_W@__crt_stdio_output@@V?$format_validation_base@_WV?$string_output_adapter@_W@__crt_stdio_output@@@2@@1@AEAA_NXZ@@Z 000000014005e580 f i libucrtd:output.obj
 0001:0005d580       ??$extract_argument_from_va_list@PEAXPEAX@?$standard_base@DV?$string_output_adapter@D@__crt_stdio_output@@@__crt_stdio_output@@IEAA_NAEAPEAX@Z 000000014005e580 f i libucrtd:output.obj
 0001:0005d580       ??$extract_argument_from_va_list@PEAXPEAX@?$standard_base@_WV?$stream_output_adapter@_W@__crt_stdio_output@@@__crt_stdio_output@@IEAA_NAEAPEAX@Z 000000014005e580 f i libucrtd:output.obj
 0001:0005d580       ??$extract_argument_from_va_list@PEAXPEAX@?$standard_base@_WV?$string_output_adapter@_W@__crt_stdio_output@@@__crt_stdio_output@@IEAA_NAEAPEAX@Z 000000014005e580 f i libucrtd:output.obj
 0001:0005d580       ??$extract_argument_from_va_list@_J_J@?$standard_base@DV?$string_output_adapter@D@__crt_stdio_output@@@__crt_stdio_output@@IEAA_NAEA_J@Z 000000014005e580 f i libucrtd:output.obj
 0001:0005d580       ??$extract_argument_from_va_list@_J_J@?$standard_base@_WV?$stream_output_adapter@_W@__crt_stdio_output@@@__crt_stdio_output@@IEAA_NAEA_J@Z 000000014005e580 f i libucrtd:output.obj
 0001:0005d580       ??$extract_argument_from_va_list@_J_J@?$standard_base@_WV?$string_output_adapter@_W@__crt_stdio_output@@@__crt_stdio_output@@IEAA_NAEA_J@Z 000000014005e580 f i libucrtd:output.obj
 0001:0005d580       ??$extract_argument_from_va_list@_K_J@?$standard_base@DV?$string_output_adapter@D@__crt_stdio_output@@@__crt_stdio_output@@IEAA_NAEA_J@Z 000000014005e580 f i libucrtd:output.obj
 0001:0005d580       ??$extract_argument_from_va_list@_K_J@?$standard_base@_WV?$stream_output_adapter@_W@__crt_stdio_output@@@__crt_stdio_output@@IEAA_NAEA_J@Z 000000014005e580 f i libucrtd:output.obj
 0001:0005d580       ??$extract_argument_from_va_list@_K_J@?$standard_base@_WV?$string_output_adapter@_W@__crt_stdio_output@@@__crt_stdio_output@@IEAA_NAEA_J@Z 000000014005e580 f i libucrtd:output.obj
 0001:0005d5b0       ??$extract_argument_from_va_list@U_CRT_DOUBLE@@U1@@?$standard_base@DV?$string_output_adapter@D@__crt_stdio_output@@@__crt_stdio_output@@IEAA_NAEAU_CRT_DOUBLE@@@Z 000000014005e5b0 f i libucrtd:output.obj
 0001:0005d5b0       ??$extract_argument_from_va_list@U_CRT_DOUBLE@@U1@@?$standard_base@_WV?$stream_output_adapter@_W@__crt_stdio_output@@@__crt_stdio_output@@IEAA_NAEAU_CRT_DOUBLE@@@Z 000000014005e5b0 f i libucrtd:output.obj
 0001:0005d5b0       ??$extract_argument_from_va_list@U_CRT_DOUBLE@@U1@@?$standard_base@_WV?$string_output_adapter@_W@__crt_stdio_output@@@__crt_stdio_output@@IEAA_NAEAU_CRT_DOUBLE@@@Z 000000014005e5b0 f i libucrtd:output.obj
 0001:0005d600       ??$extract_argument_from_va_list@_W_W@?$standard_base@DV?$string_output_adapter@D@__crt_stdio_output@@@__crt_stdio_output@@IEAA_NAEA_W@Z 000000014005e600 f i libucrtd:output.obj
 0001:0005d600       ??$extract_argument_from_va_list@_W_W@?$standard_base@_WV?$stream_output_adapter@_W@__crt_stdio_output@@@__crt_stdio_output@@IEAA_NAEA_W@Z 000000014005e600 f i libucrtd:output.obj
 0001:0005d600       ??$extract_argument_from_va_list@_W_W@?$standard_base@_WV?$string_output_adapter@_W@__crt_stdio_output@@@__crt_stdio_output@@IEAA_NAEA_W@Z 000000014005e600 f i libucrtd:output.obj
 0001:0005d630       ??$is_overflow_condition@K@__crt_strtox@@YA_NIK@Z 000000014005e630 f i libucrtd:output.obj
 0001:0005d6a0       ??$is_wide_character_specifier@D@__crt_stdio_output@@YA_N_KDW4length_modifier@0@@Z 000000014005e6a0 f i libucrtd:output.obj
 0001:0005d740       ??$is_wide_character_specifier@_W@__crt_stdio_output@@YA_N_K_WW4length_modifier@0@@Z 000000014005e740 f i libucrtd:output.obj
 0001:0005d810       ??$make_c_string_character_source@DPEAPEAD@__crt_strtox@@YA?AV?$c_string_character_source@D@0@QEBDQEAPEAD@Z 000000014005e810 f i libucrtd:output.obj
 0001:0005d810       ??$make_c_string_character_source@_W$$T@__crt_strtox@@YA?AV?$c_string_character_source@_W@0@QEB_W$$T@Z 000000014005e810 f i libucrtd:atox.obj
 0001:0005d810       ??$make_c_string_character_source@_WPEAPEA_W@__crt_strtox@@YA?AV?$c_string_character_source@_W@0@QEB_WQEAPEA_W@Z 000000014005e810 f i libucrtd:output.obj
 0001:0005d850       ??$parse_integer@KV?$c_string_character_source@D@__crt_strtox@@$0A@@__crt_strtox@@YAKAEAV__crt_cached_ptd_host@@V?$c_string_character_source@D@0@H_N@Z 000000014005e850 f i libucrtd:output.obj
 0001:0005dcd0       ??$parse_integer@KV?$c_string_character_source@_W@__crt_strtox@@$0A@@__crt_strtox@@YAKAEAV__crt_cached_ptd_host@@V?$c_string_character_source@_W@0@H_N@Z 000000014005ecd0 f i libucrtd:output.obj
 0001:0005e150       ??$puttc_nolock_internal@AEB_WPEAU_iobuf@@AEAV__crt_cached_ptd_host@@@?$__crt_char_traits@_W@@SAGAEB_W$$QEAPEAU_iobuf@@AEAV__crt_cached_ptd_host@@@Z 000000014005f150 f i libucrtd:output.obj
 0001:0005e190       ??$read_va_arg@C@__crt_stdio_output@@YACAEAPEAD@Z 000000014005f190 f i libucrtd:output.obj
 0001:0005e190       ??$read_va_arg@E@__crt_stdio_output@@YAEAEAPEAD@Z 000000014005f190 f i libucrtd:output.obj
 0001:0005e200       ??$read_va_arg@F@__crt_stdio_output@@YAFAEAPEAD@Z 000000014005f200 f i libucrtd:output.obj
 0001:0005e200       ??$read_va_arg@G@__crt_stdio_output@@YAGAEAPEAD@Z 000000014005f200 f i libucrtd:output.obj
 0001:0005e200       ??$read_va_arg@_W@__crt_stdio_output@@YA_WAEAPEAD@Z 000000014005f200 f i libucrtd:output.obj
 0001:0005e270       ??$read_va_arg@H@__crt_stdio_output@@YAHAEAPEAD@Z 000000014005f270 f i libucrtd:output.obj
 0001:0005e270       ??$read_va_arg@I@__crt_stdio_output@@YAIAEAPEAD@Z 000000014005f270 f i libucrtd:output.obj
 0001:0005e2d0       ??$read_va_arg@PEAD@__crt_stdio_output@@YAPEADAEAPEAD@Z 000000014005f2d0 f i libucrtd:output.obj
 0001:0005e2d0       ??$read_va_arg@PEAUansi_string@?1??type_case_Z@?$output_processor@DV?$string_output_adapter@D@__crt_stdio_output@@V?$format_validation_base@DV?$string_output_adapter@D@__crt_stdio_output@@@2@@__crt_stdio_output@@AEAA_NXZ@@__crt_stdio_output@@YAPEAUansi_string@?1??type_case_Z@?$output_processor@DV?$string_output_adapter@D@__crt_stdio_output@@V?$format_validation_base@DV?$string_output_adapter@D@__crt_stdio_output@@@2@@0@AEAA_NXZ@AEAPEAD@Z 000000014005f2d0 f i libucrtd:output.obj
 0001:0005e2d0       ??$read_va_arg@PEAUansi_string@?1??type_case_Z@?$output_processor@_WV?$stream_output_adapter@_W@__crt_stdio_output@@V?$standard_base@_WV?$stream_output_adapter@_W@__crt_stdio_output@@@2@@__crt_stdio_output@@AEAA_NXZ@@__crt_stdio_output@@YAPEAUansi_string@?1??type_case_Z@?$output_processor@_WV?$stream_output_adapter@_W@__crt_stdio_output@@V?$standard_base@_WV?$stream_output_adapter@_W@__crt_stdio_output@@@2@@0@AEAA_NXZ@AEAPEAD@Z 000000014005f2d0 f i libucrtd:output.obj
 0001:0005e2d0       ??$read_va_arg@PEAUansi_string@?1??type_case_Z@?$output_processor@_WV?$string_output_adapter@_W@__crt_stdio_output@@V?$format_validation_base@_WV?$string_output_adapter@_W@__crt_stdio_output@@@2@@__crt_stdio_output@@AEAA_NXZ@@__crt_stdio_output@@YAPEAUansi_string@?1??type_case_Z@?$output_processor@_WV?$string_output_adapter@_W@__crt_stdio_output@@V?$format_validation_base@_WV?$string_output_adapter@_W@__crt_stdio_output@@@2@@0@AEAA_NXZ@AEAPEAD@Z 000000014005f2d0 f i libucrtd:output.obj
 0001:0005e2d0       ??$read_va_arg@PEAX@__crt_stdio_output@@YAPEAXAEAPEAD@Z 000000014005f2d0 f i libucrtd:output.obj
 0001:0005e2d0       ??$read_va_arg@U_CRT_DOUBLE@@@__crt_stdio_output@@YA?AU_CRT_DOUBLE@@AEAPEAD@Z 000000014005f2d0 f i libucrtd:output.obj
 0001:0005e2d0       ??$read_va_arg@_J@__crt_stdio_output@@YA_JAEAPEAD@Z 000000014005f2d0 f i libucrtd:output.obj
 0001:0005e2d0       ??$read_va_arg@_K@__crt_stdio_output@@YA_KAEAPEAD@Z 000000014005f2d0 f i libucrtd:output.obj
 0001:0005e340       ??$scratch_count@D@formatting_buffer@__crt_stdio_output@@QEBA_KXZ 000000014005f340 f i libucrtd:output.obj
 0001:0005e360       ??$scratch_data@D@formatting_buffer@__crt_stdio_output@@QEAAPEADXZ 000000014005f360 f i libucrtd:output.obj
 0001:0005e3d0       ??$type_case_integer@$07@?$output_processor@DV?$string_output_adapter@D@__crt_stdio_output@@V?$format_validation_base@DV?$string_output_adapter@D@__crt_stdio_output@@@2@@__crt_stdio_output@@AEAA_N_N@Z 000000014005f3d0 f i libucrtd:output.obj
 0001:0005e850       ??$type_case_integer@$07@?$output_processor@_WV?$stream_output_adapter@_W@__crt_stdio_output@@V?$standard_base@_WV?$stream_output_adapter@_W@__crt_stdio_output@@@2@@__crt_stdio_output@@AEAA_N_N@Z 000000014005f850 f i libucrtd:output.obj
 0001:0005ecd0       ??$type_case_integer@$07@?$output_processor@_WV?$string_output_adapter@_W@__crt_stdio_output@@V?$format_validation_base@_WV?$string_output_adapter@_W@__crt_stdio_output@@@2@@__crt_stdio_output@@AEAA_N_N@Z 000000014005fcd0 f i libucrtd:output.obj
 0001:0005f150       ??$type_case_integer@$09@?$output_processor@DV?$string_output_adapter@D@__crt_stdio_output@@V?$format_validation_base@DV?$string_output_adapter@D@__crt_stdio_output@@@2@@__crt_stdio_output@@AEAA_N_N@Z 0000000140060150 f i libucrtd:output.obj
 0001:0005f5d0       ??$type_case_integer@$09@?$output_processor@_WV?$stream_output_adapter@_W@__crt_stdio_output@@V?$standard_base@_WV?$stream_output_adapter@_W@__crt_stdio_output@@@2@@__crt_stdio_output@@AEAA_N_N@Z 00000001400605d0 f i libucrtd:output.obj
 0001:0005fa50       ??$type_case_integer@$09@?$output_processor@_WV?$string_output_adapter@_W@__crt_stdio_output@@V?$format_validation_base@_WV?$string_output_adapter@_W@__crt_stdio_output@@@2@@__crt_stdio_output@@AEAA_N_N@Z 0000000140060a50 f i libucrtd:output.obj
 0001:0005fed0       ??$type_case_integer@$0BA@@?$output_processor@DV?$string_output_adapter@D@__crt_stdio_output@@V?$format_validation_base@DV?$string_output_adapter@D@__crt_stdio_output@@@2@@__crt_stdio_output@@AEAA_N_N@Z 0000000140060ed0 f i libucrtd:output.obj
 0001:00060350       ??$type_case_integer@$0BA@@?$output_processor@_WV?$stream_output_adapter@_W@__crt_stdio_output@@V?$standard_base@_WV?$stream_output_adapter@_W@__crt_stdio_output@@@2@@__crt_stdio_output@@AEAA_N_N@Z 0000000140061350 f i libucrtd:output.obj
 0001:000607d0       ??$type_case_integer@$0BA@@?$output_processor@_WV?$string_output_adapter@_W@__crt_stdio_output@@V?$format_validation_base@_WV?$string_output_adapter@_W@__crt_stdio_output@@@2@@__crt_stdio_output@@AEAA_N_N@Z 00000001400617d0 f i libucrtd:output.obj
 0001:00060c50       ??$type_case_integer_parse_into_buffer@I$07@?$output_processor@DV?$string_output_adapter@D@__crt_stdio_output@@V?$format_validation_base@DV?$string_output_adapter@D@__crt_stdio_output@@@2@@__crt_stdio_output@@AEAAXI_N@Z 0000000140061c50 f i libucrtd:output.obj
 0001:00060d80       ??$type_case_integer_parse_into_buffer@I$07@?$output_processor@_WV?$stream_output_adapter@_W@__crt_stdio_output@@V?$standard_base@_WV?$stream_output_adapter@_W@__crt_stdio_output@@@2@@__crt_stdio_output@@AEAAXI_N@Z 0000000140061d80 f i libucrtd:output.obj
 0001:00060d80       ??$type_case_integer_parse_into_buffer@I$07@?$output_processor@_WV?$string_output_adapter@_W@__crt_stdio_output@@V?$format_validation_base@_WV?$string_output_adapter@_W@__crt_stdio_output@@@2@@__crt_stdio_output@@AEAAXI_N@Z 0000000140061d80 f i libucrtd:output.obj
 0001:00060ec0       ??$type_case_integer_parse_into_buffer@I$09@?$output_processor@DV?$string_output_adapter@D@__crt_stdio_output@@V?$format_validation_base@DV?$string_output_adapter@D@__crt_stdio_output@@@2@@__crt_stdio_output@@AEAAXI_N@Z 0000000140061ec0 f i libucrtd:output.obj
 0001:00060ff0       ??$type_case_integer_parse_into_buffer@I$09@?$output_processor@_WV?$stream_output_adapter@_W@__crt_stdio_output@@V?$standard_base@_WV?$stream_output_adapter@_W@__crt_stdio_output@@@2@@__crt_stdio_output@@AEAAXI_N@Z 0000000140061ff0 f i libucrtd:output.obj
 0001:00060ff0       ??$type_case_integer_parse_into_buffer@I$09@?$output_processor@_WV?$string_output_adapter@_W@__crt_stdio_output@@V?$format_validation_base@_WV?$string_output_adapter@_W@__crt_stdio_output@@@2@@__crt_stdio_output@@AEAAXI_N@Z 0000000140061ff0 f i libucrtd:output.obj
 0001:00061130       ??$type_case_integer_parse_into_buffer@I$0BA@@?$output_processor@DV?$string_output_adapter@D@__crt_stdio_output@@V?$format_validation_base@DV?$string_output_adapter@D@__crt_stdio_output@@@2@@__crt_stdio_output@@AEAAXI_N@Z 0000000140062130 f i libucrtd:output.obj
 0001:00061260       ??$type_case_integer_parse_into_buffer@I$0BA@@?$output_processor@_WV?$stream_output_adapter@_W@__crt_stdio_output@@V?$standard_base@_WV?$stream_output_adapter@_W@__crt_stdio_output@@@2@@__crt_stdio_output@@AEAAXI_N@Z 0000000140062260 f i libucrtd:output.obj
 0001:00061260       ??$type_case_integer_parse_into_buffer@I$0BA@@?$output_processor@_WV?$string_output_adapter@_W@__crt_stdio_output@@V?$format_validation_base@_WV?$string_output_adapter@_W@__crt_stdio_output@@@2@@__crt_stdio_output@@AEAAXI_N@Z 0000000140062260 f i libucrtd:output.obj
 0001:000613a0       ??$type_case_integer_parse_into_buffer@_K$07@?$output_processor@DV?$string_output_adapter@D@__crt_stdio_output@@V?$format_validation_base@DV?$string_output_adapter@D@__crt_stdio_output@@@2@@__crt_stdio_output@@AEAAX_K_N@Z 00000001400623a0 f i libucrtd:output.obj
 0001:000614e0       ??$type_case_integer_parse_into_buffer@_K$07@?$output_processor@_WV?$stream_output_adapter@_W@__crt_stdio_output@@V?$standard_base@_WV?$stream_output_adapter@_W@__crt_stdio_output@@@2@@__crt_stdio_output@@AEAAX_K_N@Z 00000001400624e0 f i libucrtd:output.obj
 0001:000614e0       ??$type_case_integer_parse_into_buffer@_K$07@?$output_processor@_WV?$string_output_adapter@_W@__crt_stdio_output@@V?$format_validation_base@_WV?$string_output_adapter@_W@__crt_stdio_output@@@2@@__crt_stdio_output@@AEAAX_K_N@Z 00000001400624e0 f i libucrtd:output.obj
 0001:00061620       ??$type_case_integer_parse_into_buffer@_K$09@?$output_processor@DV?$string_output_adapter@D@__crt_stdio_output@@V?$format_validation_base@DV?$string_output_adapter@D@__crt_stdio_output@@@2@@__crt_stdio_output@@AEAAX_K_N@Z 0000000140062620 f i libucrtd:output.obj
 0001:00061760       ??$type_case_integer_parse_into_buffer@_K$09@?$output_processor@_WV?$stream_output_adapter@_W@__crt_stdio_output@@V?$standard_base@_WV?$stream_output_adapter@_W@__crt_stdio_output@@@2@@__crt_stdio_output@@AEAAX_K_N@Z 0000000140062760 f i libucrtd:output.obj
 0001:00061760       ??$type_case_integer_parse_into_buffer@_K$09@?$output_processor@_WV?$string_output_adapter@_W@__crt_stdio_output@@V?$format_validation_base@_WV?$string_output_adapter@_W@__crt_stdio_output@@@2@@__crt_stdio_output@@AEAAX_K_N@Z 0000000140062760 f i libucrtd:output.obj
 0001:000618a0       ??$type_case_integer_parse_into_buffer@_K$0BA@@?$output_processor@DV?$string_output_adapter@D@__crt_stdio_output@@V?$format_validation_base@DV?$string_output_adapter@D@__crt_stdio_output@@@2@@__crt_stdio_output@@AEAAX_K_N@Z 00000001400628a0 f i libucrtd:output.obj
 0001:000619e0       ??$type_case_integer_parse_into_buffer@_K$0BA@@?$output_processor@_WV?$stream_output_adapter@_W@__crt_stdio_output@@V?$standard_base@_WV?$stream_output_adapter@_W@__crt_stdio_output@@@2@@__crt_stdio_output@@AEAAX_K_N@Z 00000001400629e0 f i libucrtd:output.obj
 0001:000619e0       ??$type_case_integer_parse_into_buffer@_K$0BA@@?$output_processor@_WV?$string_output_adapter@_W@__crt_stdio_output@@V?$format_validation_base@_WV?$string_output_adapter@_W@__crt_stdio_output@@@2@@__crt_stdio_output@@AEAAX_K_N@Z 00000001400629e0 f i libucrtd:output.obj
 0001:00061b20       ??$write_multiple_characters@V?$stream_output_adapter@_W@__crt_stdio_output@@D@__crt_stdio_output@@YAXAEBV?$stream_output_adapter@_W@0@DHQEAHAEAV__crt_cached_ptd_host@@@Z 0000000140062b20 f i libucrtd:output.obj
 0001:00061b90       ??$write_multiple_characters@V?$string_output_adapter@D@__crt_stdio_output@@D@__crt_stdio_output@@YAXAEBV?$string_output_adapter@D@0@DHQEAHAEAV__crt_cached_ptd_host@@@Z 0000000140062b90 f i libucrtd:output.obj
 0001:00061c00       ??$write_multiple_characters@V?$string_output_adapter@_W@__crt_stdio_output@@D@__crt_stdio_output@@YAXAEBV?$string_output_adapter@_W@0@DHQEAHAEAV__crt_cached_ptd_host@@@Z 0000000140062c00 f i libucrtd:output.obj
 0001:00061cf0       ??0?$c_string_character_source@D@__crt_strtox@@QEAA@QEBDQEAPEBD@Z 0000000140062cf0 f i libucrtd:output.obj
 0001:00061cf0       ??0?$c_string_character_source@_W@__crt_strtox@@QEAA@QEB_WQEAPEB_W@Z 0000000140062cf0 f i libucrtd:output.obj
 0001:00061d40       ??0?$common_data@D@__crt_stdio_output@@IEAA@AEAV__crt_cached_ptd_host@@@Z 0000000140062d40 f i libucrtd:output.obj
 0001:00061e00       ??0?$common_data@_W@__crt_stdio_output@@IEAA@AEAV__crt_cached_ptd_host@@@Z 0000000140062e00 f i libucrtd:output.obj
 0001:00061ec0       ??0?$output_adapter_data@DV?$string_output_adapter@D@__crt_stdio_output@@@__crt_stdio_output@@IEAA@AEBV?$string_output_adapter@D@1@_KQEBDAEAV__crt_cached_ptd_host@@QEAD@Z 0000000140062ec0 f i libucrtd:output.obj
 0001:00061f40       ??0?$output_adapter_data@_WV?$stream_output_adapter@_W@__crt_stdio_output@@@__crt_stdio_output@@IEAA@AEBV?$stream_output_adapter@_W@1@_KQEB_WAEAV__crt_cached_ptd_host@@QEAD@Z 0000000140062f40 f i libucrtd:output.obj
 0001:00061f40       ??0?$output_adapter_data@_WV?$string_output_adapter@_W@__crt_stdio_output@@@__crt_stdio_output@@IEAA@AEBV?$string_output_adapter@_W@1@_KQEB_WAEAV__crt_cached_ptd_host@@QEAD@Z 0000000140062f40 f i libucrtd:output.obj
 0001:00061fc0       ??0?$output_processor@DV?$string_output_adapter@D@__crt_stdio_output@@V?$format_validation_base@DV?$string_output_adapter@D@__crt_stdio_output@@@2@@__crt_stdio_output@@QEAA@AEBV?$string_output_adapter@D@1@_KQEBDAEAV__crt_cached_ptd_host@@QEAD@Z 0000000140062fc0 f i libucrtd:output.obj
 0001:00062010       ??0?$output_processor@_WV?$stream_output_adapter@_W@__crt_stdio_output@@V?$standard_base@_WV?$stream_output_adapter@_W@__crt_stdio_output@@@2@@__crt_stdio_output@@QEAA@AEBV?$stream_output_adapter@_W@1@_KQEB_WAEAV__crt_cached_ptd_host@@QEAD@Z 0000000140063010 f i libucrtd:output.obj
 0001:00062060       ??0?$output_processor@_WV?$string_output_adapter@_W@__crt_stdio_output@@V?$format_validation_base@_WV?$string_output_adapter@_W@__crt_stdio_output@@@2@@__crt_stdio_output@@QEAA@AEBV?$string_output_adapter@_W@1@_KQEB_WAEAV__crt_cached_ptd_host@@QEAD@Z 0000000140063060 f i libucrtd:output.obj
 0001:000620b0       ??0?$stream_output_adapter@_W@__crt_stdio_output@@QEAA@QEAU_iobuf@@@Z 00000001400630b0 f i libucrtd:output.obj
 0001:000620f0       ??0__acrt_stdio_temporary_buffering_guard@@QEAA@QEAU_iobuf@@AEAV__crt_cached_ptd_host@@@Z 00000001400630f0 f i libucrtd:output.obj
 0001:00062140       ??0formatting_buffer@__crt_stdio_output@@QEAA@XZ 0000000140063140 f i libucrtd:output.obj
 0001:00062180       ??0guard@?$cached@H@__crt_cached_ptd_host@@QEAA@AEAU12@@Z 0000000140063180 f i libucrtd:output.obj
 0001:000621c0       ??1?$c_string_character_source@D@__crt_strtox@@QEAA@XZ 00000001400631c0 f i libucrtd:output.obj
 0001:000621c0       ??1?$c_string_character_source@_W@__crt_strtox@@QEAA@XZ 00000001400631c0 f i libucrtd:output.obj
 0001:000621f0       ??1?$common_data@D@__crt_stdio_output@@QEAA@XZ 00000001400631f0 f i libucrtd:output.obj
 0001:000621f0       ??1?$common_data@_W@__crt_stdio_output@@QEAA@XZ 00000001400631f0 f i libucrtd:output.obj
 0001:00062210       ??1?$format_validation_base@DV?$string_output_adapter@D@__crt_stdio_output@@@__crt_stdio_output@@QEAA@XZ 0000000140063210 f i libucrtd:output.obj
 0001:00062210       ??1?$format_validation_base@_WV?$string_output_adapter@_W@__crt_stdio_output@@@__crt_stdio_output@@QEAA@XZ 0000000140063210 f i libucrtd:output.obj
 0001:00062210       ??1?$output_processor@_WV?$stream_output_adapter@_W@__crt_stdio_output@@V?$standard_base@_WV?$stream_output_adapter@_W@__crt_stdio_output@@@2@@__crt_stdio_output@@QEAA@XZ 0000000140063210 f i libucrtd:output.obj
 0001:00062230       ??1?$output_adapter_data@DV?$string_output_adapter@D@__crt_stdio_output@@@__crt_stdio_output@@QEAA@XZ 0000000140063230 f i libucrtd:output.obj
 0001:00062230       ??1?$output_adapter_data@_WV?$stream_output_adapter@_W@__crt_stdio_output@@@__crt_stdio_output@@QEAA@XZ 0000000140063230 f i libucrtd:output.obj
 0001:00062230       ??1?$output_adapter_data@_WV?$string_output_adapter@_W@__crt_stdio_output@@@__crt_stdio_output@@QEAA@XZ 0000000140063230 f i libucrtd:output.obj
 0001:00062250       ??1?$output_processor@DV?$string_output_adapter@D@__crt_stdio_output@@V?$format_validation_base@DV?$string_output_adapter@D@__crt_stdio_output@@@2@@__crt_stdio_output@@QEAA@XZ 0000000140063250 f i libucrtd:output.obj
 0001:00062250       ??1?$output_processor@_WV?$string_output_adapter@_W@__crt_stdio_output@@V?$format_validation_base@_WV?$string_output_adapter@_W@__crt_stdio_output@@@2@@__crt_stdio_output@@QEAA@XZ 0000000140063250 f i libucrtd:output.obj
 0001:00062270       ??1?$standard_base@DV?$string_output_adapter@D@__crt_stdio_output@@@__crt_stdio_output@@QEAA@XZ 0000000140063270 f i libucrtd:output.obj
 0001:00062270       ??1?$standard_base@_WV?$stream_output_adapter@_W@__crt_stdio_output@@@__crt_stdio_output@@QEAA@XZ 0000000140063270 f i libucrtd:output.obj
 0001:00062270       ??1?$standard_base@_WV?$string_output_adapter@_W@__crt_stdio_output@@@__crt_stdio_output@@QEAA@XZ 0000000140063270 f i libucrtd:output.obj
 0001:00062290       ??1__acrt_stdio_temporary_buffering_guard@@QEAA@XZ 0000000140063290 f i libucrtd:output.obj
 0001:000622c0       ??1formatting_buffer@__crt_stdio_output@@QEAA@XZ 00000001400632c0 f i libucrtd:output.obj
 0001:000622f0       ??1guard@?$cached@H@__crt_cached_ptd_host@@QEAA@XZ 00000001400632f0 f i libucrtd:output.obj
 0001:00062320       ??4?$__crt_unique_heap_ptr@DU__crt_internal_free_policy@@@@QEAAAEAV0@$$QEAV0@@Z 0000000140063320 f i libucrtd:output.obj
 0001:00062360       ??A?$spectre_mitigated_lookup_table@Ustate_transition_pair@__crt_stdio_output@@$0IA@@__crt_stdio_output@@QEBAAEBUstate_transition_pair@1@_K@Z 0000000140063360 f i libucrtd:output.obj
 0001:000624e0       ?__crt_interlocked_read_32@@YAHPEDH@Z 00000001400634e0 f i libucrtd:output.obj
 0001:00062500       ?adjust_hexit@?$output_processor@DV?$string_output_adapter@D@__crt_stdio_output@@V?$format_validation_base@DV?$string_output_adapter@D@__crt_stdio_output@@@2@@__crt_stdio_output@@CADH_N@Z 0000000140063500 f i libucrtd:output.obj
 0001:00062500       ?adjust_hexit@?$output_processor@_WV?$stream_output_adapter@_W@__crt_stdio_output@@V?$standard_base@_WV?$stream_output_adapter@_W@__crt_stdio_output@@@2@@__crt_stdio_output@@CADH_N@Z 0000000140063500 f i libucrtd:output.obj
 0001:00062500       ?adjust_hexit@?$output_processor@_WV?$string_output_adapter@_W@__crt_stdio_output@@V?$format_validation_base@_WV?$string_output_adapter@_W@__crt_stdio_output@@@2@@__crt_stdio_output@@CADH_N@Z 0000000140063500 f i libucrtd:output.obj
 0001:00062550       ?advance_to_next_pass@?$standard_base@DV?$string_output_adapter@D@__crt_stdio_output@@@__crt_stdio_output@@IEAA_NXZ 0000000140063550 f i libucrtd:output.obj
 0001:00062550       ?advance_to_next_pass@?$standard_base@_WV?$stream_output_adapter@_W@__crt_stdio_output@@@__crt_stdio_output@@IEAA_NXZ 0000000140063550 f i libucrtd:output.obj
 0001:00062550       ?advance_to_next_pass@?$standard_base@_WV?$string_output_adapter@_W@__crt_stdio_output@@@__crt_stdio_output@@IEAA_NXZ 0000000140063550 f i libucrtd:output.obj
 0001:000625a0       ?check@?$cached@H@__crt_cached_ptd_host@@QEBA_NH@Z 00000001400635a0 f i libucrtd:output.obj
 0001:000625a0       ?check@?$cached@K@__crt_cached_ptd_host@@QEBA_NK@Z 00000001400635a0 f i libucrtd:chsize.obj
 0001:000625e0       ?create_guard@?$cached@H@__crt_cached_ptd_host@@QEAA?AVguard@12@XZ 00000001400635e0 f i libucrtd:output.obj
 0001:00062610       ?crop_zeroes@__crt_stdio_output@@YAXPEADQEAU__crt_locale_pointers@@@Z 0000000140063610 f i libucrtd:output.obj
 0001:00062760       ?disable@guard@?$cached@H@__crt_cached_ptd_host@@QEAAXXZ 0000000140063760 f i libucrtd:output.obj
 0001:00062770       ?enable@guard@?$cached@H@__crt_cached_ptd_host@@QEAAXXZ 0000000140063770 f i libucrtd:output.obj
 0001:00062780       ?find_next_state@?$output_processor@DV?$string_output_adapter@D@__crt_stdio_output@@V?$format_validation_base@DV?$string_output_adapter@D@__crt_stdio_output@@@2@@__crt_stdio_output@@AEBA?AW4state@2@DW432@@Z 0000000140063780 f i libucrtd:output.obj
 0001:00062820       ?find_next_state@?$output_processor@_WV?$stream_output_adapter@_W@__crt_stdio_output@@V?$standard_base@_WV?$stream_output_adapter@_W@__crt_stdio_output@@@2@@__crt_stdio_output@@AEBA?AW4state@2@_WW432@@Z 0000000140063820 f i libucrtd:output.obj
 0001:000628c0       ?find_next_state@?$output_processor@_WV?$string_output_adapter@_W@__crt_stdio_output@@V?$format_validation_base@_WV?$string_output_adapter@_W@__crt_stdio_output@@@2@@__crt_stdio_output@@AEBA?AW4state@2@_WW432@@Z 00000001400638c0 f i libucrtd:output.obj
 0001:00062960       ?force_decimal_point@__crt_stdio_output@@YAXPEADQEAU__crt_locale_pointers@@@Z 0000000140063960 f i libucrtd:output.obj
 0001:00062a60       ?get@?$c_string_character_source@D@__crt_strtox@@QEAADXZ 0000000140063a60 f i libucrtd:output.obj
 0001:00062aa0       ?get@?$c_string_character_source@_W@__crt_strtox@@QEAA_WXZ 0000000140063aa0 f i libucrtd:output.obj
 0001:00062ae0       ?get_errno@__crt_cached_ptd_host@@QEAA@XZ 0000000140063ae0 f i libucrtd:output.obj
 0001:00062af0       ?get_flags@__crt_stdio_stream@@QEBAJXZ 0000000140063af0 f i libucrtd:output.obj
 0001:00062b20       ?get_locale@__crt_cached_ptd_host@@QEAAPEAU__crt_locale_pointers@@XZ 0000000140063b20 f i libucrtd:output.obj
 0001:00062b50       ?has_flag@?$output_processor@DV?$string_output_adapter@D@__crt_stdio_output@@V?$format_validation_base@DV?$string_output_adapter@D@__crt_stdio_output@@@2@@__crt_stdio_output@@AEBA_NI@Z 0000000140063b50 f i libucrtd:output.obj
 0001:00062b50       ?has_flag@?$output_processor@_WV?$stream_output_adapter@_W@__crt_stdio_output@@V?$standard_base@_WV?$stream_output_adapter@_W@__crt_stdio_output@@@2@@__crt_stdio_output@@AEBA_NI@Z 0000000140063b50 f i libucrtd:output.obj
 0001:00062b50       ?has_flag@?$output_processor@_WV?$string_output_adapter@_W@__crt_stdio_output@@V?$format_validation_base@_WV?$string_output_adapter@_W@__crt_stdio_output@@@2@@__crt_stdio_output@@AEBA_NI@Z 0000000140063b50 f i libucrtd:output.obj
 0001:00062b90       ?is_string_backed@__crt_stdio_stream@@QEBA_NXZ 0000000140063b90 f i libucrtd:output.obj
 0001:00062bd0       ?maximum_signed_value@__crt_strtox@@YAJK@Z 0000000140063bd0 f i libucrtd:output.obj
 0001:00062be0       ?minimum_signed_value@__crt_strtox@@YAJK@Z 0000000140063be0 f i libucrtd:output.obj
 0001:00062bf0       ?narrow_null_string@?$output_processor@DV?$string_output_adapter@D@__crt_stdio_output@@V?$format_validation_base@DV?$string_output_adapter@D@__crt_stdio_output@@@2@@__crt_stdio_output@@CAPEADXZ 0000000140063bf0 f i libucrtd:output.obj
 0001:00062bf0       ?narrow_null_string@?$output_processor@_WV?$stream_output_adapter@_W@__crt_stdio_output@@V?$standard_base@_WV?$stream_output_adapter@_W@__crt_stdio_output@@@2@@__crt_stdio_output@@CAPEADXZ 0000000140063bf0 f i libucrtd:output.obj
 0001:00062bf0       ?narrow_null_string@?$output_processor@_WV?$string_output_adapter@_W@__crt_stdio_output@@V?$format_validation_base@_WV?$string_output_adapter@_W@__crt_stdio_output@@@2@@__crt_stdio_output@@CAPEADXZ 0000000140063bf0 f i libucrtd:output.obj
 0001:00062c00       ?parse_digit@__crt_strtox@@YAID@Z 0000000140063c00 f i libucrtd:output.obj
 0001:00062c70       ?parse_digit@__crt_strtox@@YAI_W@Z 0000000140063c70 f i libucrtd:output.obj
 0001:00062cc0       ?parse_int_from_format_string@?$output_processor@DV?$string_output_adapter@D@__crt_stdio_output@@V?$format_validation_base@DV?$string_output_adapter@D@__crt_stdio_output@@@2@@__crt_stdio_output@@AEAA_NQEAH@Z 0000000140063cc0 f i libucrtd:output.obj
 0001:00062dc0       ?parse_int_from_format_string@?$output_processor@_WV?$stream_output_adapter@_W@__crt_stdio_output@@V?$standard_base@_WV?$stream_output_adapter@_W@__crt_stdio_output@@@2@@__crt_stdio_output@@AEAA_NQEAH@Z 0000000140063dc0 f i libucrtd:output.obj
 0001:00062dc0       ?parse_int_from_format_string@?$output_processor@_WV?$string_output_adapter@_W@__crt_stdio_output@@V?$format_validation_base@_WV?$string_output_adapter@_W@__crt_stdio_output@@@2@@__crt_stdio_output@@AEAA_NQEAH@Z 0000000140063dc0 f i libucrtd:output.obj
 0001:00062ec0       ?process@?$output_processor@DV?$string_output_adapter@D@__crt_stdio_output@@V?$format_validation_base@DV?$string_output_adapter@D@__crt_stdio_output@@@2@@__crt_stdio_output@@QEAAHXZ 0000000140063ec0 f i libucrtd:output.obj
 0001:00063280       ?process@?$output_processor@_WV?$stream_output_adapter@_W@__crt_stdio_output@@V?$standard_base@_WV?$stream_output_adapter@_W@__crt_stdio_output@@@2@@__crt_stdio_output@@QEAAHXZ 0000000140064280 f i libucrtd:output.obj
 0001:00063640       ?process@?$output_processor@_WV?$string_output_adapter@_W@__crt_stdio_output@@V?$format_validation_base@_WV?$string_output_adapter@_W@__crt_stdio_output@@@2@@__crt_stdio_output@@QEAAHXZ 0000000140064640 f i libucrtd:output.obj
 0001:00063a00       ?restore_state@?$c_string_character_source@D@__crt_strtox@@QEAA_NQEBD@Z 0000000140064a00 f i libucrtd:output.obj
 0001:00063a00       ?restore_state@?$c_string_character_source@_W@__crt_strtox@@QEAA_NQEB_W@Z 0000000140064a00 f i libucrtd:output.obj
 0001:00063a20       ?set@?$cached@H@__crt_cached_ptd_host@@QEAAHH@Z 0000000140064a20 f i libucrtd:output.obj
 0001:00063a20       ?set@?$cached@K@__crt_cached_ptd_host@@QEAAKK@Z 0000000140064a20 f i libucrtd:errno.obj
 0001:00063a50       ?set_flag@?$output_processor@DV?$string_output_adapter@D@__crt_stdio_output@@V?$format_validation_base@DV?$string_output_adapter@D@__crt_stdio_output@@@2@@__crt_stdio_output@@AEAAXI@Z 0000000140064a50 f i libucrtd:output.obj
 0001:00063a50       ?set_flag@?$output_processor@_WV?$stream_output_adapter@_W@__crt_stdio_output@@V?$standard_base@_WV?$stream_output_adapter@_W@__crt_stdio_output@@@2@@__crt_stdio_output@@AEAAXI@Z 0000000140064a50 f i libucrtd:output.obj
 0001:00063a50       ?set_flag@?$output_processor@_WV?$string_output_adapter@_W@__crt_stdio_output@@V?$format_validation_base@_WV?$string_output_adapter@_W@__crt_stdio_output@@@2@@__crt_stdio_output@@AEAAXI@Z 0000000140064a50 f i libucrtd:output.obj
 0001:00063a70       ?should_format@?$standard_base@DV?$string_output_adapter@D@__crt_stdio_output@@@__crt_stdio_output@@IEAA_NXZ 0000000140064a70 f i libucrtd:output.obj
 0001:00063a70       ?should_format@?$standard_base@_WV?$stream_output_adapter@_W@__crt_stdio_output@@@__crt_stdio_output@@IEAA_NXZ 0000000140064a70 f i libucrtd:output.obj
 0001:00063a70       ?should_format@?$standard_base@_WV?$string_output_adapter@_W@__crt_stdio_output@@@__crt_stdio_output@@IEAA_NXZ 0000000140064a70 f i libucrtd:output.obj
 0001:00063a70       ?validate_and_update_state_at_beginning_of_format_character@?$standard_base@DV?$string_output_adapter@D@__crt_stdio_output@@@__crt_stdio_output@@IEAA_NXZ 0000000140064a70 f i libucrtd:output.obj
 0001:00063a70       ?validate_and_update_state_at_beginning_of_format_character@?$standard_base@_WV?$stream_output_adapter@_W@__crt_stdio_output@@@__crt_stdio_output@@IEAA_NXZ 0000000140064a70 f i libucrtd:output.obj
 0001:00063a70       ?validate_and_update_state_at_beginning_of_format_character@?$standard_base@_WV?$string_output_adapter@_W@__crt_stdio_output@@@__crt_stdio_output@@IEAA_NXZ 0000000140064a70 f i libucrtd:output.obj
 0001:00063a70       ?validate_and_update_state_at_end_of_format_string@?$standard_base@_WV?$stream_output_adapter@_W@__crt_stdio_output@@@__crt_stdio_output@@IEBA_NXZ 0000000140064a70 f i libucrtd:output.obj
 0001:00063a70       ?validate_state_for_type_case_a@?$standard_base@DV?$string_output_adapter@D@__crt_stdio_output@@@__crt_stdio_output@@IEBA_NXZ 0000000140064a70 f i libucrtd:output.obj
 0001:00063a70       ?validate_state_for_type_case_a@?$standard_base@_WV?$stream_output_adapter@_W@__crt_stdio_output@@@__crt_stdio_output@@IEBA_NXZ 0000000140064a70 f i libucrtd:output.obj
 0001:00063a70       ?validate_state_for_type_case_a@?$standard_base@_WV?$string_output_adapter@_W@__crt_stdio_output@@@__crt_stdio_output@@IEBA_NXZ 0000000140064a70 f i libucrtd:output.obj
 0001:00063a70       ?validate_stream_is_ansi_if_required@?$__acrt_stdio_char_traits@_W@@SA_NQEAU_iobuf@@@Z 0000000140064a70 f i libucrtd:output.obj
 0001:00063a80       ?state_case_dot@?$output_processor@DV?$string_output_adapter@D@__crt_stdio_output@@V?$format_validation_base@DV?$string_output_adapter@D@__crt_stdio_output@@@2@@__crt_stdio_output@@AEAA_NXZ 0000000140064a80 f i libucrtd:output.obj
 0001:00063a80       ?state_case_dot@?$output_processor@_WV?$stream_output_adapter@_W@__crt_stdio_output@@V?$standard_base@_WV?$stream_output_adapter@_W@__crt_stdio_output@@@2@@__crt_stdio_output@@AEAA_NXZ 0000000140064a80 f i libucrtd:output.obj
 0001:00063a80       ?state_case_dot@?$output_processor@_WV?$string_output_adapter@_W@__crt_stdio_output@@V?$format_validation_base@_WV?$string_output_adapter@_W@__crt_stdio_output@@@2@@__crt_stdio_output@@AEAA_NXZ 0000000140064a80 f i libucrtd:output.obj
 0001:00063aa0       ?state_case_flag@?$output_processor@DV?$string_output_adapter@D@__crt_stdio_output@@V?$format_validation_base@DV?$string_output_adapter@D@__crt_stdio_output@@@2@@__crt_stdio_output@@AEAA_NXZ 0000000140064aa0 f i libucrtd:output.obj
 0001:00063b40       ?state_case_flag@?$output_processor@_WV?$stream_output_adapter@_W@__crt_stdio_output@@V?$standard_base@_WV?$stream_output_adapter@_W@__crt_stdio_output@@@2@@__crt_stdio_output@@AEAA_NXZ 0000000140064b40 f i libucrtd:output.obj
 0001:00063b40       ?state_case_flag@?$output_processor@_WV?$string_output_adapter@_W@__crt_stdio_output@@V?$format_validation_base@_WV?$string_output_adapter@_W@__crt_stdio_output@@@2@@__crt_stdio_output@@AEAA_NXZ 0000000140064b40 f i libucrtd:output.obj
 0001:00063be0       ?state_case_normal@?$output_processor@DV?$string_output_adapter@D@__crt_stdio_output@@V?$format_validation_base@DV?$string_output_adapter@D@__crt_stdio_output@@@2@@__crt_stdio_output@@AEAA_NXZ 0000000140064be0 f i libucrtd:output.obj
 0001:00063ce0       ?state_case_normal@?$output_processor@_WV?$stream_output_adapter@_W@__crt_stdio_output@@V?$standard_base@_WV?$stream_output_adapter@_W@__crt_stdio_output@@@2@@__crt_stdio_output@@AEAA_NXZ 0000000140064ce0 f i libucrtd:output.obj
 0001:00063de0       ?state_case_normal@?$output_processor@_WV?$string_output_adapter@_W@__crt_stdio_output@@V?$format_validation_base@_WV?$string_output_adapter@_W@__crt_stdio_output@@@2@@__crt_stdio_output@@AEAA_NXZ 0000000140064de0 f i libucrtd:output.obj
 0001:00063ee0       ?state_case_normal_common@?$output_processor@DV?$string_output_adapter@D@__crt_stdio_output@@V?$format_validation_base@DV?$string_output_adapter@D@__crt_stdio_output@@@2@@__crt_stdio_output@@AEAA_NXZ 0000000140064ee0 f i libucrtd:output.obj
 0001:00063f40       ?state_case_normal_common@?$output_processor@_WV?$stream_output_adapter@_W@__crt_stdio_output@@V?$standard_base@_WV?$stream_output_adapter@_W@__crt_stdio_output@@@2@@__crt_stdio_output@@AEAA_NXZ 0000000140064f40 f i libucrtd:output.obj
 0001:00063fa0       ?state_case_normal_common@?$output_processor@_WV?$string_output_adapter@_W@__crt_stdio_output@@V?$format_validation_base@_WV?$string_output_adapter@_W@__crt_stdio_output@@@2@@__crt_stdio_output@@AEAA_NXZ 0000000140064fa0 f i libucrtd:output.obj
 0001:00064000       ?state_case_normal_tchar@?$output_processor@DV?$string_output_adapter@D@__crt_stdio_output@@V?$format_validation_base@DV?$string_output_adapter@D@__crt_stdio_output@@@2@@__crt_stdio_output@@AEAA_ND@Z 0000000140065000 f i libucrtd:output.obj
 0001:00064190       ?state_case_normal_tchar@?$output_processor@_WV?$stream_output_adapter@_W@__crt_stdio_output@@V?$standard_base@_WV?$stream_output_adapter@_W@__crt_stdio_output@@@2@@__crt_stdio_output@@AEAA_N_W@Z 0000000140065190 f i libucrtd:output.obj
 0001:00064190       ?state_case_normal_tchar@?$output_processor@_WV?$string_output_adapter@_W@__crt_stdio_output@@V?$format_validation_base@_WV?$string_output_adapter@_W@__crt_stdio_output@@@2@@__crt_stdio_output@@AEAA_N_W@Z 0000000140065190 f i libucrtd:output.obj
 0001:000641b0       ?state_case_percent@?$output_processor@DV?$string_output_adapter@D@__crt_stdio_output@@V?$format_validation_base@DV?$string_output_adapter@D@__crt_stdio_output@@@2@@__crt_stdio_output@@AEAA_NXZ 00000001400651b0 f i libucrtd:output.obj
 0001:000641b0       ?state_case_percent@?$output_processor@_WV?$stream_output_adapter@_W@__crt_stdio_output@@V?$standard_base@_WV?$stream_output_adapter@_W@__crt_stdio_output@@@2@@__crt_stdio_output@@AEAA_NXZ 00000001400651b0 f i libucrtd:output.obj
 0001:000641b0       ?state_case_percent@?$output_processor@_WV?$string_output_adapter@_W@__crt_stdio_output@@V?$format_validation_base@_WV?$string_output_adapter@_W@__crt_stdio_output@@@2@@__crt_stdio_output@@AEAA_NXZ 00000001400651b0 f i libucrtd:output.obj
 0001:00064200       ?state_case_precision@?$output_processor@DV?$string_output_adapter@D@__crt_stdio_output@@V?$format_validation_base@DV?$string_output_adapter@D@__crt_stdio_output@@@2@@__crt_stdio_output@@AEAA_NXZ 0000000140065200 f i libucrtd:output.obj
 0001:00064280       ?state_case_precision@?$output_processor@_WV?$stream_output_adapter@_W@__crt_stdio_output@@V?$standard_base@_WV?$stream_output_adapter@_W@__crt_stdio_output@@@2@@__crt_stdio_output@@AEAA_NXZ 0000000140065280 f i libucrtd:output.obj
 0001:00064280       ?state_case_precision@?$output_processor@_WV?$string_output_adapter@_W@__crt_stdio_output@@V?$format_validation_base@_WV?$string_output_adapter@_W@__crt_stdio_output@@@2@@__crt_stdio_output@@AEAA_NXZ 0000000140065280 f i libucrtd:output.obj
 0001:00064300       ?state_case_size@?$output_processor@DV?$string_output_adapter@D@__crt_stdio_output@@V?$format_validation_base@DV?$string_output_adapter@D@__crt_stdio_output@@@2@@__crt_stdio_output@@AEAA_NXZ 0000000140065300 f i libucrtd:output.obj
 0001:000647c0       ?state_case_size@?$output_processor@_WV?$stream_output_adapter@_W@__crt_stdio_output@@V?$standard_base@_WV?$stream_output_adapter@_W@__crt_stdio_output@@@2@@__crt_stdio_output@@AEAA_NXZ 00000001400657c0 f i libucrtd:output.obj
 0001:00064c80       ?state_case_size@?$output_processor@_WV?$string_output_adapter@_W@__crt_stdio_output@@V?$format_validation_base@_WV?$string_output_adapter@_W@__crt_stdio_output@@@2@@__crt_stdio_output@@AEAA_NXZ 0000000140065c80 f i libucrtd:output.obj
 0001:00065140       ?state_case_type@?$output_processor@DV?$string_output_adapter@D@__crt_stdio_output@@V?$format_validation_base@DV?$string_output_adapter@D@__crt_stdio_output@@@2@@__crt_stdio_output@@AEAA_NXZ 0000000140066140 f i libucrtd:output.obj
 0001:00065600       ?state_case_type@?$output_processor@_WV?$stream_output_adapter@_W@__crt_stdio_output@@V?$standard_base@_WV?$stream_output_adapter@_W@__crt_stdio_output@@@2@@__crt_stdio_output@@AEAA_NXZ 0000000140066600 f i libucrtd:output.obj
 0001:00065b90       ?state_case_type@?$output_processor@_WV?$string_output_adapter@_W@__crt_stdio_output@@V?$format_validation_base@_WV?$string_output_adapter@_W@__crt_stdio_output@@@2@@__crt_stdio_output@@AEAA_NXZ 0000000140066b90 f i libucrtd:output.obj
 0001:00066120       ?state_case_width@?$output_processor@DV?$string_output_adapter@D@__crt_stdio_output@@V?$format_validation_base@DV?$string_output_adapter@D@__crt_stdio_output@@@2@@__crt_stdio_output@@AEAA_NXZ 0000000140067120 f i libucrtd:output.obj
 0001:000661b0       ?state_case_width@?$output_processor@_WV?$stream_output_adapter@_W@__crt_stdio_output@@V?$standard_base@_WV?$stream_output_adapter@_W@__crt_stdio_output@@@2@@__crt_stdio_output@@AEAA_NXZ 00000001400671b0 f i libucrtd:output.obj
 0001:000661b0       ?state_case_width@?$output_processor@_WV?$string_output_adapter@_W@__crt_stdio_output@@V?$format_validation_base@_WV?$string_output_adapter@_W@__crt_stdio_output@@@2@@__crt_stdio_output@@AEAA_NXZ 00000001400671b0 f i libucrtd:output.obj
 0001:00066240       ?state_count@?$format_validation_base@DV?$string_output_adapter@D@__crt_stdio_output@@@__crt_stdio_output@@KAIXZ 0000000140067240 f i libucrtd:output.obj
 0001:00066240       ?state_count@?$format_validation_base@_WV?$string_output_adapter@_W@__crt_stdio_output@@@__crt_stdio_output@@KAIXZ 0000000140067240 f i libucrtd:output.obj
 0001:00066250       ?state_count@?$standard_base@_WV?$stream_output_adapter@_W@__crt_stdio_output@@@__crt_stdio_output@@KAIXZ 0000000140067250 f i libucrtd:output.obj
 0001:00066260       ?state_transition_table@?$format_validation_base@DV?$string_output_adapter@D@__crt_stdio_output@@@__crt_stdio_output@@KAAEBV?$spectre_mitigated_lookup_table@Ustate_transition_pair@__crt_stdio_output@@$0IA@@2@XZ 0000000140067260 f i libucrtd:output.obj
 0001:00066260       ?state_transition_table@?$format_validation_base@_WV?$string_output_adapter@_W@__crt_stdio_output@@@__crt_stdio_output@@KAAEBV?$spectre_mitigated_lookup_table@Ustate_transition_pair@__crt_stdio_output@@$0IA@@2@XZ 0000000140067260 f i libucrtd:output.obj
 0001:00066270       ?state_transition_table@?$standard_base@_WV?$stream_output_adapter@_W@__crt_stdio_output@@@__crt_stdio_output@@KAAEBV?$spectre_mitigated_lookup_table@Ustate_transition_pair@__crt_stdio_output@@$0IA@@2@XZ 0000000140067270 f i libucrtd:output.obj
 0001:00066280       ?tchar_string@?$common_data@D@__crt_stdio_output@@IEAAAEAPEADD@Z 0000000140067280 f i libucrtd:output.obj
 0001:000662a0       ?tchar_string@?$common_data@D@__crt_stdio_output@@IEAAAEAPEADXZ 00000001400672a0 f i libucrtd:output.obj
 0001:000662c0       ?tchar_string@?$common_data@_W@__crt_stdio_output@@IEAAAEAPEA_WXZ 00000001400672c0 f i libucrtd:output.obj
 0001:000662e0       ?tchar_string@?$common_data@_W@__crt_stdio_output@@IEAAAEAPEA_W_W@Z 00000001400672e0 f i libucrtd:output.obj
 0001:00066300       ?to_integer_size@__crt_stdio_output@@YA_KW4length_modifier@1@@Z 0000000140067300 f i libucrtd:output.obj
 0001:000663b0       ?type_case_X@?$output_processor@DV?$string_output_adapter@D@__crt_stdio_output@@V?$format_validation_base@DV?$string_output_adapter@D@__crt_stdio_output@@@2@@__crt_stdio_output@@AEAA_NXZ 00000001400673b0 f i libucrtd:output.obj
 0001:000663d0       ?type_case_X@?$output_processor@_WV?$stream_output_adapter@_W@__crt_stdio_output@@V?$standard_base@_WV?$stream_output_adapter@_W@__crt_stdio_output@@@2@@__crt_stdio_output@@AEAA_NXZ 00000001400673d0 f i libucrtd:output.obj
 0001:000663f0       ?type_case_X@?$output_processor@_WV?$string_output_adapter@_W@__crt_stdio_output@@V?$format_validation_base@_WV?$string_output_adapter@_W@__crt_stdio_output@@@2@@__crt_stdio_output@@AEAA_NXZ 00000001400673f0 f i libucrtd:output.obj
 0001:00066410       ?type_case_Z@?$output_processor@DV?$string_output_adapter@D@__crt_stdio_output@@V?$format_validation_base@DV?$string_output_adapter@D@__crt_stdio_output@@@2@@__crt_stdio_output@@AEAA_NXZ 0000000140067410 f i libucrtd:output.obj
 0001:00066530       ?type_case_Z@?$output_processor@_WV?$stream_output_adapter@_W@__crt_stdio_output@@V?$standard_base@_WV?$stream_output_adapter@_W@__crt_stdio_output@@@2@@__crt_stdio_output@@AEAA_NXZ 0000000140067530 f i libucrtd:output.obj
 0001:00066530       ?type_case_Z@?$output_processor@_WV?$string_output_adapter@_W@__crt_stdio_output@@V?$format_validation_base@_WV?$string_output_adapter@_W@__crt_stdio_output@@@2@@__crt_stdio_output@@AEAA_NXZ 0000000140067530 f i libucrtd:output.obj
 0001:00066650       ?type_case_a@?$output_processor@DV?$string_output_adapter@D@__crt_stdio_output@@V?$format_validation_base@DV?$string_output_adapter@D@__crt_stdio_output@@@2@@__crt_stdio_output@@AEAA_NXZ 0000000140067650 f i libucrtd:output.obj
 0001:00066ab0       ?type_case_a@?$output_processor@_WV?$stream_output_adapter@_W@__crt_stdio_output@@V?$standard_base@_WV?$stream_output_adapter@_W@__crt_stdio_output@@@2@@__crt_stdio_output@@AEAA_NXZ 0000000140067ab0 f i libucrtd:output.obj
 0001:00066ab0       ?type_case_a@?$output_processor@_WV?$string_output_adapter@_W@__crt_stdio_output@@V?$format_validation_base@_WV?$string_output_adapter@_W@__crt_stdio_output@@@2@@__crt_stdio_output@@AEAA_NXZ 0000000140067ab0 f i libucrtd:output.obj
 0001:00066f20       ?type_case_c@?$output_processor@DV?$string_output_adapter@D@__crt_stdio_output@@V?$format_validation_base@DV?$string_output_adapter@D@__crt_stdio_output@@@2@@__crt_stdio_output@@AEAA_NXZ 0000000140067f20 f i libucrtd:output.obj
 0001:00066f40       ?type_case_c@?$output_processor@_WV?$stream_output_adapter@_W@__crt_stdio_output@@V?$standard_base@_WV?$stream_output_adapter@_W@__crt_stdio_output@@@2@@__crt_stdio_output@@AEAA_NXZ 0000000140067f40 f i libucrtd:output.obj
 0001:00066f40       ?type_case_c@?$output_processor@_WV?$string_output_adapter@_W@__crt_stdio_output@@V?$format_validation_base@_WV?$string_output_adapter@_W@__crt_stdio_output@@@2@@__crt_stdio_output@@AEAA_NXZ 0000000140067f40 f i libucrtd:output.obj
 0001:00066f60       ?type_case_c_tchar@?$output_processor@DV?$string_output_adapter@D@__crt_stdio_output@@V?$format_validation_base@DV?$string_output_adapter@D@__crt_stdio_output@@@2@@__crt_stdio_output@@AEAA_ND@Z 0000000140067f60 f i libucrtd:output.obj
 0001:000670d0       ?type_case_c_tchar@?$output_processor@_WV?$stream_output_adapter@_W@__crt_stdio_output@@V?$standard_base@_WV?$stream_output_adapter@_W@__crt_stdio_output@@@2@@__crt_stdio_output@@AEAA_N_W@Z 00000001400680d0 f i libucrtd:output.obj
 0001:000670d0       ?type_case_c_tchar@?$output_processor@_WV?$string_output_adapter@_W@__crt_stdio_output@@V?$format_validation_base@_WV?$string_output_adapter@_W@__crt_stdio_output@@@2@@__crt_stdio_output@@AEAA_N_W@Z 00000001400680d0 f i libucrtd:output.obj
 0001:00067230       ?type_case_d@?$output_processor@DV?$string_output_adapter@D@__crt_stdio_output@@V?$format_validation_base@DV?$string_output_adapter@D@__crt_stdio_output@@@2@@__crt_stdio_output@@AEAA_NXZ 0000000140068230 f i libucrtd:output.obj
 0001:00067260       ?type_case_d@?$output_processor@_WV?$stream_output_adapter@_W@__crt_stdio_output@@V?$standard_base@_WV?$stream_output_adapter@_W@__crt_stdio_output@@@2@@__crt_stdio_output@@AEAA_NXZ 0000000140068260 f i libucrtd:output.obj
 0001:00067290       ?type_case_d@?$output_processor@_WV?$string_output_adapter@_W@__crt_stdio_output@@V?$format_validation_base@_WV?$string_output_adapter@_W@__crt_stdio_output@@@2@@__crt_stdio_output@@AEAA_NXZ 0000000140068290 f i libucrtd:output.obj
 0001:000672c0       ?type_case_n@?$output_processor@DV?$string_output_adapter@D@__crt_stdio_output@@V?$format_validation_base@DV?$string_output_adapter@D@__crt_stdio_output@@@2@@__crt_stdio_output@@AEAA_NXZ 00000001400682c0 f i libucrtd:output.obj
 0001:00067550       ?type_case_n@?$output_processor@_WV?$stream_output_adapter@_W@__crt_stdio_output@@V?$standard_base@_WV?$stream_output_adapter@_W@__crt_stdio_output@@@2@@__crt_stdio_output@@AEAA_NXZ 0000000140068550 f i libucrtd:output.obj
 0001:000677e0       ?type_case_n@?$output_processor@_WV?$string_output_adapter@_W@__crt_stdio_output@@V?$format_validation_base@_WV?$string_output_adapter@_W@__crt_stdio_output@@@2@@__crt_stdio_output@@AEAA_NXZ 00000001400687e0 f i libucrtd:output.obj
 0001:00067a70       ?type_case_o@?$output_processor@DV?$string_output_adapter@D@__crt_stdio_output@@V?$format_validation_base@DV?$string_output_adapter@D@__crt_stdio_output@@@2@@__crt_stdio_output@@AEAA_NXZ 0000000140068a70 f i libucrtd:output.obj
 0001:00067ab0       ?type_case_o@?$output_processor@_WV?$stream_output_adapter@_W@__crt_stdio_output@@V?$standard_base@_WV?$stream_output_adapter@_W@__crt_stdio_output@@@2@@__crt_stdio_output@@AEAA_NXZ 0000000140068ab0 f i libucrtd:output.obj
 0001:00067af0       ?type_case_o@?$output_processor@_WV?$string_output_adapter@_W@__crt_stdio_output@@V?$format_validation_base@_WV?$string_output_adapter@_W@__crt_stdio_output@@@2@@__crt_stdio_output@@AEAA_NXZ 0000000140068af0 f i libucrtd:output.obj
 0001:00067b30       ?type_case_p@?$output_processor@DV?$string_output_adapter@D@__crt_stdio_output@@V?$format_validation_base@DV?$string_output_adapter@D@__crt_stdio_output@@@2@@__crt_stdio_output@@AEAA_NXZ 0000000140068b30 f i libucrtd:output.obj
 0001:00067b70       ?type_case_p@?$output_processor@_WV?$stream_output_adapter@_W@__crt_stdio_output@@V?$standard_base@_WV?$stream_output_adapter@_W@__crt_stdio_output@@@2@@__crt_stdio_output@@AEAA_NXZ 0000000140068b70 f i libucrtd:output.obj
 0001:00067bb0       ?type_case_p@?$output_processor@_WV?$string_output_adapter@_W@__crt_stdio_output@@V?$format_validation_base@_WV?$string_output_adapter@_W@__crt_stdio_output@@@2@@__crt_stdio_output@@AEAA_NXZ 0000000140068bb0 f i libucrtd:output.obj
 0001:00067bf0       ?type_case_s@?$output_processor@DV?$string_output_adapter@D@__crt_stdio_output@@V?$format_validation_base@DV?$string_output_adapter@D@__crt_stdio_output@@@2@@__crt_stdio_output@@AEAA_NXZ 0000000140068bf0 f i libucrtd:output.obj
 0001:00067d10       ?type_case_s@?$output_processor@_WV?$stream_output_adapter@_W@__crt_stdio_output@@V?$standard_base@_WV?$stream_output_adapter@_W@__crt_stdio_output@@@2@@__crt_stdio_output@@AEAA_NXZ 0000000140068d10 f i libucrtd:output.obj
 0001:00067d10       ?type_case_s@?$output_processor@_WV?$string_output_adapter@_W@__crt_stdio_output@@V?$format_validation_base@_WV?$string_output_adapter@_W@__crt_stdio_output@@@2@@__crt_stdio_output@@AEAA_NXZ 0000000140068d10 f i libucrtd:output.obj
 0001:00067e30       ?type_case_s_compute_narrow_string_length@?$output_processor@DV?$string_output_adapter@D@__crt_stdio_output@@V?$format_validation_base@DV?$string_output_adapter@D@__crt_stdio_output@@@2@@__crt_stdio_output@@AEAAHHD@Z 0000000140068e30 f i libucrtd:output.obj
 0001:00067e60       ?type_case_s_compute_narrow_string_length@?$output_processor@_WV?$stream_output_adapter@_W@__crt_stdio_output@@V?$standard_base@_WV?$stream_output_adapter@_W@__crt_stdio_output@@@2@@__crt_stdio_output@@AEAAHH_W@Z 0000000140068e60 f i libucrtd:output.obj
 0001:00067e60       ?type_case_s_compute_narrow_string_length@?$output_processor@_WV?$string_output_adapter@_W@__crt_stdio_output@@V?$format_validation_base@_WV?$string_output_adapter@_W@__crt_stdio_output@@@2@@__crt_stdio_output@@AEAAHH_W@Z 0000000140068e60 f i libucrtd:output.obj
 0001:00067f00       ?type_case_u@?$output_processor@DV?$string_output_adapter@D@__crt_stdio_output@@V?$format_validation_base@DV?$string_output_adapter@D@__crt_stdio_output@@@2@@__crt_stdio_output@@AEAA_NXZ 0000000140068f00 f i libucrtd:output.obj
 0001:00067f20       ?type_case_u@?$output_processor@_WV?$stream_output_adapter@_W@__crt_stdio_output@@V?$standard_base@_WV?$stream_output_adapter@_W@__crt_stdio_output@@@2@@__crt_stdio_output@@AEAA_NXZ 0000000140068f20 f i libucrtd:output.obj
 0001:00067f40       ?type_case_u@?$output_processor@_WV?$string_output_adapter@_W@__crt_stdio_output@@V?$format_validation_base@_WV?$string_output_adapter@_W@__crt_stdio_output@@@2@@__crt_stdio_output@@AEAA_NXZ 0000000140068f40 f i libucrtd:output.obj
 0001:00067f60       ?type_case_x@?$output_processor@DV?$string_output_adapter@D@__crt_stdio_output@@V?$format_validation_base@DV?$string_output_adapter@D@__crt_stdio_output@@@2@@__crt_stdio_output@@AEAA_NXZ 0000000140068f60 f i libucrtd:output.obj
 0001:00067f80       ?type_case_x@?$output_processor@_WV?$stream_output_adapter@_W@__crt_stdio_output@@V?$standard_base@_WV?$stream_output_adapter@_W@__crt_stdio_output@@@2@@__crt_stdio_output@@AEAA_NXZ 0000000140068f80 f i libucrtd:output.obj
 0001:00067fa0       ?type_case_x@?$output_processor@_WV?$string_output_adapter@_W@__crt_stdio_output@@V?$format_validation_base@_WV?$string_output_adapter@_W@__crt_stdio_output@@@2@@__crt_stdio_output@@AEAA_NXZ 0000000140068fa0 f i libucrtd:output.obj
 0001:00067fc0       ?unget@?$c_string_character_source@D@__crt_strtox@@QEAAXD@Z 0000000140068fc0 f i libucrtd:output.obj
 0001:000680a0       ?unget@?$c_string_character_source@_W@__crt_strtox@@QEAAX_W@Z 00000001400690a0 f i libucrtd:output.obj
 0001:00068180       ?unset_flag@?$output_processor@DV?$string_output_adapter@D@__crt_stdio_output@@V?$format_validation_base@DV?$string_output_adapter@D@__crt_stdio_output@@@2@@__crt_stdio_output@@AEAAXI@Z 0000000140069180 f i libucrtd:output.obj
 0001:00068180       ?unset_flag@?$output_processor@_WV?$stream_output_adapter@_W@__crt_stdio_output@@V?$standard_base@_WV?$stream_output_adapter@_W@__crt_stdio_output@@@2@@__crt_stdio_output@@AEAAXI@Z 0000000140069180 f i libucrtd:output.obj
 0001:00068180       ?unset_flag@?$output_processor@_WV?$string_output_adapter@_W@__crt_stdio_output@@V?$format_validation_base@_WV?$string_output_adapter@_W@__crt_stdio_output@@@2@@__crt_stdio_output@@AEAAXI@Z 0000000140069180 f i libucrtd:output.obj
 0001:000681b0       ?update_field_width@?$standard_base@DV?$string_output_adapter@D@__crt_stdio_output@@@__crt_stdio_output@@IEAA_NXZ 00000001400691b0 f i libucrtd:output.obj
 0001:000681b0       ?update_field_width@?$standard_base@_WV?$stream_output_adapter@_W@__crt_stdio_output@@@__crt_stdio_output@@IEAA_NXZ 00000001400691b0 f i libucrtd:output.obj
 0001:000681b0       ?update_field_width@?$standard_base@_WV?$string_output_adapter@_W@__crt_stdio_output@@@__crt_stdio_output@@IEAA_NXZ 00000001400691b0 f i libucrtd:output.obj
 0001:000681e0       ?update_locale@__crt_cached_ptd_host@@AEAAXXZ 00000001400691e0 f i libucrtd:output.obj
 0001:00068210       ?update_locale_slow@__crt_cached_ptd_host@@AEAAXXZ 0000000140069210 f i libucrtd:output.obj
 0001:000682c0       ?update_precision@?$standard_base@DV?$string_output_adapter@D@__crt_stdio_output@@@__crt_stdio_output@@IEAA_NXZ 00000001400692c0 f i libucrtd:output.obj
 0001:000682c0       ?update_precision@?$standard_base@_WV?$stream_output_adapter@_W@__crt_stdio_output@@@__crt_stdio_output@@IEAA_NXZ 00000001400692c0 f i libucrtd:output.obj
 0001:000682c0       ?update_precision@?$standard_base@_WV?$string_output_adapter@_W@__crt_stdio_output@@@__crt_stdio_output@@IEAA_NXZ 00000001400692c0 f i libucrtd:output.obj
 0001:000682f0       ?validate@?$c_string_character_source@D@__crt_strtox@@QEBA_NXZ 00000001400692f0 f i libucrtd:output.obj
 0001:000683b0       ?validate@?$c_string_character_source@_W@__crt_strtox@@QEBA_NXZ 00000001400693b0 f i libucrtd:output.obj
 0001:00068470       ?validate@?$stream_output_adapter@_W@__crt_stdio_output@@QEBA_NAEAV__crt_cached_ptd_host@@@Z 0000000140069470 f i libucrtd:output.obj
 0001:00068570       ?validate@?$string_output_adapter@D@__crt_stdio_output@@QEBA_NAEAV__crt_cached_ptd_host@@@Z 0000000140069570 f i libucrtd:output.obj
 0001:00068650       ?validate@?$string_output_adapter@_W@__crt_stdio_output@@QEBA_NAEAV__crt_cached_ptd_host@@@Z 0000000140069650 f i libucrtd:output.obj
 0001:00068730       ?validate_and_update_state_at_end_of_format_string@?$format_validation_base@DV?$string_output_adapter@D@__crt_stdio_output@@@__crt_stdio_output@@IEAA_NXZ 0000000140069730 f i libucrtd:output.obj
 0001:00068820       ?validate_and_update_state_at_end_of_format_string@?$format_validation_base@_WV?$string_output_adapter@_W@__crt_stdio_output@@@__crt_stdio_output@@IEAA_NXZ 0000000140069820 f i libucrtd:output.obj
 0001:00068910       ?wide_character_to_digit@__crt_strtox@@YAH_W@Z 0000000140069910 f i libucrtd:output.obj
 0001:00068c80       ?wide_null_string@?$output_processor@DV?$string_output_adapter@D@__crt_stdio_output@@V?$format_validation_base@DV?$string_output_adapter@D@__crt_stdio_output@@@2@@__crt_stdio_output@@CAPEA_WXZ 0000000140069c80 f i libucrtd:output.obj
 0001:00068c80       ?wide_null_string@?$output_processor@_WV?$stream_output_adapter@_W@__crt_stdio_output@@V?$standard_base@_WV?$stream_output_adapter@_W@__crt_stdio_output@@@2@@__crt_stdio_output@@CAPEA_WXZ 0000000140069c80 f i libucrtd:output.obj
 0001:00068c80       ?wide_null_string@?$output_processor@_WV?$string_output_adapter@_W@__crt_stdio_output@@V?$format_validation_base@_WV?$string_output_adapter@_W@__crt_stdio_output@@@2@@__crt_stdio_output@@CAPEA_WXZ 0000000140069c80 f i libucrtd:output.obj
 0001:00068c90       ?write_character@?$output_adapter_common@_WV?$stream_output_adapter@_W@__crt_stdio_output@@@__crt_stdio_output@@QEBAX_WQEAHAEAV__crt_cached_ptd_host@@@Z 0000000140069c90 f i libucrtd:output.obj
 0001:00068cf0       ?write_character@?$string_output_adapter@D@__crt_stdio_output@@QEBA_NDQEAHAEAV__crt_cached_ptd_host@@@Z 0000000140069cf0 f i libucrtd:output.obj
 0001:00068dc0       ?write_character@?$string_output_adapter@_W@__crt_stdio_output@@QEBA_N_WQEAHAEAV__crt_cached_ptd_host@@@Z 0000000140069dc0 f i libucrtd:output.obj
 0001:00068e90       ?write_character_without_count_update@?$stream_output_adapter@_W@__crt_stdio_output@@QEBA_N_WAEAV__crt_cached_ptd_host@@@Z 0000000140069e90 f i libucrtd:output.obj
 0001:00068f20       ?write_stored_string_tchar@?$output_processor@DV?$string_output_adapter@D@__crt_stdio_output@@V?$format_validation_base@DV?$string_output_adapter@D@__crt_stdio_output@@@2@@__crt_stdio_output@@AEAA_ND@Z 0000000140069f20 f i libucrtd:output.obj
 0001:000690d0       ?write_stored_string_tchar@?$output_processor@_WV?$stream_output_adapter@_W@__crt_stdio_output@@V?$standard_base@_WV?$stream_output_adapter@_W@__crt_stdio_output@@@2@@__crt_stdio_output@@AEAA_N_W@Z 000000014006a0d0 f i libucrtd:output.obj
 0001:00069230       ?write_stored_string_tchar@?$output_processor@_WV?$string_output_adapter@_W@__crt_stdio_output@@V?$format_validation_base@_WV?$string_output_adapter@_W@__crt_stdio_output@@@2@@__crt_stdio_output@@AEAA_N_W@Z 000000014006a230 f i libucrtd:output.obj
 0001:00069390       ?write_string@?$stream_output_adapter@_W@__crt_stdio_output@@QEBAXQEB_WHQEAHAEAV__crt_cached_ptd_host@@@Z 000000014006a390 f i libucrtd:output.obj
 0001:00069410       ?write_string@?$string_output_adapter@D@__crt_stdio_output@@QEBAXQEBDHQEAHAEAV__crt_cached_ptd_host@@@Z 000000014006a410 f i libucrtd:output.obj
 0001:00069580       ?write_string@?$string_output_adapter@_W@__crt_stdio_output@@QEBAXQEB_WHQEAHAEAV__crt_cached_ptd_host@@@Z 000000014006a580 f i libucrtd:output.obj
 0001:000696f0       ?write_string_impl@?$output_adapter_common@_WV?$stream_output_adapter@_W@__crt_stdio_output@@@__crt_stdio_output@@IEBAXQEB_WHQEAHAEAV__crt_cached_ptd_host@@@Z 000000014006a6f0 f i libucrtd:output.obj
 0001:00069810       __acrt_isleadbyte_l_noupdate 000000014006a810 f i libucrtd:output.obj
 0001:00069840       __acrt_locale_get_ctype_array_value 000000014006a840 f i libucrtd:output.obj
 0001:00069880       __ascii_iswalpha           000000014006a880 f i libucrtd:output.obj
 0001:000698c0       __ascii_toupper            000000014006a8c0 f i libucrtd:output.obj
 0001:000698e0       __ascii_towupper           000000014006a8e0 f i libucrtd:output.obj
 0001:00069900       __stdio_common_vfwprintf   000000014006a900 f   libucrtd:output.obj
 0001:00069980       __stdio_common_vsnprintf_s 000000014006a980 f   libucrtd:output.obj
 0001:00069a10       __stdio_common_vsnwprintf_s 000000014006aa10 f   libucrtd:output.obj
 0001:00069aa0       __stdio_common_vsprintf_s  000000014006aaa0 f   libucrtd:output.obj
 0001:00069b30       __stdio_common_vswprintf_s 000000014006ab30 f   libucrtd:output.obj
 0001:00069bc0       _ctype_fast_check_internal 000000014006abc0 f i libucrtd:output.obj
 0001:00069bf0       _isdigit_fast_internal     000000014006abf0 f i libucrtd:output.obj
 0001:00069c20       _fgetwc_nolock             000000014006ac20 f   libucrtd:fgetwc.obj
 0001:0006a010       _getwc_nolock              000000014006b010 f   libucrtd:fgetwc.obj
 0001:0006a030       fgetwc                     000000014006b030 f   libucrtd:fgetwc.obj
 0001:0006a2f0       _fputwc_nolock_internal    000000014006b2f0 f   libucrtd:fputwc.obj
 0001:0006a5b0       fputwc                     000000014006b5b0 f   libucrtd:fputwc.obj
 0001:0006a600       ?has_all_of@__crt_stdio_stream@@QEBA_NJ@Z 000000014006b600 f i libucrtd:ungetwc.obj
 0001:0006a640       ?set_flags@__crt_stdio_stream@@QEBA_NJ@Z 000000014006b640 f i libucrtd:ungetwc.obj
 0001:0006ab30       ?unset_flags@__crt_stdio_stream@@QEBA_NJ@Z 000000014006bb30 f i libucrtd:ungetwc.obj
 0001:0006ab90       _ungetwc_nolock            000000014006bb90 f   libucrtd:ungetwc.obj
 0001:0006ad30       ungetwc                    000000014006bd30 f   libucrtd:ungetwc.obj
 0001:0006ae20       ??$?RG@__crt_internal_free_policy@@QEBAXQEBG@Z 000000014006be20 f i libucrtd:initctype.obj
 0001:0006ae20       ??$?RJ@__crt_internal_free_policy@@QEBAXQEBJ@Z 000000014006be20 f i libucrtd:initctype.obj
 0001:0006ae20       ??$?RP6AXXZ@__crt_internal_free_policy@@QEBAXQEBQ6AXXZ@Z 000000014006be20 f i libucrtd:onexit.obj
 0001:0006ae20       ??$?RPEAD@__crt_internal_free_policy@@QEBAXQEBQEAD@Z 000000014006be20 f i libucrtd:argv_parsing.obj
 0001:0006ae20       ??$?RPEAU__crt_stdio_stream_data@@@__crt_internal_free_policy@@QEBAXQEBQEAU__crt_stdio_stream_data@@@Z 000000014006be20 f i libucrtd:_file.obj
 0001:0006ae20       ??$?RPEA_W@__crt_internal_free_policy@@QEBAXQEBQEA_W@Z 000000014006be20 f i libucrtd:argv_parsing.obj
 0001:0006ae20       ??$?RU__acrt_ptd@@@__crt_internal_free_policy@@QEBAXQEBU__acrt_ptd@@@Z 000000014006be20 f i libucrtd:per_thread_data.obj
 0001:0006ae20       ??$?RU__crt_lc_time_data@@@__crt_internal_free_policy@@QEBAXQEBU__crt_lc_time_data@@@Z 000000014006be20 f i libucrtd:inittime.obj
 0001:0006ae20       ??$?RU__crt_locale_data@@@__crt_internal_free_policy@@QEBAXQEBU__crt_locale_data@@@Z 000000014006be20 f i libucrtd:wsetlocale.obj
 0001:0006ae20       ??$?RU__crt_lowio_handle_data@@@__crt_internal_free_policy@@QEBAXQEBU__crt_lowio_handle_data@@@Z 000000014006be20 f i libucrtd:osfinfo.obj
 0001:0006ae20       ??$?RU__crt_multibyte_data@@@__crt_internal_free_policy@@QEBAXQEBU__crt_multibyte_data@@@Z 000000014006be20 f i libucrtd:wsetlocale.obj
 0001:0006ae20       ??$?RU__crt_stdio_stream_data@@@__crt_internal_free_policy@@QEBAXQEBU__crt_stdio_stream_data@@@Z 000000014006be20 f i libucrtd:stream.obj
 0001:0006ae20       ??$?RUlconv@@@__crt_internal_free_policy@@QEBAXQEBUlconv@@@Z 000000014006be20 f i libucrtd:initmon.obj
 0001:0006ae20       ??$?R_W@__crt_internal_free_policy@@QEBAXQEB_W@Z 000000014006be20 f i libucrtd:system.obj
 0001:0006ae50       ??1?$__crt_unique_heap_ptr@$$CB_WU__crt_internal_free_policy@@@@QEAA@XZ 000000014006be50 f i libucrtd:spawnv.obj
 0001:0006ae50       ??1?$__crt_unique_heap_ptr@GU__crt_internal_free_policy@@@@QEAA@XZ 000000014006be50 f i libucrtd:initctype.obj
 0001:0006ae50       ??1?$__crt_unique_heap_ptr@JU__crt_internal_free_policy@@@@QEAA@XZ 000000014006be50 f i libucrtd:initctype.obj
 0001:0006ae50       ??1?$__crt_unique_heap_ptr@P6AXXZU__crt_internal_free_policy@@@@QEAA@XZ 000000014006be50 f i libucrtd:onexit.obj
 0001:0006ae50       ??1?$__crt_unique_heap_ptr@PEADU__crt_internal_free_policy@@@@QEAA@XZ 000000014006be50 f i libucrtd:argv_parsing.obj
 0001:0006ae50       ??1?$__crt_unique_heap_ptr@PEAU__crt_stdio_stream_data@@U__crt_internal_free_policy@@@@QEAA@XZ 000000014006be50 f i libucrtd:_file.obj
 0001:0006ae50       ??1?$__crt_unique_heap_ptr@PEA_WU__crt_internal_free_policy@@@@QEAA@XZ 000000014006be50 f i libucrtd:argv_parsing.obj
 0001:0006ae50       ??1?$__crt_unique_heap_ptr@U__acrt_ptd@@U__crt_internal_free_policy@@@@QEAA@XZ 000000014006be50 f i libucrtd:per_thread_data.obj
 0001:0006ae50       ??1?$__crt_unique_heap_ptr@U__crt_lc_time_data@@U__crt_internal_free_policy@@@@QEAA@XZ 000000014006be50 f i libucrtd:inittime.obj
 0001:0006ae50       ??1?$__crt_unique_heap_ptr@U__crt_locale_data@@U__crt_internal_free_policy@@@@QEAA@XZ 000000014006be50 f i libucrtd:wsetlocale.obj
 0001:0006ae50       ??1?$__crt_unique_heap_ptr@U__crt_lowio_handle_data@@U__crt_internal_free_policy@@@@QEAA@XZ 000000014006be50 f i libucrtd:osfinfo.obj
 0001:0006ae50       ??1?$__crt_unique_heap_ptr@U__crt_multibyte_data@@U__crt_internal_free_policy@@@@QEAA@XZ 000000014006be50 f i libucrtd:wsetlocale.obj
 0001:0006ae50       ??1?$__crt_unique_heap_ptr@U__crt_stdio_stream_data@@U__crt_internal_free_policy@@@@QEAA@XZ 000000014006be50 f i libucrtd:stream.obj
 0001:0006ae50       ??1?$__crt_unique_heap_ptr@Ulconv@@U__crt_internal_free_policy@@@@QEAA@XZ 000000014006be50 f i libucrtd:initmon.obj
 0001:0006ae50       ??1?$__crt_unique_heap_ptr@_WU__crt_internal_free_policy@@@@QEAA@XZ 000000014006be50 f i libucrtd:system.obj
 0001:0006ae70       ?release@?$__crt_unique_heap_ptr@$$CB_WU__crt_internal_free_policy@@@@QEAAXXZ 000000014006be70 f i libucrtd:spawnv.obj
 0001:0006ae70       ?release@?$__crt_unique_heap_ptr@GU__crt_internal_free_policy@@@@QEAAXXZ 000000014006be70 f i libucrtd:initctype.obj
 0001:0006ae70       ?release@?$__crt_unique_heap_ptr@JU__crt_internal_free_policy@@@@QEAAXXZ 000000014006be70 f i libucrtd:initctype.obj
 0001:0006ae70       ?release@?$__crt_unique_heap_ptr@P6AXXZU__crt_internal_free_policy@@@@QEAAXXZ 000000014006be70 f i libucrtd:onexit.obj
 0001:0006ae70       ?release@?$__crt_unique_heap_ptr@PEADU__crt_internal_free_policy@@@@QEAAXXZ 000000014006be70 f i libucrtd:argv_parsing.obj
 0001:0006ae70       ?release@?$__crt_unique_heap_ptr@PEAU__crt_stdio_stream_data@@U__crt_internal_free_policy@@@@QEAAXXZ 000000014006be70 f i libucrtd:_file.obj
 0001:0006ae70       ?release@?$__crt_unique_heap_ptr@PEA_WU__crt_internal_free_policy@@@@QEAAXXZ 000000014006be70 f i libucrtd:argv_parsing.obj
 0001:0006ae70       ?release@?$__crt_unique_heap_ptr@U__acrt_ptd@@U__crt_internal_free_policy@@@@QEAAXXZ 000000014006be70 f i libucrtd:per_thread_data.obj
 0001:0006ae70       ?release@?$__crt_unique_heap_ptr@U__crt_lc_time_data@@U__crt_internal_free_policy@@@@QEAAXXZ 000000014006be70 f i libucrtd:inittime.obj
 0001:0006ae70       ?release@?$__crt_unique_heap_ptr@U__crt_locale_data@@U__crt_internal_free_policy@@@@QEAAXXZ 000000014006be70 f i libucrtd:wsetlocale.obj
 0001:0006ae70       ?release@?$__crt_unique_heap_ptr@U__crt_lowio_handle_data@@U__crt_internal_free_policy@@@@QEAAXXZ 000000014006be70 f i libucrtd:osfinfo.obj
 0001:0006ae70       ?release@?$__crt_unique_heap_ptr@U__crt_multibyte_data@@U__crt_internal_free_policy@@@@QEAAXXZ 000000014006be70 f i libucrtd:wsetlocale.obj
 0001:0006ae70       ?release@?$__crt_unique_heap_ptr@U__crt_stdio_stream_data@@U__crt_internal_free_policy@@@@QEAAXXZ 000000014006be70 f i libucrtd:stream.obj
 0001:0006ae70       ?release@?$__crt_unique_heap_ptr@Ulconv@@U__crt_internal_free_policy@@@@QEAAXXZ 000000014006be70 f i libucrtd:initmon.obj
 0001:0006ae70       ?release@?$__crt_unique_heap_ptr@_WU__crt_internal_free_policy@@@@QEAAXXZ 000000014006be70 f i libucrtd:system.obj
 0001:0006aea0       __acrt_initialize_stdio    000000014006bea0 f   libucrtd:_file.obj
 0001:0006b090       __acrt_iob_func            000000014006c090 f   libucrtd:_file.obj
 0001:0006b0b0       __acrt_uninitialize_stdio  000000014006c0b0 f   libucrtd:_file.obj
 0001:0006b140       _get_stream_buffer_pointers 000000014006c140 f   libucrtd:_file.obj
 0001:0006b270       _lock_file                 000000014006c270 f   libucrtd:_file.obj
 0001:0006b2b0       _unlock_file               000000014006c2b0 f   libucrtd:_file.obj
 0001:0006b600       ?is_in_use@__crt_stdio_stream@@QEBA_NXZ 000000014006c600 f i libucrtd:fclose.obj
 0001:0006b640       fclose                     000000014006c640 f   libucrtd:fclose.obj
 0001:0006bb50       ?__acrt_stdio_reset_buffer@@YAXV__crt_stdio_stream@@@Z 000000014006cb50 f i libucrtd:fflush.obj
 0001:0006bdc0       __acrt_stdio_flush_nolock  000000014006cdc0 f   libucrtd:fflush.obj
 0001:0006bee0       _fflush_nolock             000000014006cee0 f   libucrtd:fflush.obj
 0001:0006bf20       _flushall                  000000014006cf20 f   libucrtd:fflush.obj
 0001:0006bf30       fflush                     000000014006cf30 f   libucrtd:fflush.obj
 0001:0006bfc0       _fgetc_nolock              000000014006cfc0 f   libucrtd:fgetc.obj
 0001:0006c120       _getc_nolock               000000014006d120 f   libucrtd:fgetc.obj
 0001:0006c140       fgetc                      000000014006d140 f   libucrtd:fgetc.obj
 0001:0006c400       fgetpos                    000000014006d400 f   libucrtd:fgetpos.obj
 0001:0006c590       fsetpos                    000000014006d590 f   libucrtd:fsetpos.obj
 0001:0006c710       ?LongLongSub@@YAJ_J0PEA_J@Z 000000014006d710 f i libucrtd:fseek.obj
 0001:0006ce20       ?has_any_buffer@__crt_stdio_stream@@QEBA_NXZ 000000014006de20 f i libucrtd:fseek.obj
 0001:0006ce40       ?has_any_of@__crt_stdio_stream@@QEBA_NJ@Z 000000014006de40 f i libucrtd:fseek.obj
 0001:0006ce80       ?lowio_handle@__crt_stdio_stream@@QEBAHXZ 000000014006de80 f i libucrtd:fseek.obj
 0001:0006ceb0       _fseeki64                  000000014006deb0 f   libucrtd:fseek.obj
 0001:0006cf20       fseek                      000000014006df20 f   libucrtd:fseek.obj
 0001:0006d0e0       ?has_big_buffer@__crt_stdio_stream@@QEBA_NXZ 000000014006e0e0 f i libucrtd:fwrite.obj
 0001:0006d100       _fwrite_internal           000000014006e100 f   libucrtd:fwrite.obj
 0001:0006d270       _fwrite_nolock_internal    000000014006e270 f   libucrtd:fwrite.obj
 0001:0006daa0       fwrite                     000000014006eaa0 f   libucrtd:fwrite.obj
 0001:0006e170       setvbuf                    000000014006f170 f   libucrtd:setvbuf.obj
 0001:0006e1e0       _ungetc_nolock             000000014006f1e0 f   libucrtd:ungetc.obj
 0001:0006e580       ungetc                     000000014006f580 f   libucrtd:ungetc.obj
 0001:0006eb70       wcscpy_s                   000000014006fb70 f   libucrtd:wcscpy_s.obj
 0001:0006ecf0       strcspn                    000000014006fcf0 f   libucrtd:strcspn.obj
 0001:0006f610       strlen                     0000000140070610 f   libucrtd:strlen.obj
 0001:0006f6c0       _dtest                     00000001400706c0 f   libucrtd:_test.obj
 0001:0006f810       _ldtest                    0000000140070810 f   libucrtd:_test.obj
 0001:0006f830       abs                        0000000140070830 f   libucrtd:abs.obj
 0001:0006f830       labs                       0000000140070830 f   libucrtd:labs.obj
 0001:0006f880       fabs                       0000000140070880 f   libucrtd:fabs.obj
 0001:0006f8a0       frexp                      00000001400708a0 f   libucrtd:frexp.obj
 0001:0006fac0       free                       0000000140070ac0 f   libucrtd:free.obj
 0001:0006faf0       localeconv                 0000000140070af0 f   libucrtd:localeconv.obj
 0001:000701e0       wcsncpy_s                  00000001400711e0 f   libucrtd:wcsncpy_s.obj
 0001:00070220       wcscmp                     0000000140071220 f   libucrtd:wcscmp.obj
 0001:000702c0       ??$parse_integer@KV?$c_string_character_source@_W@__crt_strtox@@$00@__crt_strtox@@YAKAEAV__crt_cached_ptd_host@@V?$c_string_character_source@_W@0@H_N@Z 00000001400712c0 f i libucrtd:atox.obj
 0001:00070790       ??$parse_integer_from_string@J_W$$T@__crt_strtox@@YAJQEB_W$$THQEAU__crt_locale_pointers@@@Z 0000000140071790 f i libucrtd:atox.obj
 0001:00070820       ?is_space@__crt_strtox@@YA_N_WPEAU__crt_locale_pointers@@@Z 0000000140071820 f i libucrtd:atox.obj
 0001:00070860       _wtoi                      0000000140071860 f   libucrtd:atox.obj
 0001:00070860       _wtol                      0000000140071860 f   libucrtd:atox.obj
 0001:00070bc0       ??$taccess_s@AEAPEB_WH@?$__crt_char_traits@_W@@SAHAEAPEB_W$$QEAH@Z 0000000140071bc0 f i libucrtd:spawnv.obj
 0001:00070bc0       ??$taccess_s@PEA_WH@?$__crt_char_traits@_W@@SAH$$QEAPEA_W$$QEAH@Z 0000000140071bc0 f i libucrtd:system.obj
 0001:00070bf0       ??$tdupenv_s_crt@PEAPEA_W$$TAEAY04$$CB_W@?$__crt_char_traits@_W@@SAH$$QEAPEAPEA_W$$QEA$$TAEAY04$$CB_W@Z 0000000140071bf0 f i libucrtd:spawnvp.obj
 0001:00070bf0       ??$tdupenv_s_crt@PEAPEA_W$$TAEAY07$$CB_W@?$__crt_char_traits@_W@@SAH$$QEAPEAPEA_W$$QEA$$TAEAY07$$CB_W@Z 0000000140071bf0 f i libucrtd:system.obj
 0001:00070bf0       ??$tdupenv_s_crt@PEAPEA_W$$TAEAY0L@$$CB_W@?$__crt_char_traits@_W@@SAH$$QEAPEAPEA_W$$QEA$$TAEAY0L@$$CB_W@Z 0000000140071bf0 f i libucrtd:cenvarg.obj
 0001:00070c40       ??$tspawnve@HAEAPEB_WAEAY03PEB_W$$T@?$__crt_char_traits@_W@@SA_J$$QEAHAEAPEB_WAEAY03PEB_W$$QEA$$T@Z 0000000140071c40 f i libucrtd:system.obj
 0001:00070c80       ??$tspawnvpe@HAEAPEB_WAEAY03PEB_W$$T@?$__crt_char_traits@_W@@SA_J$$QEAHAEAPEB_WAEAY03PEB_W$$QEA$$T@Z 0000000140071c80 f i libucrtd:system.obj
 0001:00070cc0       _wsystem                   0000000140071cc0 f   libucrtd:system.obj
 0001:00070ce0       __acrt_initialize_command_line 0000000140071ce0 f   libucrtd:argv_data.obj
 0001:00070d10       __acrt_uninitialize_command_line 0000000140071d10 f   libucrtd:argv_data.obj
 0001:00070d20       __p___argc                 0000000140071d20 f   libucrtd:argv_data.obj
 0001:00070d30       __p___wargv                0000000140071d30 f   libucrtd:argv_data.obj
 0001:00071080       ??$getc_nolock@PEAU_iobuf@@@?$__crt_char_traits@_W@@SAG$$QEAPEAU_iobuf@@@Z 0000000140072080 f i libucrtd:fgets.obj
 0001:000710a0       fgetws                     00000001400720a0 f   libucrtd:fgets.obj
 0001:00071480       ??$open_file@AEBQEB_WAEBQEB_WAEBHPEAU_iobuf@@@?$__crt_char_traits@_W@@SAPEAU_iobuf@@AEBQEB_W0AEBH$$QEAPEAU1@@Z 0000000140072480 f i libucrtd:fopen.obj
 0001:000714d0       ?unlock@__crt_stdio_stream@@QEBAXXZ 00000001400724d0 f i libucrtd:fopen.obj
 0001:000714f0       _wfopen_s                  00000001400724f0 f   libucrtd:fopen.obj
 0001:00071520       _wfsopen                   0000000140072520 f   libucrtd:fopen.obj
 0001:00071550       __ascii_wcsnicmp           0000000140072550 f   libucrtd:wcsnicmp.obj
 0001:00071620       _wcsnicmp                  0000000140072620 f   libucrtd:wcsnicmp.obj
 0001:000717d0       _wcsnicmp_l                00000001400727d0 f   libucrtd:wcsnicmp.obj
 0001:00071af0       __acrt_initialize_locks    0000000140072af0 f   libucrtd:locks.obj
 0001:00071b60       __acrt_lock                0000000140072b60 f   libucrtd:locks.obj
 0001:00071b90       __acrt_uninitialize_locks  0000000140072b90 f   libucrtd:locks.obj
 0001:00071bf0       __acrt_unlock              0000000140072bf0 f   libucrtd:locks.obj
 0001:00071c20       _lock_locales              0000000140072c20 f   libucrtd:locks.obj
 0001:00071c40       _unlock_locales            0000000140072c40 f   libucrtd:locks.obj
 0001:00072130       __acrt_should_sync_with_global_locale 0000000140073130 f i libucrtd:setlocale.obj
 0001:00072330       setlocale                  0000000140073330 f   libucrtd:setlocale.obj
 0001:00072370       _wcsdup_dbg                0000000140073370 f   libucrtd:wcsdup.obj
 0001:00072430       __pctype_func              0000000140073430 f   libucrtd:ctype.obj
 0001:00072470       ___lc_codepage_func        0000000140073470 f   libucrtd:initctype.obj
 0001:000724b0       ___lc_locale_name_func     00000001400734b0 f   libucrtd:initctype.obj
 0001:000724f0       ___mb_cur_max_func         00000001400734f0 f   libucrtd:initctype.obj
 0001:00072530       __acrt_locale_initialize_ctype 0000000140073530 f   libucrtd:initctype.obj
 0001:00072fe0       ?get_doserrno@__crt_cached_ptd_host@@QEAA@XZ 0000000140073fe0 f i libucrtd:errno.obj
 0001:00072ff0       __acrt_errno_from_os_error 0000000140073ff0 f   libucrtd:errno.obj
 0001:00073080       __acrt_errno_map_os_error  0000000140074080 f   libucrtd:errno.obj
 0001:000730b0       __acrt_errno_map_os_error_ptd 00000001400740b0 f   libucrtd:errno.obj
 0001:00073110       __doserrno                 0000000140074110 f   libucrtd:errno.obj
 0001:00073140       _errno                     0000000140074140 f   libucrtd:errno.obj
 0001:00073170       ??0big_integer@__crt_strtox@@QEAA@AEBU01@@Z 0000000140074170 f i libucrtd:strtod.obj
 0001:00073170       ??4big_integer@__crt_strtox@@QEAAAEAU01@AEBU01@@Z 0000000140074170 f i libucrtd:strtod.obj
 0001:000731d0       ??0big_integer@__crt_strtox@@QEAA@XZ 00000001400741d0 f i libucrtd:strtod.obj
 0001:00073210       ?add_carry@__crt_strtox@@YAIAEAIII@Z 0000000140074210 f i libucrtd:strtod.obj
 0001:00073260       ?add_multiply_carry@__crt_strtox@@YAIAEAIIII@Z 0000000140074260 f i libucrtd:strtod.obj
 0001:000732c0       ?bit_scan_reverse@__crt_strtox@@YAII@Z 00000001400742c0 f i libucrtd:strtod.obj
 0001:00073300       ?count_sequential_high_zeroes@__crt_strtox@@YAII@Z 0000000140074300 f i libucrtd:strtod.obj
 0001:00073340       ?divide@__crt_strtox@@YA_KAEAUbig_integer@1@AEBU21@@Z 0000000140074340 f i libucrtd:strtod.obj
 0001:00073d10       ?make_big_integer@__crt_strtox@@YA?AUbig_integer@1@_K@Z 0000000140074d10 f i libucrtd:strtod.obj
 0001:00073de0       ?multiply@__crt_strtox@@YA_NAEAUbig_integer@1@AEBU21@@Z 0000000140074de0 f i libucrtd:strtod.obj
 0001:00074160       ?multiply@__crt_strtox@@YA_NAEAUbig_integer@1@I@Z 0000000140075160 f i libucrtd:strtod.obj
 0001:00074280       ?multiply_64_32@__crt_strtox@@YA_K_KI@Z 0000000140075280 f i libucrtd:strtod.obj
 0001:000742a0       ?multiply_by_power_of_ten@__crt_strtox@@YA_NAEAUbig_integer@1@I@Z 00000001400752a0 f i libucrtd:strtod.obj
 0001:00074450       ?multiply_core@__crt_strtox@@YAIQEAIII@Z 0000000140075450 f i libucrtd:strtod.obj
 0001:000744d0       ?shift_left@__crt_strtox@@YA_NAEAUbig_integer@1@I@Z 00000001400754d0 f i libucrtd:strtod.obj
 0001:000747b0       ?should_round_up@__crt_strtox@@YA_N_N000@Z 00000001400757b0 f i libucrtd:strtod.obj
 0001:00074a30       strcmp                     0000000140075a30 f   libucrtd:strcmp.obj
 0001:00074aa0       abort                      0000000140075aa0 f   libucrtd:abort.obj
 0001:00074b20       __strncnt                  0000000140075b20 f   libucrtd:strncnt.obj
 0001:00074b80       ??$__acrt_convert_wcs_mbs_cp@D_WV<lambda_7c9dea7b4ca7285d2cdb541a38da6275>@@U__crt_win32_buffer_internal_dynamic_resizing@@@@YAHQEBDAEAV?$__crt_win32_buffer@_WU__crt_win32_buffer_internal_dynamic_resizing@@@@AEBV<lambda_7c9dea7b4ca7285d2cdb541a38da6275>@@I@Z 0000000140075b80 f i libucrtd:strftime.obj
 0001:00074d30       ??$__acrt_convert_wcs_mbs_cp@_WDV<lambda_f788ae46380686e8b737efdd8c720d07>@@U__crt_win32_buffer_no_resizing@@@@YAHQEB_WAEAV?$__crt_win32_buffer@DU__crt_win32_buffer_no_resizing@@@@AEBV<lambda_f788ae46380686e8b737efdd8c720d07>@@I@Z 0000000140075d30 f i libucrtd:strftime.obj
 0001:00074ee0       ??$__acrt_mbs_to_wcs_cp@U__crt_win32_buffer_internal_dynamic_resizing@@@@YAHQEBDAEAV?$__crt_win32_buffer@_WU__crt_win32_buffer_internal_dynamic_resizing@@@@I@Z 0000000140075ee0 f i libucrtd:strftime.obj
 0001:00074f30       ??$__acrt_wcs_to_mbs_cp@U__crt_win32_buffer_no_resizing@@@@YAHQEB_WAEAV?$__crt_win32_buffer@DU__crt_win32_buffer_no_resizing@@@@I@Z 0000000140075f30 f i libucrtd:strftime.obj
 0001:00074f80       ??0?$__crt_win32_buffer@DU__crt_win32_buffer_no_resizing@@@@QEAA@QEAD_K@Z 0000000140075f80 f i libucrtd:strftime.obj
 0001:00074ff0       ??0?$__crt_win32_buffer@DU__crt_win32_buffer_internal_dynamic_resizing@@@@QEAA@XZ 0000000140075ff0 f i libucrtd:argv_wildcards.obj
 0001:00074ff0       ??0?$__crt_win32_buffer@_WU__crt_win32_buffer_internal_dynamic_resizing@@@@QEAA@XZ 0000000140075ff0 f i libucrtd:strftime.obj
 0001:00075050       ??1?$__crt_win32_buffer@DU__crt_win32_buffer_no_resizing@@@@QEAA@XZ 0000000140076050 f i libucrtd:strftime.obj
 0001:00075080       ??1?$__crt_win32_buffer@DU__crt_win32_buffer_internal_dynamic_resizing@@@@QEAA@XZ 0000000140076080 f i libucrtd:argv_wildcards.obj
 0001:00075080       ??1?$__crt_win32_buffer@_WU__crt_win32_buffer_internal_dynamic_resizing@@@@QEAA@XZ 0000000140076080 f i libucrtd:strftime.obj
 0001:000750b0       ??R<lambda_7c9dea7b4ca7285d2cdb541a38da6275>@@QEBA@IQEBDQEA_W_K@Z 00000001400760b0 f i libucrtd:strftime.obj
 0001:00075100       ??R<lambda_d8593a27d1aa8c02be35c86a17d324c4>@@QEBA@IQEB_WQEAD_K@Z 0000000140076100 f i libucrtd:argv_wildcards.obj
 0001:00075100       ??R<lambda_f788ae46380686e8b737efdd8c720d07>@@QEBA@IQEB_WQEAD_K@Z 0000000140076100 f i libucrtd:strftime.obj
 0001:00075160       ?_deallocate@?$__crt_win32_buffer@DU__crt_win32_buffer_no_resizing@@@@AEAAXXZ 0000000140076160 f i libucrtd:strftime.obj
 0001:000751b0       ?_deallocate@?$__crt_win32_buffer@DU__crt_win32_buffer_internal_dynamic_resizing@@@@AEAAXXZ 00000001400761b0 f i libucrtd:argv_wildcards.obj
 0001:000751b0       ?_deallocate@?$__crt_win32_buffer@_WU__crt_win32_buffer_internal_dynamic_resizing@@@@AEAAXXZ 00000001400761b0 f i libucrtd:strftime.obj
 0001:00075200       ?allocate@?$__crt_win32_buffer@DU__crt_win32_buffer_no_resizing@@@@QEAAH_K@Z 0000000140076200 f i libucrtd:strftime.obj
 0001:00075280       ?allocate@?$__crt_win32_buffer@_WU__crt_win32_buffer_internal_dynamic_resizing@@@@QEAAH_K@Z 0000000140076280 f i libucrtd:strftime.obj
 0001:00075310       ?allocate@__crt_win32_buffer_internal_dynamic_resizing@@SAHQEAPEAX_KAEBV__crt_win32_buffer_empty_debug_info@@@Z 0000000140076310 f i libucrtd:strftime.obj
 0001:00075370       ?allocate@__crt_win32_buffer_no_resizing@@SAHQEAPEAX_KAEBV__crt_win32_buffer_empty_debug_info@@@Z 0000000140076370 f i libucrtd:strftime.obj
 0001:000753a0       ?deallocate@__crt_win32_buffer_internal_dynamic_resizing@@SAXQEAXAEBV__crt_win32_buffer_empty_debug_info@@@Z 00000001400763a0 f i libucrtd:strftime.obj
 0001:000753d0       ?set_to_nullptr@?$__crt_win32_buffer@DU__crt_win32_buffer_no_resizing@@@@QEAAXXZ 00000001400763d0 f i libucrtd:strftime.obj
 0001:00075410       ?set_to_nullptr@?$__crt_win32_buffer@DU__crt_win32_buffer_internal_dynamic_resizing@@@@QEAAXXZ 0000000140076410 f i libucrtd:argv_wildcards.obj
 0001:00075410       ?set_to_nullptr@?$__crt_win32_buffer@_WU__crt_win32_buffer_internal_dynamic_resizing@@@@QEAAXXZ 0000000140076410 f i libucrtd:strftime.obj
 0001:00075450       ?size@?$__crt_win32_buffer@DU__crt_win32_buffer_internal_dynamic_resizing@@@@QEAAX_K@Z 0000000140076450 f i libucrtd:argv_wildcards.obj
 0001:00075450       ?size@?$__crt_win32_buffer@DU__crt_win32_buffer_no_resizing@@@@QEAAX_K@Z 0000000140076450 f i libucrtd:strftime.obj
 0001:00075450       ?size@?$__crt_win32_buffer@_WU__crt_win32_buffer_internal_dynamic_resizing@@@@QEAAX_K@Z 0000000140076450 f i libucrtd:strftime.obj
 0001:00075470       _isleadbyte_fast_internal  0000000140076470 f i libucrtd:tolower_toupper.obj
 0001:000754a0       ?__crt_fast_encode_pointer@@YA?AU__crt_fast_encoded_nullptr_t@@$$T@Z 00000001400764a0 f i libucrtd:new_handler.obj
 0001:000754c0       ?initialize@?$dual_state_global@P6AHPEAU_exception@@@Z@__crt_state_management@@QEAAXQ6AHPEAU_exception@@@Z@Z 00000001400764c0 f i libucrtd:matherr.obj
 0001:000754c0       ?initialize@?$dual_state_global@P6AH_K@Z@__crt_state_management@@QEAAXQ6AH_K@Z@Z 00000001400764c0 f i libucrtd:new_handler.obj
 0001:000754c0       ?initialize@?$dual_state_global@P6AXH@Z@__crt_state_management@@QEAAXQ6AXH@Z@Z 00000001400764c0 f i libucrtd:signal.obj
 0001:000754c0       ?initialize@?$dual_state_global@PEAPEAD@__crt_state_management@@QEAAXQEAPEAD@Z 00000001400764c0 f i libucrtd:environment_initialization.obj
 0001:000754c0       ?initialize@?$dual_state_global@PEAPEA_W@__crt_state_management@@QEAAXQEAPEA_W@Z 00000001400764c0 f i libucrtd:environment_initialization.obj
 0001:000754c0       ?initialize@?$dual_state_global@PEAU__crt_locale_data@@@__crt_state_management@@QEAAXQEAU__crt_locale_data@@@Z 00000001400764c0 f i libucrtd:initialization.obj
 0001:000754c0       ?initialize@?$dual_state_global@PEAU__crt_multibyte_data@@@__crt_state_management@@QEAAXQEAU__crt_multibyte_data@@@Z 00000001400764c0 f i libucrtd:mbctype.obj
 0001:00075510       ?value@?$dual_state_global@P6AHPEAU_exception@@@Z@__crt_state_management@@QEAAAEAP6AHPEAU_exception@@@ZXZ 0000000140076510 f i libucrtd:matherr.obj
 0001:00075510       ?value@?$dual_state_global@P6AH_K@Z@__crt_state_management@@QEAAAEAP6AH_K@ZXZ 0000000140076510 f i libucrtd:new_handler.obj
 0001:00075510       ?value@?$dual_state_global@P6AXH@Z@__crt_state_management@@QEAAAEAP6AXH@ZXZ 0000000140076510 f i libucrtd:signal.obj
 0001:00075510       ?value@?$dual_state_global@PEAE@__crt_state_management@@QEAAAEAPEAEXZ 0000000140076510 f i libucrtd:mbctype.obj
 0001:00075510       ?value@?$dual_state_global@PEAPEAD@__crt_state_management@@QEAAAEAPEAPEADXZ 0000000140076510 f i libucrtd:environment_initialization.obj
 0001:00075510       ?value@?$dual_state_global@PEAPEA_W@__crt_state_management@@QEAAAEAPEAPEA_WXZ 0000000140076510 f i libucrtd:environment_initialization.obj
 0001:00075510       ?value@?$dual_state_global@PEAU__crt_locale_data@@@__crt_state_management@@QEAAAEAPEAU__crt_locale_data@@XZ 0000000140076510 f i libucrtd:wsetlocale.obj
 0001:00075510       ?value@?$dual_state_global@PEAU__crt_multibyte_data@@@__crt_state_management@@QEAAAEAPEAU__crt_multibyte_data@@XZ 0000000140076510 f i libucrtd:locale_update.obj
 0001:00075530       __acrt_initialize_new_handler 0000000140076530 f   libucrtd:new_handler.obj
 0001:00075550       _callnewh                  0000000140076550 f   libucrtd:new_handler.obj
 0001:000755b0       _query_new_handler         00000001400765b0 f   libucrtd:new_handler.obj
 0001:000755f0       malloc                     00000001400765f0 f   libucrtd:malloc.obj
 0001:00075690       _seh_filter_exe            0000000140076690 f   libucrtd:exception_filter.obj
 0001:00075960       ??$?B$$A6AHPEA_WK_J@Z@__crt_fast_encoded_nullptr_t@@QEBAP6AHPEA_WK_J@ZXZ 0000000140076960 f i libucrtd:winapi_thunks.obj
 0001:00075960       ??$?B$$A6AXH@Z@__crt_fast_encoded_nullptr_t@@QEBAP6AXH@ZXZ 0000000140076960 f i libucrtd:signal.obj
 0001:00075960       ??$?B$$A6AXPEAXK0@Z@__crt_fast_encoded_nullptr_t@@QEBAP6AXPEAXK0@ZXZ 0000000140076960 f i libucrtd:exit.obj
 0001:00075960       ??$?B$$A6AXXZ@__crt_fast_encoded_nullptr_t@@QEBAP6AXXZXZ 0000000140076960 f i libucrtd:onexit.obj
 0001:00075960       ??$?BP6AXXZ@__crt_fast_encoded_nullptr_t@@QEBAPEAP6AXXZXZ 0000000140076960 f i libucrtd:onexit.obj
 0001:00075960       ??$?BX@__crt_fast_encoded_nullptr_t@@QEBAPEAXXZ 0000000140076960 f i libucrtd:initialization.obj
 0001:00075a20       ??$__crt_fast_encode_pointer@P6AHPEAU_exception@@@Z@@YAP6AHPEAU_exception@@@ZQ6AH0@Z@Z 0000000140076a20 f i libucrtd:matherr.obj
 0001:00075a20       ??$__crt_fast_encode_pointer@P6AHPEA_WK_J@Z@@YAP6AHPEA_WK_J@ZQ6AH0K1@Z@Z 0000000140076a20 f i libucrtd:winapi_thunks.obj
 0001:00075a20       ??$__crt_fast_encode_pointer@P6AHXZ@@YAP6AHXZQ6AHXZ@Z 0000000140076a20 f i libucrtd:onexit.obj
 0001:00075a20       ??$__crt_fast_encode_pointer@P6AXH@Z@@YAP6AXH@ZQ6AXH@Z@Z 0000000140076a20 f i libucrtd:signal.obj
 0001:00075a20       ??$__crt_fast_encode_pointer@P6AXPEAXK0@Z@@YAP6AXPEAXK0@ZQ6AX0K0@Z@Z 0000000140076a20 f i libucrtd:exit.obj
 0001:00075a20       ??$__crt_fast_encode_pointer@P6AXXZ@@YAP6AXXZQ6AXXZ@Z 0000000140076a20 f i libucrtd:onexit.obj
 0001:00075a20       ??$__crt_fast_encode_pointer@PEAP6AXXZ@@YAPEAP6AXXZQEAP6AXXZ@Z 0000000140076a20 f i libucrtd:onexit.obj
 0001:00075a20       ??$__crt_fast_encode_pointer@PEAX@@YAPEAXQEAX@Z 0000000140076a20 f i libucrtd:initialization.obj
 0001:00075a60       ??$__crt_get_proc_address@P6AXI@Z@@YAP6AXI@ZQEAUHINSTANCE__@@QEBD@Z 0000000140076a60 f i libucrtd:exit.obj
 0001:00075a90       ??1?$__crt_unique_handle_t@U__crt_hmodule_traits@@@@QEAA@XZ 0000000140076a90 f i libucrtd:exit.obj
 0001:00075bd0       ?__acrt_select_exit_lock@@YA?AW4__acrt_lock_id@@XZ 0000000140076bd0 f i libucrtd:exit.obj
 0001:00075c00       ?close@?$__crt_unique_handle_t@U__crt_hmodule_traits@@@@QEAAXXZ 0000000140076c00 f i libucrtd:exit.obj
 0001:00075c40       ?close@__crt_hmodule_traits@@SA_NPEAUHINSTANCE__@@@Z 0000000140076c40 f i libucrtd:exit.obj
 0001:00075f00       __acrt_initialize_thread_local_exit_callback 0000000140076f00 f   libucrtd:exit.obj
 0001:00075f20       _c_exit                    0000000140076f20 f   libucrtd:exit.obj
 0001:00075f40       _cexit                     0000000140076f40 f   libucrtd:exit.obj
 0001:00075f60       _exit                      0000000140076f60 f   libucrtd:exit.obj
 0001:00075f80       _register_thread_local_exe_atexit_callback 0000000140076f80 f   libucrtd:exit.obj
 0001:00075fd0       exit                       0000000140076fd0 f   libucrtd:exit.obj
 0001:00076850       ??$set_program_name@PEAD@?$__crt_char_traits@D@@SAX$$QEAPEAD@Z 0000000140077850 f i libucrtd:argv_parsing.obj
 0001:00076980       __acrt_allocate_buffer_for_argv 0000000140077980 f   libucrtd:argv_parsing.obj
 0001:00076aa0       _configure_narrow_argv     0000000140077aa0 f   libucrtd:argv_parsing.obj
 0001:00076ac0       _set_pgmptr                0000000140077ac0 f i libucrtd:argv_parsing.obj
 0001:00077320       ??$get_environment_from_os@$$V@?$__crt_char_traits@D@@SAPEADXZ 0000000140078320 f i libucrtd:environment_initialization.obj
 0001:00077330       ??$get_environment_from_os@$$V@?$__crt_char_traits@_W@@SAPEA_WXZ 0000000140078330 f i libucrtd:environment_initialization.obj
 0001:000774c0       ??$set_variable_in_environment_nolock@PEA_WH@?$__crt_char_traits@_W@@SAH$$QEAPEA_W$$QEAH@Z 00000001400784c0 f i libucrtd:environment_initialization.obj
 0001:000774f0       ??$tcscpy_s@PEADAEB_KAEAPEAD@?$__crt_char_traits@D@@SAH$$QEAPEADAEB_KAEAPEAD@Z 00000001400784f0 f i libucrtd:environment_initialization.obj
 0001:00077530       ??$tcscpy_s@AEAPEA_WAEA_KAEBQEB_W@?$__crt_char_traits@_W@@SAHAEAPEA_WAEA_KAEBQEB_W@Z 0000000140078530 f i libucrtd:cenvarg.obj
 0001:00077530       ??$tcscpy_s@AEAPEA_WAEB_KAEAPEA_W@?$__crt_char_traits@_W@@SAHAEAPEA_WAEB_K0@Z 0000000140078530 f i libucrtd:setenv.obj
 0001:00077530       ??$tcscpy_s@AEAPEA_WAEB_KAEBQEB_W@?$__crt_char_traits@_W@@SAHAEAPEA_WAEB_KAEBQEB_W@Z 0000000140078530 f i libucrtd:getenv.obj
 0001:00077530       ??$tcscpy_s@AEAPEA_W_KAEBQEB_W@?$__crt_char_traits@_W@@SAHAEAPEA_W$$QEA_KAEBQEB_W@Z 0000000140078530 f i libucrtd:cenvarg.obj
 0001:00077530       ??$tcscpy_s@AEBQEA_WAEB_KAEBQEA_W@?$__crt_char_traits@_W@@SAHAEBQEA_WAEB_K0@Z 0000000140078530 f i libucrtd:setenv.obj
 0001:00077530       ??$tcscpy_s@PEA_WAEB_KAEAPEA_W@?$__crt_char_traits@_W@@SAH$$QEAPEA_WAEB_KAEAPEA_W@Z 0000000140078530 f i libucrtd:environment_initialization.obj
 0001:00077530       ??$tcscpy_s@PEA_WAEB_KAEAPEB_W@?$__crt_char_traits@_W@@SAH$$QEAPEA_WAEB_KAEAPEB_W@Z 0000000140078530 f i libucrtd:spawnv.obj
 0001:00077570       ??$uninitialize@A6AXAEAPEAPEAD@_E@?$dual_state_global@PEAPEAD@__crt_state_management@@QEAAXA6AXAEAPEAPEAD@_E@Z 0000000140078570 f i libucrtd:environment_initialization.obj
 0001:000775f0       ??$uninitialize@A6AXAEAPEAPEA_W@_E@?$dual_state_global@PEAPEA_W@__crt_state_management@@QEAAXA6AXAEAPEAPEA_W@_E@Z 00000001400785f0 f i libucrtd:environment_initialization.obj
 0001:000776f0       ?__crt_compute_required_transform_buffer_count@@YA_KIQEBD@Z 00000001400786f0 f i libucrtd:environment_initialization.obj
 0001:00077730       ?__crt_transform_string@@YA_KIQEBDQEA_W_K@Z 0000000140078730 f i libucrtd:environment_initialization.obj
 0001:00077810       __dcrt_get_or_create_wide_environment_nolock 0000000140078810 f   libucrtd:environment_initialization.obj
 0001:00077820       __dcrt_uninitialize_environments_nolock 0000000140078820 f   libucrtd:environment_initialization.obj
 0001:00077870       _initialize_narrow_environment 0000000140078870 f   libucrtd:environment_initialization.obj
 0001:00077f50       _crt_atexit                0000000140078f50 f   libucrtd:onexit.obj
 0001:00077f70       _execute_onexit_table      0000000140078f70 f   libucrtd:onexit.obj
 0001:00077fb0       _initialize_onexit_table   0000000140078fb0 f   libucrtd:onexit.obj
 0001:00078030       _register_onexit_function  0000000140079030 f   libucrtd:onexit.obj
 0001:00078330       __acrt_initialize          0000000140079330 f   libucrtd:initialization.obj
 0001:00078360       __acrt_uninitialize        0000000140079360 f   libucrtd:initialization.obj
 0001:00078560       __acrt_report_runtime_error 0000000140079560 f   libucrtd:report_runtime_error.obj
 0001:000787e0       _query_app_type            00000001400797e0 f   libucrtd:report_runtime_error.obj
 0001:000787f0       _set_app_type              00000001400797f0 f   libucrtd:report_runtime_error.obj
 0001:00078800       __acrt_has_user_matherr    0000000140079800 f   libucrtd:matherr.obj
 0001:00078840       __acrt_initialize_user_matherr 0000000140079840 f   libucrtd:matherr.obj
 0001:00078860       __acrt_invoke_user_matherr 0000000140079860 f   libucrtd:matherr.obj
 0001:000788d0       __setusermatherr           00000001400798d0 f   libucrtd:matherr.obj
 0001:00078a50       _get_narrow_winmain_command_line 0000000140079a50 f   libucrtd:argv_winmain.obj
 0001:00078a60       _initterm                  0000000140079a60 f   libucrtd:initterm.obj
 0001:00078ad0       _initterm_e                0000000140079ad0 f   libucrtd:initterm.obj
 0001:00078b50       ?value@?$dual_state_global@H@__crt_state_management@@QEAAAEAHXZ 0000000140079b50 f i libucrtd:setmode.obj
 0001:00078b50       ?value@?$dual_state_global@J@__crt_state_management@@QEAAAEAJXZ 0000000140079b50 f i libucrtd:new_mode.obj
 0001:00078b70       _get_fmode                 0000000140079b70 f   libucrtd:setmode.obj
 0001:00078c40       _set_fmode                 0000000140079c40 f   libucrtd:setmode.obj
 0001:00078d20       _setmode_nolock            0000000140079d20 f   libucrtd:setmode.obj
 0001:00079200       ??0_expandlocale_locale_name_cache@@QEAA@QEA_W_KQEAU__crt_qualified_locale_data@@@Z 000000014007a200 f i libucrtd:wsetlocale.obj
 0001:000792b0       ??1_expandlocale_locale_name_cache@@QEAA@XZ 000000014007a2b0 f i libucrtd:wsetlocale.obj
 0001:00079650       ?commit_locale_name@_expandlocale_locale_name_cache@@QEAAXQEB_W_K@Z 000000014007a650 f i libucrtd:wsetlocale.obj
 0001:000796d0       ?commit_locale_name_cache_already_updated@_expandlocale_locale_name_cache@@QEAAXQEB_W_K@Z 000000014007a6d0 f i libucrtd:wsetlocale.obj
 0001:00079740       __acrt_copy_locale_name    000000014007a740 f   libucrtd:wsetlocale.obj
 0001:00079810       __acrt_set_locale_changed  000000014007a810 f   libucrtd:wsetlocale.obj
 0001:00079820       __acrt_uninitialize_locale 000000014007a820 f   libucrtd:wsetlocale.obj
 0001:00079850       __lc_lctowcs               000000014007a850 f   libucrtd:wsetlocale.obj
 0001:00079940       __lc_wcstolc               000000014007a940 f   libucrtd:wsetlocale.obj
 0001:00079c00       _configthreadlocale        000000014007ac00 f   libucrtd:wsetlocale.obj
 0001:0007a420       _wcscats                   000000014007b420 f   libucrtd:wsetlocale.obj
 0001:0007a500       _wsetlocale                000000014007b500 f   libucrtd:wsetlocale.obj
 0001:0007c120       _query_new_mode            000000014007d120 f   libucrtd:new_mode.obj
 0001:0007c140       _set_new_mode              000000014007d140 f   libucrtd:new_mode.obj
 0001:0007c210       __p__commode               000000014007d210 f   libucrtd:ncommode.obj
 0001:0007c220       terminate                  000000014007d220 f   libucrtd:terminate.obj
 0001:0007c750       strcpy_s                   000000014007d750 f   libucrtd:strcpy_s.obj
 0001:0007c790       strncmp                    000000014007d790 f   libucrtd:strncmp.obj
 0001:0007c810       wcsncmp                    000000014007d810 f   libucrtd:wcsncmp.obj
 0001:0007d1e0       __acrt_getptd              000000014007e1e0 f   libucrtd:per_thread_data.obj
 0001:0007d210       __acrt_getptd_head         000000014007e210 f   libucrtd:per_thread_data.obj
 0001:0007d240       __acrt_getptd_noexit       000000014007e240 f   libucrtd:per_thread_data.obj
 0001:0007d250       __acrt_getptd_noexit_explicit 000000014007e250 f   libucrtd:per_thread_data.obj
 0001:0007d280       __acrt_initialize_ptd      000000014007e280 f   libucrtd:per_thread_data.obj
 0001:0007d2c0       __acrt_uninitialize_ptd    000000014007e2c0 f   libucrtd:per_thread_data.obj
 0001:0007d2f0       _towlower_l                000000014007e2f0 f   libucrtd:towlower.obj
 0001:0007d490       ?value_explicit@?$dual_state_global@PEAU__crt_locale_data@@@__crt_state_management@@QEAAAEAPEAU__crt_locale_data@@_K@Z 000000014007e490 f i libucrtd:locale_update.obj
 0001:0007d490       ?value_explicit@?$dual_state_global@PEAU__crt_multibyte_data@@@__crt_state_management@@QEAAAEAPEAU__crt_multibyte_data@@_K@Z 000000014007e490 f i libucrtd:locale_update.obj
 0001:0007d4b0       __acrt_update_locale_info  000000014007e4b0 f   libucrtd:locale_update.obj
 0001:0007d500       __acrt_update_locale_info_explicit 000000014007e500 f   libucrtd:locale_update.obj
 0001:0007d560       __acrt_update_multibyte_info 000000014007e560 f   libucrtd:locale_update.obj
 0001:0007d5b0       __acrt_update_multibyte_info_explicit 000000014007e5b0 f   libucrtd:locale_update.obj
 0001:0007d610       _chvalidator               000000014007e610 f   libucrtd:isctype.obj
 0001:0007d680       _chvalidator_l             000000014007e680 f   libucrtd:isctype.obj
 0001:0007d730       _isctype_l                 000000014007e730 f   libucrtd:isctype.obj
 0001:0007d970       _free_base                 000000014007e970 f   libucrtd:free_base.obj
 0001:0007d9d0       _realloc_base              000000014007e9d0 f   libucrtd:realloc_base.obj
 0001:0007daf0       _expand_base               000000014007eaf0 f   libucrtd:expand.obj
 0001:0007dc80       _CrtDefaultAllocHook       000000014007ec80 f   libucrtd:debug_heap_hook.obj
 0001:0007dca0       __acrt_initialize_heap     000000014007eca0 f   libucrtd:heap_handle.obj
 0001:0007dcd0       __acrt_uninitialize_heap   000000014007ecd0 f   libucrtd:heap_handle.obj
 0001:0007dcf0       _VCrtDbgReportA            000000014007ecf0 f   libucrtd:dbgrptt.obj
 0001:0007e730       _VCrtDbgReportW            000000014007f730 f   libucrtd:dbgrptt.obj
 0001:0007f340       _snprintf_s                0000000140080340 f i libucrtd:dbgrptt.obj
 0001:0007f3b0       _vsnprintf_s               00000001400803b0 f i libucrtd:dbgrptt.obj
 0001:0007f400       _vsnprintf_s_l             0000000140080400 f i libucrtd:dbgrptt.obj
 0001:0007f480       ?__acrt_get_utf8_acp_compatibility_codepage@@YAIXZ 0000000140080480 f i libucrtd:getmodulefilenamea.obj
 0001:0007f520       __acrt_GetModuleFileNameA  0000000140080520 f   libucrtd:getmodulefilenamea.obj
 0001:0007f740       ??$message_box@$$TAEBQEB_WAEBQEB_WK@?$__crt_char_traits@_W@@SAH$$QEA$$TAEBQEB_W1$$QEAK@Z 0000000140080740 f i libucrtd:crtmbox.obj
 0001:0007f740       ??$message_box@PEAUHWND__@@AEBQEB_WAEBQEB_WAEBI@?$__crt_char_traits@_W@@SAH$$QEAPEAUHWND__@@AEBQEB_W1AEBI@Z 0000000140080740 f i libucrtd:crtmbox.obj
 0001:0007f790       ??$output_debug_string@AEBQEB_W@?$__crt_char_traits@_W@@SAXAEBQEB_W@Z 0000000140080790 f i libucrtd:crtmbox.obj
 0001:0007f7b0       __acrt_show_wide_message_box 00000001400807b0 f   libucrtd:crtmbox.obj
 0001:0007f9b0       __acrt_get_sigabrt_handler 00000001400809b0 f   libucrtd:signal.obj
 0001:0007f9e0       __acrt_initialize_signal_handlers 00000001400809e0 f   libucrtd:signal.obj
 0001:0007fa40       __fpecode                  0000000140080a40 f   libucrtd:signal.obj
 0001:0007fa60       raise                      0000000140080a60 f   libucrtd:signal.obj
 0001:0007ff70       _CrtGetDebugFillThreshold  0000000140080f70 f   libucrtd:debug_fill_threshold.obj
 0001:0007ff80       ?__acrt_fp_classify@@YA?AW4__acrt_fp_class@@AEBN@Z 0000000140080f80 f i libucrtd:cvt.obj
 0001:00080080       ?__acrt_fp_is_negative@@YA_NAEBN@Z 0000000140081080 f i libucrtd:cvt.obj
 0001:000819a0       ?strrchr@@YAPEADQEADH@Z    00000001400829a0 f i libucrtd:cvt.obj
 0001:000819c0       __acrt_fp_format           00000001400829c0 f   libucrtd:cvt.obj
 0001:00082090       ?value_or@?$cached@H@__crt_cached_ptd_host@@QEBAHH@Z 0000000140083090 f i libucrtd:wctomb.obj
 0001:000820c0       _wctomb_internal           00000001400830c0 f   libucrtd:wctomb.obj
 0001:00082620       wctomb_s                   0000000140083620 f   libucrtd:wctomb.obj
 0001:000826a0       _mbtowc_internal           00000001400836a0 f   libucrtd:mbtowc.obj
 0001:00082a30       mbtowc                     0000000140083a30 f   libucrtd:mbtowc.obj
 0001:00082a90       _fileno                    0000000140083a90 f   libucrtd:fileno.obj
 0001:00082b70       _get_printf_count_output   0000000140083b70 f   libucrtd:printf_count_output.obj
 0001:00082ba0       _fputc_nolock_internal     0000000140083ba0 f   libucrtd:fputc.obj
 0001:00082c60       ?has_temporary_buffer@__crt_stdio_stream@@QEBA_NXZ 0000000140083c60 f i libucrtd:_sftbuf.obj
 0001:00082c80       __acrt_should_use_temporary_buffer 0000000140083c80 f   libucrtd:_sftbuf.obj
 0001:00082cd0       __acrt_stdio_begin_temporary_buffering_nolock 0000000140083cd0 f   libucrtd:_sftbuf.obj
 0001:00082f30       __acrt_stdio_end_temporary_buffering_nolock 0000000140083f30 f   libucrtd:_sftbuf.obj
 0001:00083370       __acrt_initialize_lowio    0000000140084370 f   libucrtd:ioinit.obj
 0001:000833c0       __acrt_uninitialize_lowio  00000001400843c0 f   libucrtd:ioinit.obj
 0001:00083c50       ?has_crt_buffer@__crt_stdio_stream@@QEBA_NXZ 0000000140084c50 f i libucrtd:_filbuf.obj
 0001:00083e90       __acrt_stdio_refill_and_read_narrow_nolock 0000000140084e90 f   libucrtd:_filbuf.obj
 0001:00083ec0       __acrt_stdio_refill_and_read_wide_nolock 0000000140084ec0 f   libucrtd:_filbuf.obj
 0001:00084a10       __acrt_stdio_flush_and_write_narrow_nolock 0000000140085a10 f   libucrtd:_flsbuf.obj
 0001:00084a50       __acrt_stdio_flush_and_write_wide_nolock 0000000140085a50 f   libucrtd:_flsbuf.obj
 0001:00084a90       __acrt_stdio_allocate_buffer_nolock 0000000140085a90 f   libucrtd:_getbuf.obj
 0001:00085600       GetCurrentThreadEffectiveToken 0000000140086600 f i libucrtd:winapi_thunks.obj
 0001:00085610       __acrt_AppPolicyGetProcessTerminationMethodInternal 0000000140086610 f   libucrtd:winapi_thunks.obj
 0001:00085670       __acrt_AppPolicyGetShowDeveloperDiagnosticInternal 0000000140086670 f   libucrtd:winapi_thunks.obj
 0001:000856d0       __acrt_AppPolicyGetWindowingModelInternal 00000001400866d0 f   libucrtd:winapi_thunks.obj
 0001:00085730       __acrt_AreFileApisANSI     0000000140086730 f   libucrtd:winapi_thunks.obj
 0001:00085780       __acrt_CompareStringEx     0000000140086780 f   libucrtd:winapi_thunks.obj
 0001:000858a0       __acrt_EnumSystemLocalesEx 00000001400868a0 f   libucrtd:winapi_thunks.obj
 0001:00085930       __acrt_FlsAlloc            0000000140086930 f   libucrtd:winapi_thunks.obj
 0001:00085950       __acrt_FlsFree             0000000140086950 f   libucrtd:winapi_thunks.obj
 0001:00085970       __acrt_FlsGetValue         0000000140086970 f   libucrtd:winapi_thunks.obj
 0001:00085990       __acrt_FlsSetValue         0000000140086990 f   libucrtd:winapi_thunks.obj
 0001:000859c0       __acrt_GetLocaleInfoEx     00000001400869c0 f   libucrtd:winapi_thunks.obj
 0001:00085a50       __acrt_GetUserDefaultLocaleName 0000000140086a50 f   libucrtd:winapi_thunks.obj
 0001:00085ad0       __acrt_InitializeCriticalSectionEx 0000000140086ad0 f   libucrtd:winapi_thunks.obj
 0001:00085b50       __acrt_IsValidLocaleName   0000000140086b50 f   libucrtd:winapi_thunks.obj
 0001:00085bc0       __acrt_LCIDToLocaleName    0000000140086bc0 f   libucrtd:winapi_thunks.obj
 0001:00085c40       __acrt_LCMapStringEx       0000000140086c40 f   libucrtd:winapi_thunks.obj
 0001:00085d50       __acrt_LocaleNameToLCID    0000000140086d50 f   libucrtd:winapi_thunks.obj
 0001:00085dc0       __acrt_MessageBoxW         0000000140086dc0 f   libucrtd:winapi_thunks.obj
 0001:00085e40       __acrt_can_show_message_box 0000000140086e40 f   libucrtd:winapi_thunks.obj
 0001:00085e80       __acrt_can_use_vista_locale_apis 0000000140086e80 f   libucrtd:winapi_thunks.obj
 0001:00085eb0       __acrt_eagerly_load_locale_apis 0000000140086eb0 f   libucrtd:winapi_thunks.obj
 0001:00085ef0       __acrt_get_parent_window   0000000140086ef0 f   libucrtd:winapi_thunks.obj
 0001:00085f90       __acrt_initialize_winapi_thunks 0000000140086f90 f   libucrtd:winapi_thunks.obj
 0001:00086010       __acrt_is_interactive      0000000140087010 f   libucrtd:winapi_thunks.obj
 0001:00086120       __acrt_uninitialize_winapi_thunks 0000000140087120 f   libucrtd:winapi_thunks.obj
 0001:000861c0       _fcloseall                 00000001400871c0 f   libucrtd:closeall.obj
 0001:000862d0       __acrt_stdio_free_buffer_nolock 00000001400872d0 f   libucrtd:_freebuf.obj
 0001:00086650       _close_internal            0000000140087650 f   libucrtd:close.obj
 0001:00086910       _close_nolock              0000000140087910 f   libucrtd:close.obj
 0001:00086950       _close_nolock_internal     0000000140087950 f   libucrtd:close.obj
 0001:000869c0       ?__acrt_stdio_allocate_stream@@YA?AV__crt_stdio_stream@@XZ 00000001400879c0 f   libucrtd:stream.obj
 0001:00086a80       ?__acrt_stdio_free_stream@@YAXV__crt_stdio_stream@@@Z 0000000140087a80 f   libucrtd:stream.obj
 0001:00086b20       ?deallocate@__crt_stdio_stream@@QEAAXXZ 0000000140087b20 f i libucrtd:stream.obj
 0001:00086cf0       ?lock@__crt_stdio_stream@@QEBAXXZ 0000000140087cf0 f i libucrtd:stream.obj
 0001:00086d10       ?try_allocate@__crt_stdio_stream@@QEAA_NXZ 0000000140087d10 f i libucrtd:stream.obj
 0001:00086f00       _commit                    0000000140087f00 f   libucrtd:commit.obj
 0001:000888f0       _utf8_no_of_trailbytes     00000001400898f0 f i libucrtd:write.obj
 0001:00088910       _write                     0000000140089910 f   libucrtd:write.obj
 0001:00088970       _write_internal            0000000140089970 f   libucrtd:write.obj
 0001:00088d10       _write_nolock              0000000140089d10 f   libucrtd:write.obj
 0001:0008a110       ?ctrl_z@__crt_stdio_stream@@QEBA_NXZ 000000014008b110 f i libucrtd:ftell.obj
 0001:0008a130       ?has_setvbuf_buffer@__crt_stdio_stream@@QEBA_NXZ 000000014008b130 f i libucrtd:ftell.obj
 0001:0008a150       _ftelli64                  000000014008b150 f   libucrtd:ftell.obj
 0001:0008a1a0       _ftelli64_nolock_internal  000000014008b1a0 f   libucrtd:ftell.obj
 0001:0008a710       _lseeki64                  000000014008b710 f   libucrtd:lseek.obj
 0001:0008a770       _lseeki64_internal         000000014008b770 f   libucrtd:lseek.obj
 0001:0008a7b0       _lseeki64_nolock           000000014008b7b0 f   libucrtd:lseek.obj
 0001:0008a810       _lseeki64_nolock_internal  000000014008b810 f   libucrtd:lseek.obj
 0001:0008a850       ??I@YA?AW4__acrt_fenv_abstract_control@@W40@0@Z 000000014008b850 f i libucrtd:_fenvutils.obj
 0001:0008a850       ??I@YA?AW4__acrt_fenv_abstract_status@@W40@0@Z 000000014008b850 f i libucrtd:fesetexceptflag.obj
 0001:0008a850       ??I@YA?AW4__acrt_fenv_machine_sse_status@@W40@0@Z 000000014008b850 f i libucrtd:_fenvutils.obj
 0001:0008a870       ??_5@YAAEAW4__acrt_fenv_abstract_control@@AEAW40@W40@@Z 000000014008b870 f i libucrtd:_fenvutils.obj
 0001:0008a870       ??_5@YAAEAW4__acrt_fenv_abstract_status@@AEAW40@W40@@Z 000000014008b870 f i libucrtd:fesetexceptflag.obj
 0001:0008a870       ??_5@YAAEAW4__acrt_fenv_machine_sse_status@@AEAW40@W40@@Z 000000014008b870 f i libucrtd:_fenvutils.obj
 0001:0008a8a0       ??$__acrt_fenv_shift_bits@W4__acrt_fenv_abstract_control@@@@YA?AW4__acrt_fenv_abstract_control@@W40@0I@Z 000000014008b8a0 f i libucrtd:_fenvutils.obj
 0001:0008a8a0       ??$__acrt_fenv_shift_bits@W4__acrt_fenv_abstract_status@@@@YA?AW4__acrt_fenv_abstract_status@@W40@0I@Z 000000014008b8a0 f i libucrtd:_fenvutils.obj
 0001:0008a8d0       ??$__acrt_fenv_translate_bit@W4__acrt_fenv_abstract_control@@W4__acrt_fenv_machine_sse_control@@@@YA?AW4__acrt_fenv_abstract_control@@W4__acrt_fenv_machine_sse_control@@0W40@1@Z 000000014008b8d0 f i libucrtd:_fenvutils.obj
 0001:0008a930       ??$__acrt_fenv_translate_bit@W4__acrt_fenv_abstract_status@@W4__acrt_fenv_machine_sse_status@@@@YA?AW4__acrt_fenv_abstract_status@@W4__acrt_fenv_machine_sse_status@@0W40@1@Z 000000014008b930 f i libucrtd:_fenvutils.obj
 0001:0008a930       ??$__acrt_fenv_translate_bit@W4__acrt_fenv_machine_sse_status@@W4__acrt_fenv_abstract_status@@@@YA?AW4__acrt_fenv_machine_sse_status@@W4__acrt_fenv_abstract_status@@0W40@1@Z 000000014008b930 f i libucrtd:_fenvutils.obj
 0001:0008a980       ??$__acrt_fenv_translate_bit@W4__acrt_fenv_machine_sse_control@@W4__acrt_fenv_abstract_control@@@@YA?AW4__acrt_fenv_machine_sse_control@@W4__acrt_fenv_abstract_control@@0W40@1@Z 000000014008b980 f i libucrtd:_fenvutils.obj
 0001:0008a9e0       ??$__acrt_fenv_unshift_bits@W4__acrt_fenv_abstract_control@@@@YA?AW4__acrt_fenv_abstract_control@@W40@0I@Z 000000014008b9e0 f i libucrtd:_fenvutils.obj
 0001:0008a9e0       ??$__acrt_fenv_unshift_bits@W4__acrt_fenv_abstract_status@@@@YA?AW4__acrt_fenv_abstract_status@@W40@0I@Z 000000014008b9e0 f i libucrtd:_fenvutils.obj
 0001:0008aed0       ??I@YA?AW4__acrt_fenv_machine_sse_control@@W40@0@Z 000000014008bed0 f i libucrtd:_fenvutils.obj
 0001:0008aef0       ??U@YA?AW4__acrt_fenv_machine_sse_control@@W40@0@Z 000000014008bef0 f i libucrtd:_fenvutils.obj
 0001:0008af10       ??_5@YAAEAW4__acrt_fenv_machine_sse_control@@AEAW40@W40@@Z 000000014008bf10 f i libucrtd:_fenvutils.obj
 0001:0008af40       ?__acrt_fenv_shift_abstract_sse_control@@YA?AW4__acrt_fenv_abstract_control@@W41@@Z 000000014008bf40 f i libucrtd:_fenvutils.obj
 0001:0008af90       ?__acrt_fenv_shift_abstract_sse_status@@YA?AW4__acrt_fenv_abstract_status@@W41@@Z 000000014008bf90 f i libucrtd:_fenvutils.obj
 0001:0008afc0       ?__acrt_fenv_unshift_abstract_sse_control@@YA?AW4__acrt_fenv_abstract_control@@W41@@Z 000000014008bfc0 f i libucrtd:_fenvutils.obj
 0001:0008b010       ?__acrt_fenv_unshift_abstract_sse_status@@YA?AW4__acrt_fenv_abstract_status@@W41@@Z 000000014008c010 f i libucrtd:_fenvutils.obj
 0001:0008b300       __acrt_fenv_get_common_round_control 000000014008c300 f   libucrtd:_fenvutils.obj
 0001:0008b320       __acrt_fenv_get_control    000000014008c320 f   libucrtd:_fenvutils.obj
 0001:0008b350       __acrt_fenv_get_status     000000014008c350 f   libucrtd:_fenvutils.obj
 0001:0008b380       __acrt_fenv_set_control    000000014008c380 f   libucrtd:_fenvutils.obj
 0001:0008b3a0       __acrt_fenv_set_status     000000014008c3a0 f   libucrtd:_fenvutils.obj
 0001:0008b3c0       _dsign                     000000014008c3c0 f   libucrtd:nan.obj
 0001:0008b3e0       _errcode                   000000014008c3e0 f   libucrtd:fpexcept.obj
 0001:0008b460       _except1                   000000014008c460 f   libucrtd:fpexcept.obj
 0001:0008b600       _handle_exc                000000014008c600 f   libucrtd:fpexcept.obj
 0001:0008baf0       _raise_exc                 000000014008caf0 f   libucrtd:fpexcept.obj
 0001:0008bb50       _raise_exc_ex              000000014008cb50 f   libucrtd:fpexcept.obj
 0001:0008c1d0       _set_errno_from_matherr    000000014008d1d0 f   libucrtd:fpexcept.obj
 0001:0008c220       _umatherr                  000000014008d220 f   libucrtd:fpexcept.obj
 0001:0008c2f0       _decomp                    000000014008d2f0 f   libucrtd:util.obj
 0001:0008c440       _set_exp                   000000014008d440 f   libucrtd:util.obj
 0001:0008c490       _sptype                    000000014008d490 f   libucrtd:util.obj
 0001:0008c510       _clrfp                     000000014008d510 f   libucrtd:fpctrl.obj
 0001:0008c540       _ctrlfp                    000000014008d540 f   libucrtd:fpctrl.obj
 0001:0008c5f0       _set_statfp                000000014008d5f0 f   libucrtd:fpctrl.obj
 0001:0008c630       _statfp                    000000014008d630 f   libucrtd:fpctrl.obj
 0001:0008c660       iswctype                   000000014008d660 f   libucrtd:iswctype.obj
 0001:0008cb10       ??$get_or_create_environment_nolock@$$V@?$__crt_char_traits@_W@@SAPEAPEA_WXZ 000000014008db10 f i libucrtd:getenv.obj
 0001:0008cb20       ??$tcsnicoll@AEAPEA_WAEBQEB_WAEB_K@?$__crt_char_traits@_W@@SAHAEAPEA_WAEBQEB_WAEB_K@Z 000000014008db20 f i libucrtd:getenv.obj
 0001:0008cb20       ??$tcsnicoll@AEBQEB_WAEAPEA_WAEB_K@?$__crt_char_traits@_W@@SAHAEBQEB_WAEAPEA_WAEB_K@Z 000000014008db20 f i libucrtd:setenv.obj
 0001:0008cb60       ??$tcsnlen@PEA_WH@?$__crt_char_traits@_W@@SA_K$$QEAPEA_W$$QEAH@Z 000000014008db60 f i libucrtd:getenv.obj
 0001:0008cb90       _wdupenv_s_dbg             000000014008db90 f   libucrtd:getenv.obj
 0001:0008d5e0       ??$create_process@PEA_WPEA_W$$T$$THAEAKPEA_W$$TPEAU_STARTUPINFOW@@PEAU_PROCESS_INFORMATION@@@?$__crt_char_traits@_W@@SAH$$QEAPEA_W0$$QEA$$T1$$QEAHAEAK01$$QEAPEAU_STARTUPINFOW@@$$QEAPEAU_PROCESS_INFORMATION@@@Z 000000014008e5e0 f i libucrtd:spawnv.obj
 0001:0008ddf0       ??$pack_command_line_and_environment@AEBQEBQEB_WAEBQEBQEB_WPEAPEA_WPEAPEA_W@?$__crt_char_traits@_W@@SAHAEBQEBQEB_W0$$QEAPEAPEA_W1@Z 000000014008edf0 f i libucrtd:spawnv.obj
 0001:0008de40       ??$tcscat_s@AEAPEA_WAEB_KPEA_W@?$__crt_char_traits@_W@@SAHAEAPEA_WAEB_K$$QEAPEA_W@Z 000000014008ee40 f i libucrtd:cenvarg.obj
 0001:0008de40       ??$tcscat_s@PEA_WAEB_KAEBQEB_W@?$__crt_char_traits@_W@@SAH$$QEAPEA_WAEB_KAEBQEB_W@Z 000000014008ee40 f i libucrtd:spawnv.obj
 0001:0008de80       ??$tcscpy_s@AEAPEA_WHAEAY04$$CB_W@?$__crt_char_traits@_W@@SAHAEAPEA_W$$QEAHAEAY04$$CB_W@Z 000000014008ee80 f i libucrtd:spawnv.obj
 0001:0008dec0       ??$tcscpy_s@AEAPEA_WAEB_KAEAY0L@$$CB_W@?$__crt_char_traits@_W@@SAHAEAPEA_WAEB_KAEAY0L@$$CB_W@Z 000000014008eec0 f i libucrtd:cenvarg.obj
 0001:0008dec0       ??$tcscpy_s@PEA_WAEB_KAEAY02$$CB_W@?$__crt_char_traits@_W@@SAH$$QEAPEA_WAEB_KAEAY02$$CB_W@Z 000000014008eec0 f i libucrtd:spawnv.obj
 0001:0008df00       ??$tcsrchr@AEAPEB_WD@?$__crt_char_traits@_W@@SAPEB_WAEAPEB_W$$QEAD@Z 000000014008ef00 f i libucrtd:spawnv.obj
 0001:0008df00       ??$tcsrchr@AEBQEB_WD@?$__crt_char_traits@_W@@SAPEB_WAEBQEB_W$$QEAD@Z 000000014008ef00 f i libucrtd:spawnv.obj
 0001:0008df30       ??1?$__crt_unique_handle_t@U__crt_handle_traits@@@@QEAA@XZ 000000014008ef30 f i libucrtd:spawnv.obj
 0001:0008e310       ?close@?$__crt_unique_handle_t@U__crt_handle_traits@@@@QEAAXXZ 000000014008f310 f i libucrtd:spawnv.obj
 0001:0008e350       ?close@__crt_handle_traits@@SA_NPEAX@Z 000000014008f350 f i libucrtd:spawnv.obj
 0001:0008e390       ?detach@?$__crt_unique_handle_t@U__crt_handle_traits@@@@QEAAPEAXXZ 000000014008f390 f i libucrtd:spawnv.obj
 0001:0008e3d0       _wspawnve                  000000014008f3d0 f   libucrtd:spawnv.obj
 0001:0008eee0       ??$tcscat_s@AEAPEA_WHAEAY01$$CB_W@?$__crt_char_traits@_W@@SAHAEAPEA_W$$QEAHAEAY01$$CB_W@Z 000000014008fee0 f i libucrtd:spawnvp.obj
 0001:0008ef20       ??$tcscat_s@AEAPEA_WHAEBQEB_W@?$__crt_char_traits@_W@@SAHAEAPEA_W$$QEAHAEBQEB_W@Z 000000014008ff20 f i libucrtd:spawnvp.obj
 0001:0008ef60       ??$tcschr@AEAPEA_WD@?$__crt_char_traits@_W@@SAPEA_WAEAPEA_W$$QEAD@Z 000000014008ff60 f i libucrtd:spawnvp.obj
